 apart

 Timestamp is 6866db32 (Thu Jul  3 15:34:10 2025)

 Preferred load address is 0000000180000000

 Start         Length     Name                   Class
 0001:00000000 000874f0H .text$mn                CODE
 0001:000874f0 00001070H .text$mn$00             CODE
 0001:00088560 00001f00H .text$mn$21             CODE
 0001:0008a460 00001d2bH .text$x                 CODE
 0002:00000000 00000110H .CRT$XCA                DATA
 0002:00000110 00000110H .CRT$XCZ                DATA
 0002:00000220 00000110H .CRT$XIA                DATA
 0002:00000330 00000130H .CRT$XIC                DATA
 0002:00000460 00000110H .CRT$XIZ                DATA
 0002:00000570 00000110H .CRT$XPA                DATA
 0002:00000680 00000120H .CRT$XPX                DATA
 0002:000007a0 00000110H .CRT$XPXA               DATA
 0002:000008b0 00000110H .CRT$XPZ                DATA
 0002:000009c0 00000110H .CRT$XTA                DATA
 0002:00000ad0 00000110H .CRT$XTZ                DATA
 0002:00000be0 0000fc40H .rdata                  DATA
 0002:00010820 000002e0H .rdata$00               DATA
 0002:00010b00 00000200H .rdata$CastGuardVftablesA DATA
 0002:00010d00 000001a0H .rdata$CastGuardVftablesC DATA
 0002:00010ea0 0000060cH .rdata$r                DATA
 0002:000114ac 0000014cH .rdata$zzzdbg           DATA
 0002:000115f8 00000110H .rtc$IAA                DATA
 0002:00011708 00000110H .rtc$IZZ                DATA
 0002:00011818 00000110H .rtc$TAA                DATA
 0002:00011928 00000110H .rtc$TZZ                DATA
 0002:00011a38 00007ce0H .xdata                  DATA
 0002:00019718 00000198H .xdata$x                DATA
 0002:000198b0 00000180H .edata                  DATA
 0003:00000000 00000de0H .data                   DATA
 0003:00000de0 00000190H .data$r                 DATA
 0003:00000f70 00000230H .data$rs                DATA
 0003:000011a0 00001f59H .bss                    DATA
 0004:00000000 0000561cH .pdata                  DATA
 0005:00000000 000003c8H .idata$5                DATA
 0005:000003c8 00000014H .idata$2                DATA
 0005:000003dc 00000014H .idata$3                DATA
 0005:000003f0 000003c8H .idata$4                DATA
 0005:000007b8 00000871H .idata$6                DATA
 0006:00000000 00000175H .00cfg                  DATA
 0007:00000000 0000035fH _RDATA                  DATA
 0008:00000000 00000233H .fptable                DATA

  Address         Publics by Value              Rva+Base               Lib:Object

 0000:00000000       __AbsoluteZero             0000000000000000     <absolute>
 0000:00000000       ___safe_se_handler_count   0000000000000000     <absolute>
 0000:00000000       ___safe_se_handler_table   0000000000000000     <absolute>
 0000:00000000       __arm64x_extra_rfe_table   0000000000000000     <absolute>
 0000:00000000       __arm64x_extra_rfe_table_size 0000000000000000     <absolute>
 0000:00000000       __arm64x_native_entrypoint 0000000000000000     <absolute>
 0000:00000000       __arm64x_redirection_metadata 0000000000000000     <absolute>
 0000:00000000       __arm64x_redirection_metadata_count 0000000000000000     <absolute>
 0000:00000000       __dynamic_value_reloc_table 0000000000000000     <absolute>
 0000:00000000       __enclave_config           0000000000000000     <absolute>
 0000:00000000       __guard_check_icall_a64n_fptr 0000000000000000     <absolute>
 0000:00000000       __guard_eh_cont_count      0000000000000000     <absolute>
 0000:00000000       __guard_eh_cont_table      0000000000000000     <absolute>
 0000:00000000       __guard_fids_count         0000000000000000     <absolute>
 0000:00000000       __guard_fids_table         0000000000000000     <absolute>
 0000:00000000       __guard_iat_count          0000000000000000     <absolute>
 0000:00000000       __guard_iat_table          0000000000000000     <absolute>
 0000:00000000       __guard_longjmp_count      0000000000000000     <absolute>
 0000:00000000       __guard_longjmp_table      0000000000000000     <absolute>
 0000:00000000       __hybrid_auxiliary_delayload_iat 0000000000000000     <absolute>
 0000:00000000       __hybrid_auxiliary_delayload_iat_copy 0000000000000000     <absolute>
 0000:00000000       __hybrid_auxiliary_iat     0000000000000000     <absolute>
 0000:00000000       __hybrid_auxiliary_iat_copy 0000000000000000     <absolute>
 0000:00000000       __hybrid_code_map          0000000000000000     <absolute>
 0000:00000000       __hybrid_code_map_count    0000000000000000     <absolute>
 0000:00000000       __hybrid_image_info_bitfield 0000000000000000     <absolute>
 0000:00000000       __volatile_metadata        0000000000000000     <absolute>
 0000:00000000       __x64_code_ranges_to_entry_points 0000000000000000     <absolute>
 0000:00000000       __x64_code_ranges_to_entry_points_count 0000000000000000     <absolute>
 0000:00000100       __guard_flags              0000000000000100     <absolute>
 0000:00000000       __ImageBase                0000000180000000     <linker-defined>
 0001:00006530       ?PushSize_@@YAPEAXPEAUmemory_arena@@_K@Z 0000000180007530 f   apart.obj
 0001:00006a10       ?Subtract@@YA?AUtile_map_difference@@PEAUtile_map@@PEAUtile_map_position@@1@Z 0000000180007a10 f   apart.obj
 0001:00008d10       GameGetSoundData           0000000180009d10 f   apart.obj
 0001:00008d20       GameUpdateAndRender        0000000180009d20 f   apart.obj
 0001:0000bdc0       ??D@YA?AUv2@@MU0@@Z        000000018000cdc0 f i apart.obj
 0001:0000be10       ??D@YA?AUv2@@U0@M@Z        000000018000ce10 f i apart.obj
 0001:0000be60       ??G@YA?AUv2@@U0@0@Z        000000018000ce60 f i apart.obj
 0001:0000beb0       ??H@YA?AUv2@@U0@0@Z        000000018000ceb0 f i apart.obj
 0001:0000bf00       ??Xv2@@QEAAAEAU0@M@Z       000000018000cf00 f i apart.obj
 0001:0000bf50       ??Yv2@@QEAAAEAU0@U0@@Z     000000018000cf50 f i apart.obj
 0001:0000bfa0       ?CeilReal32ToInt32@@YAHM@Z 000000018000cfa0 f i apart.obj
 0001:0000bfd0       ?CenteredTilePoint@@YA?AUtile_map_position@@III@Z 000000018000cfd0 f i apart.obj
 0001:0000c070       ?FindLeastSignificantSetBit@@YA?AUbit_scan_result@@I@Z 000000018000d070 f i apart.obj
 0001:0000c0c0       ?GetChunkPositionFor@@YA?AUtile_chunk_position@@PEAUtile_map@@III@Z 000000018000d0c0 f i apart.obj
 0001:0000c1b0       ?GetController@@YAPEAUgame_controller_input@@PEAUgame_input@@I@Z 000000018000d1b0 f i apart.obj
 0001:0000c1f0       ?GetEntity@@YAPEAUentity@@PEAUgame_state@@I@Z 000000018000d1f0 f i apart.obj
 0001:0000c250       ?GetTileChunk@@YAPEAUtile_chunk@@PEAUtile_map@@III@Z 000000018000d250 f i apart.obj
 0001:0000c330       ?GetTileChunkValueUnchecked@@YA?AUtile_value@@PEAUtile_map@@PEAUtile_chunk@@II@Z 000000018000d330 f i apart.obj
 0001:0000c410       ?Inner@@YAMUv2@@0@Z        000000018000d410 f i apart.obj
 0001:0000c460       ?Offset@@YA?AUtile_map_position@@PEAUtile_map@@U1@Uv2@@@Z 000000018000d460 f i apart.obj
 0001:0000c570       ?RecanonicalizeCoord@@YAXPEAUtile_map@@PEAIPEAM@Z 000000018000d570 f i apart.obj
 0001:0000c670       ?RecanonicalizePosition@@YA?AUtile_map_position@@PEAUtile_map@@U1@@Z 000000018000d670 f i apart.obj
 0001:0000c720       ?RoundReal32ToInt32@@YAHM@Z 000000018000d720 f i apart.obj
 0001:0000c750       ?SetTileValue@@YAIPEAUtile_map@@PEAUtile_chunk@@IIUtile_value@@@Z 000000018000d750 f i apart.obj
 0001:0000c7f0       ?SetTileValueUnchecked@@YAXPEAUtile_map@@PEAUtile_chunk@@IIUtile_value@@@Z 000000018000d7f0 f i apart.obj
 0001:0000c8b0       ?Square@@YAMM@Z            000000018000d8b0 f i apart.obj
 0001:0000c8e0       ?SquareRoot@@YAMM@Z        000000018000d8e0 f i apart.obj
 0001:0000c910       __GSHandlerCheck           000000018000d910 f   LIBCMT:gshandler.obj
 0001:0000c934       __GSHandlerCheckCommon     000000018000d934 f   LIBCMT:gshandler.obj
 0001:0000c9c0       __chkstk                   000000018000d9c0 f   LIBCMT:chkstk.obj
 0001:0000c9c0       _alloca_probe              000000018000d9c0 f   LIBCMT:chkstk.obj
 0001:0000ca40       __security_check_cookie    000000018000da40 f   LIBCMT:amdsecgs.obj
 0001:0000ce6c       _CRT_INIT                  000000018000de6c f   LIBCMT:dll_dllmain.obj
 0001:0000ce74       _DllMainCRTStartup         000000018000de74 f   LIBCMT:dll_dllmain.obj
 0001:0000cec0       __raise_securityfailure    000000018000dec0 f   LIBCMT:gs_report.obj
 0001:0000cf04       __report_gsfailure         000000018000df04 f   LIBCMT:gs_report.obj
 0001:0000d00c       __report_rangecheckfailure 000000018000e00c f   LIBCMT:gs_report.obj
 0001:0000d024       __report_securityfailure   000000018000e024 f   LIBCMT:gs_report.obj
 0001:0000d0e8       __report_securityfailureEx 000000018000e0e8 f   LIBCMT:gs_report.obj
 0001:0000d3dc       __security_init_cookie     000000018000e3dc f   LIBCMT:gs_support.obj
 0001:0000d4b4       DllMain                    000000018000e4b4 f   LIBCMT:dll_dllmain_stub.obj
 0001:0000d4bc       ?__scrt_initialize_type_info@@YAXXZ 000000018000e4bc f   LIBCMT:tncleanup.obj
 0001:0000d4d0       ?__scrt_uninitialize_type_info@@YAXXZ 000000018000e4d0 f   LIBCMT:tncleanup.obj
 0001:0000d4e0       __local_stdio_printf_options 000000018000e4e0 f i LIBCMT:default_local_stdio_options.obj
 0001:0000d4ec       __local_stdio_scanf_options 000000018000e4ec f i LIBCMT:default_local_stdio_options.obj
 0001:0000d4f8       __scrt_initialize_default_local_stdio_options 000000018000e4f8 f   LIBCMT:default_local_stdio_options.obj
 0001:0000d51c       ?configure_argv@__scrt_narrow_argv_policy@@SAHXZ 000000018000e51c f i LIBCMT:utility.obj
 0001:0000d594       ?initialize_environment@__scrt_narrow_environment_policy@@SAHXZ 000000018000e594 f i LIBCMT:utility.obj
 0001:0000d5d8       NtCurrentTeb               000000018000e5d8 f i LIBCMT:utility.obj
 0001:0000d5e4       __scrt_acquire_startup_lock 000000018000e5e4 f   LIBCMT:utility.obj
 0001:0000d62c       __scrt_dllmain_after_initialize_c 000000018000e62c f   LIBCMT:utility.obj
 0001:0000d670       __scrt_dllmain_before_initialize_c 000000018000e670 f   LIBCMT:utility.obj
 0001:0000d68c       __scrt_dllmain_crt_thread_attach 000000018000e68c f   LIBCMT:utility.obj
 0001:0000d6c0       __scrt_dllmain_crt_thread_detach 000000018000e6c0 f   LIBCMT:utility.obj
 0001:0000d6dc       __scrt_dllmain_exception_filter 000000018000e6dc f   LIBCMT:utility.obj
 0001:0000d754       __scrt_dllmain_uninitialize_c 000000018000e754 f   LIBCMT:utility.obj
 0001:0000d790       __scrt_dllmain_uninitialize_critical 000000018000e790 f   LIBCMT:utility.obj
 0001:0000d7ac       __scrt_initialize_crt      000000018000e7ac f   LIBCMT:utility.obj
 0001:0000d7f4       __scrt_initialize_onexit_tables 000000018000e7f4 f   LIBCMT:utility.obj
 0001:0000d8a4       __scrt_is_nonwritable_in_current_image 000000018000e8a4 f   LIBCMT:utility.obj
 0001:0000d964       __scrt_release_startup_lock 000000018000e964 f   LIBCMT:utility.obj
 0001:0000d994       __scrt_uninitialize_crt    000000018000e994 f   LIBCMT:utility.obj
 0001:0000d9c8       _onexit                    000000018000e9c8 f   LIBCMT:utility.obj
 0001:0000da10       at_quick_exit              000000018000ea10 f   LIBCMT:utility.obj
 0001:0000da34       atexit                     000000018000ea34 f   LIBCMT:utility.obj
 0001:0000da50       __scrt_get_dyn_tls_init_callback 000000018000ea50 f   LIBCMT:dyn_tls_init.obj
 0001:0000da5c       __crt_debugger_hook        000000018000ea5c f   LIBCMT:utility_desktop.obj
 0001:0000da68       __scrt_fastfail            000000018000ea68 f   LIBCMT:utility_desktop.obj
 0001:0000dc04       __scrt_get_show_window_mode 000000018000ec04 f   LIBCMT:utility_desktop.obj
 0001:0000dc4c       __scrt_initialize_mta      000000018000ec4c f   LIBCMT:utility_desktop.obj
 0001:0000dc54       __scrt_initialize_winrt    000000018000ec54 f   LIBCMT:utility_desktop.obj
 0001:0000dc58       __scrt_is_managed_app      000000018000ec58 f   LIBCMT:utility_desktop.obj
 0001:0000dcc0       __scrt_set_unhandled_exception_filter 000000018000ecc0 f   LIBCMT:utility_desktop.obj
 0001:0000dcd4       __scrt_exe_initialize_mta  000000018000ecd4 f   LIBCMT:utility_desktop.obj
 0001:0000dcd4       __scrt_stub_for_initialize_mta 000000018000ecd4 f   LIBCMT:utility_desktop.obj
 0001:0000dcd8       __scrt_unhandled_exception_filter 000000018000ecd8 f   LIBCMT:utility_desktop.obj
 0001:0000dd4c       _RTC_Initialize            000000018000ed4c f   LIBCMT:initsect.obj
 0001:0000dd98       _RTC_Terminate             000000018000ed98 f   LIBCMT:initsect.obj
 0001:0000dde4       _guard_check_icall_nop     000000018000ede4 f i LIBCMT:guard_support.obj
 0001:0000dde8       ReadNoFence64              000000018000ede8 f i LIBCMT:guard_support.obj
 0001:0000ddec       ReadPointerNoFence         000000018000edec f i LIBCMT:guard_support.obj
 0001:0000ddf0       __castguard_check_failure_debugbreak 000000018000edf0 f i LIBCMT:guard_support.obj
 0001:0000de14       __castguard_check_failure_fastfail 000000018000ee14 f i LIBCMT:guard_support.obj
 0001:0000de40       __castguard_check_failure_nop 000000018000ee40 f i LIBCMT:guard_support.obj
 0001:0000de44       __castguard_check_failure_os_handled 000000018000ee44 f i LIBCMT:guard_support.obj
 0001:0000dea0       __castguard_check_failure_user_handled 000000018000eea0 f i LIBCMT:guard_support.obj
 0001:0000df2c       __castguard_set_user_handler 000000018000ef2c f i LIBCMT:guard_support.obj
 0001:0000df3c       __castguard_slow_path_check_debugbreak 000000018000ef3c f i LIBCMT:guard_support.obj
 0001:0000df80       __castguard_slow_path_check_fastfail 000000018000ef80 f i LIBCMT:guard_support.obj
 0001:0000dfc8       __castguard_slow_path_check_nop 000000018000efc8 f i LIBCMT:guard_support.obj
 0001:0000dfcc       __castguard_slow_path_check_os_handled 000000018000efcc f i LIBCMT:guard_support.obj
 0001:0000e02c       __castguard_slow_path_check_user_handled 000000018000f02c f i LIBCMT:guard_support.obj
 0001:0000e0b0       _guard_icall_checks_enforced 000000018000f0b0 f i LIBCMT:guard_support.obj
 0001:0000e0cc       _guard_rf_checks_enforced  000000018000f0cc f i LIBCMT:guard_support.obj
 0001:0000e0d0       __isa_available_init       000000018000f0d0 f   LIBCMT:cpu_disp.obj
 0001:0000e2e8       _get_startup_argv_mode     000000018000f2e8 f   LIBCMT:argv_mode.obj
 0001:0000e2f0       __scrt_is_ucrt_dll_in_use  000000018000f2f0 f   LIBCMT:ucrt_detection.obj
 0001:0000e300       RtlCaptureContext          000000018000f300 f   kernel32:KERNEL32.dll
 0001:0000e306       RtlLookupFunctionEntry     000000018000f306 f   kernel32:KERNEL32.dll
 0001:0000e30c       RtlVirtualUnwind           000000018000f30c f   kernel32:KERNEL32.dll
 0001:0000e312       UnhandledExceptionFilter   000000018000f312 f   kernel32:KERNEL32.dll
 0001:0000e318       SetUnhandledExceptionFilter 000000018000f318 f   kernel32:KERNEL32.dll
 0001:0000e31e       GetCurrentProcess          000000018000f31e f   kernel32:KERNEL32.dll
 0001:0000e324       TerminateProcess           000000018000f324 f   kernel32:KERNEL32.dll
 0001:0000e32a       IsProcessorFeaturePresent  000000018000f32a f   kernel32:KERNEL32.dll
 0001:0000e330       QueryPerformanceCounter    000000018000f330 f   kernel32:KERNEL32.dll
 0001:0000e336       GetCurrentProcessId        000000018000f336 f   kernel32:KERNEL32.dll
 0001:0000e33c       GetCurrentThreadId         000000018000f33c f   kernel32:KERNEL32.dll
 0001:0000e342       GetSystemTimeAsFileTime    000000018000f342 f   kernel32:KERNEL32.dll
 0001:0000e348       InitializeSListHead        000000018000f348 f   kernel32:KERNEL32.dll
 0001:0000e34e       IsDebuggerPresent          000000018000f34e f   kernel32:KERNEL32.dll
 0001:0000e354       GetStartupInfoW            000000018000f354 f   kernel32:KERNEL32.dll
 0001:0000e35a       GetModuleHandleW           000000018000f35a f   kernel32:KERNEL32.dll
 0001:0000e360       __C_specific_handler       000000018000f360 f   libvcruntime:riscchandler.obj
 0001:0000e60c       ??$?RD@__crt_internal_free_policy@@QEBAXQEBD@Z 000000018000f60c f i libvcruntime:std_type_info.obj
 0001:0000e618       ??$?RX@__crt_internal_free_policy@@QEBAXQEBX@Z 000000018000f618 f i libvcruntime:std_type_info.obj
 0001:0000e624       ??$__crt_interlocked_compare_exchange_pointer@$$CBDPEAD$$T@@YAPEBDPEDSEBDQEAD$$T@Z 000000018000f624 f i libvcruntime:std_type_info.obj
 0001:0000e630       ??$__crt_interlocked_read_pointer@$$CBD@@YAPEBDPEDSEBD@Z 000000018000f630 f i libvcruntime:std_type_info.obj
 0001:0000e638       ??0?$__crt_unique_heap_ptr@DU__crt_internal_free_policy@@@@QEAA@QEAD@Z 000000018000f638 f i libvcruntime:std_type_info.obj
 0001:0000e640       ??0?$__crt_unique_heap_ptr@XU__crt_internal_free_policy@@@@QEAA@QEAX@Z 000000018000f640 f i libvcruntime:std_type_info.obj
 0001:0000e648       ??1?$__crt_unique_heap_ptr@DU__crt_internal_free_policy@@@@QEAA@XZ 000000018000f648 f i libvcruntime:std_type_info.obj
 0001:0000e66c       ??1?$__crt_unique_heap_ptr@XU__crt_internal_free_policy@@@@QEAA@XZ 000000018000f66c f i libvcruntime:std_type_info.obj
 0001:0000e690       ??B?$__crt_unique_heap_ptr@DU__crt_internal_free_policy@@@@QEBA_NXZ 000000018000f690 f i libvcruntime:std_type_info.obj
 0001:0000e69c       ??B?$__crt_unique_heap_ptr@XU__crt_internal_free_policy@@@@QEBA_NXZ 000000018000f69c f i libvcruntime:std_type_info.obj
 0001:0000e6c0       ?__crt_interlocked_read_64@@YA_JPED_J@Z 000000018000f6c0 f i libvcruntime:std_type_info.obj
 0001:0000e6c8       ?detach@?$__crt_unique_heap_ptr@XU__crt_internal_free_policy@@@@QEAAPEAXXZ 000000018000f6c8 f i libvcruntime:std_type_info.obj
 0001:0000e6d4       ?get@?$__crt_unique_heap_ptr@DU__crt_internal_free_policy@@@@QEBAPEADXZ 000000018000f6d4 f i libvcruntime:std_type_info.obj
 0001:0000e6d8       ?get@?$__crt_unique_heap_ptr@XU__crt_internal_free_policy@@@@QEBAPEAXXZ 000000018000f6d8 f i libvcruntime:std_type_info.obj
 0001:0000e6dc       ?is_valid@?$__crt_unique_heap_ptr@DU__crt_internal_free_policy@@@@QEBA_NXZ 000000018000f6dc f i libvcruntime:std_type_info.obj
 0001:0000e6e8       ?is_valid@?$__crt_unique_heap_ptr@XU__crt_internal_free_policy@@@@QEBA_NXZ 000000018000f6e8 f i libvcruntime:std_type_info.obj
 0001:0000e6f4       ?release@?$__crt_unique_heap_ptr@DU__crt_internal_free_policy@@@@QEAAXXZ 000000018000f6f4 f i libvcruntime:std_type_info.obj
 0001:0000e718       ?release@?$__crt_unique_heap_ptr@XU__crt_internal_free_policy@@@@QEAAXXZ 000000018000f718 f i libvcruntime:std_type_info.obj
 0001:0000e73c       __std_type_info_compare    000000018000f73c f   libvcruntime:std_type_info.obj
 0001:0000e76c       __std_type_info_destroy_list 000000018000f76c f   libvcruntime:std_type_info.obj
 0001:0000e7a0       __std_type_info_hash       000000018000f7a0 f   libvcruntime:std_type_info.obj
 0001:0000e7e8       __std_type_info_name       000000018000f7e8 f   libvcruntime:std_type_info.obj
 0001:0000e944       __vcrt_initialize          000000018000f944 f   libvcruntime:initialization.obj
 0001:0000e978       __vcrt_thread_attach       000000018000f978 f   libvcruntime:initialization.obj
 0001:0000e994       __vcrt_thread_detach       000000018000f994 f   libvcruntime:initialization.obj
 0001:0000e9a8       __vcrt_uninitialize        000000018000f9a8 f   libvcruntime:initialization.obj
 0001:0000e9c8       __vcrt_uninitialize_critical 000000018000f9c8 f   libvcruntime:initialization.obj
 0001:0000e9e0       __DestructExceptionObject  000000018000f9e0 f   libvcruntime:ehhelpers.obj
 0001:0000ea68       ?_CallMemberFunction0@@YAXQEAX0@Z 000000018000fa68 f i libvcruntime:ehhelpers.obj
 0001:0000eadc       ?raw_name@type_info@@QEBAPEBDXZ 000000018000fadc f i libvcruntime:ehhelpers.obj
 0001:0000eae4       _IsExceptionObjectToBeDestroyed 000000018000fae4 f   libvcruntime:ehhelpers.obj
 0001:0000eb20       _SetWinRTOutOfMemoryExceptionCallback 000000018000fb20 f   libvcruntime:ehhelpers.obj
 0001:0000eb2c       __AdjustPointer            000000018000fb2c f   libvcruntime:ehhelpers.obj
 0001:0000eb58       __FrameUnwindFilter        000000018000fb58 f   libvcruntime:ehhelpers.obj
 0001:0000ebd8       __GetPlatformExceptionInfo 000000018000fbd8 f   libvcruntime:ehhelpers.obj
 0001:0000ec4c       __current_exception        000000018000fc4c f   libvcruntime:ehhelpers.obj
 0001:0000ec64       __current_exception_context 000000018000fc64 f   libvcruntime:ehhelpers.obj
 0001:0000ec7c       __processing_throw         000000018000fc7c f   libvcruntime:ehhelpers.obj
 0001:0000ec94       __std_terminate            000000018000fc94 f   libvcruntime:ehhelpers.obj
 0001:0000eca0       _is_exception_typeof       000000018000fca0 f   libvcruntime:ehhelpers.obj
 0001:0000edb0       _NLG_Notify                000000018000fdb0 f   libvcruntime:notify.obj
 0001:0000ede0       __NLG_Dispatch2            000000018000fde0 f   libvcruntime:notify.obj
 0001:0000edf0       __NLG_Return2              000000018000fdf0 f   libvcruntime:notify.obj
 0001:0000edfc       __except_validate_context_record 000000018000fdfc f   libvcruntime:jbcxrval.obj
 0001:0000ee40       __except_validate_jump_buffer 000000018000fe40 f   libvcruntime:jbcxrval.obj
 0001:0000ee90       __except_validate_jump_buffer_common 000000018000fe90 f i libvcruntime:jbcxrval.obj
 0001:0000ef04       ??$?0$00@DName@@QEAA@PEBDU?$StringLifeSelector@$00@@@Z 000000018000ff04 f i libvcruntime:undname.obj
 0001:0000ef54       ??$?0$00@pcharNode@@QEAA@PEBDHU?$StringLifeSelector@$00@@@Z 000000018000ff54 f i libvcruntime:undname.obj
 0001:0000ef70       ??$?0$01@DName@@QEAA@PEBDU?$StringLifeSelector@$01@@@Z 000000018000ff70 f i libvcruntime:undname.obj
 0001:0000efc0       ??$?0$01@pcharNode@@QEAA@PEBDHU?$StringLifeSelector@$01@@@Z 000000018000ffc0 f i libvcruntime:undname.obj
 0001:0000f050       ??$?0$0A@@DName@@QEAA@PEBDU?$StringLifeSelector@$0A@@@@Z 0000000180010050 f i libvcruntime:undname.obj
 0001:0000f0a0       ??$?0$0A@@pcharNode@@QEAA@PEBDHU?$StringLifeSelector@$0A@@@@Z 00000001800100a0 f i libvcruntime:undname.obj
 0001:0000f130       ??$?0_K$0A@@?$optional@_K@std@@QEAA@$$QEA_K@Z 0000000180010130 f i libvcruntime:undname.obj
 0001:0000f144       ??$?0_K@?$_Optional_construct_base@_K@std@@QEAA@Uin_place_t@1@$$QEA_K@Z 0000000180010144 f i libvcruntime:undname.obj
 0001:0000f158       ??$?0_K@?$_Optional_destruct_base@_K$00@std@@QEAA@Uin_place_t@1@$$QEA_K@Z 0000000180010158 f i libvcruntime:undname.obj
 0001:0000f16c       ??$append@VDNameNode@@@DName@@AEAAXPEBVDNameNode@@@Z 000000018001016c f i libvcruntime:undname.obj
 0001:0000f1e8       ??$append@VDNameStatusNode@@@DName@@AEAAXPEBVDNameStatusNode@@@Z 00000001800101e8 f i libvcruntime:undname.obj
 0001:0000f264       ??$append@VcharNode@@@DName@@AEAAXPEBVcharNode@@@Z 0000000180010264 f i libvcruntime:undname.obj
 0001:0000f2e0       ??$append@VpDNameNode@@@DName@@AEAAXPEBVpDNameNode@@@Z 00000001800102e0 f i libvcruntime:undname.obj
 0001:0000f35c       ??$append@VpcharNode@@@DName@@AEAAXPEBVpcharNode@@@Z 000000018001035c f i libvcruntime:undname.obj
 0001:0000f3d8       ??$doPchar@$00@DName@@AEAAXPEBDH@Z 00000001800103d8 f i libvcruntime:undname.obj
 0001:0000f4a4       ??$doPchar@$01@DName@@AEAAXPEBDH@Z 00000001800104a4 f i libvcruntime:undname.obj
 0001:0000f560       ??$doPchar@$0A@@DName@@AEAAXPEBDH@Z 0000000180010560 f i libvcruntime:undname.obj
 0001:0000f61c       ??$forward@_K@std@@YA$$QEA_KAEA_K@Z 000000018001061c f i libvcruntime:undname.obj
 0001:0000f780       ??$size@D$04@std@@YA_KAEAY04$$CBD@Z 0000000180010780 f i libvcruntime:undname.obj
 0001:0000f788       ??0?$_Optional_construct_base@_K@std@@QEAA@XZ 0000000180010788 f i libvcruntime:undname.obj
 0001:0000f794       ??0?$_Optional_destruct_base@_K$00@std@@QEAA@XZ 0000000180010794 f i libvcruntime:undname.obj
 0001:0000f7a0       ??0?$optional@_K@std@@QEAA@XZ 00000001800107a0 f i libvcruntime:undname.obj
 0001:0000f7ac       ??0Block@_HeapManager@@QEAA@XZ 00000001800107ac f i libvcruntime:undname.obj
 0001:0000f7b8       ??0DName@@QEAA@AEAPEBDD@Z  00000001800107b8 f   libvcruntime:undname.obj
 0001:0000f894       ??0DName@@QEAA@AEBUStringLiteral@@@Z 0000000180010894 f   libvcruntime:undname.obj
 0001:0000f8cc       ??0DName@@QEAA@AEBV0@@Z    00000001800108cc f i libvcruntime:undname.obj
 0001:0000f8e0       ??0DName@@QEAA@D@Z         00000001800108e0 f   libvcruntime:undname.obj
 0001:0000f908       ??0DName@@QEAA@PEAV0@@Z    0000000180010908 f   libvcruntime:undname.obj
 0001:0000f9ac       ??0DName@@QEAA@W4DNameStatus@@@Z 00000001800109ac f   libvcruntime:undname.obj
 0001:0000f9e8       ??0DName@@QEAA@XZ          00000001800109e8 f i libvcruntime:undname.obj
 0001:0000f9f8       ??0DName@@QEAA@_J@Z        00000001800109f8 f   libvcruntime:undname.obj
 0001:0000fac8       ??0DName@@QEAA@_K@Z        0000000180010ac8 f   libvcruntime:undname.obj
 0001:0000fb74       ??0DNameNode@@IEAA@XZ      0000000180010b74 f i libvcruntime:undname.obj
 0001:0000fb88       ??0Replicator@@QEAA@XZ     0000000180010b88 f i libvcruntime:undname.obj
 0001:0000fbc4       ??0UnDecorator@@QEAA@PEBDP6APEADJ@ZK@Z 0000000180010bc4 f i libvcruntime:undname.obj
 0001:0000fc98       ??0_Nontrivial_dummy_type@std@@QEAA@XZ 0000000180010c98 f i libvcruntime:undname.obj
 0001:0000fc9c       ??0charNode@@QEAA@D@Z      0000000180010c9c f i libvcruntime:undname.obj
 0001:0000fcb4       ??0pDNameNode@@QEAA@PEAVDName@@@Z 0000000180010cb4 f   libvcruntime:undname.obj
 0001:0000fce4       ??0pairNode@@QEAA@PEBVDNameNode@@0@Z 0000000180010ce4 f i libvcruntime:undname.obj
 0001:0000fd0c       ??2@YAPEAX_KAEAV_HeapManager@@H@Z 0000000180010d0c f   libvcruntime:undname.obj
 0001:0000fd40       ??4DName@@QEAAAEAV0@AEBUStringLiteral@@@Z 0000000180010d40 f   libvcruntime:undname.obj
 0001:0000fd70       ??4DName@@QEAAAEAV0@AEBV0@@Z 0000000180010d70 f   libvcruntime:undname.obj
 0001:0000fd84       ??4DName@@QEAAAEAV0@D@Z    0000000180010d84 f i libvcruntime:undname.obj
 0001:0000fdac       ??4DName@@QEAAAEAV0@PEAV0@@Z 0000000180010dac f   libvcruntime:undname.obj
 0001:0000fe40       ??4DName@@QEAAAEAV0@W4DNameStatus@@@Z 0000000180010e40 f   libvcruntime:undname.obj
 0001:0000fe7c       ??AReplicator@@QEBA?AVDName@@H@Z 0000000180010e7c f   libvcruntime:undname.obj
 0001:0000fecc       ??B?$optional@_K@std@@QEBA_NXZ 0000000180010ecc f i libvcruntime:undname.obj
 0001:0000fed0       ??D?$_Optional_construct_base@_K@std@@QEGAAAEA_KXZ 0000000180010ed0 f i libvcruntime:undname.obj
 0001:0000fed4       ??H@YA?AVDName@@AEBUStringLiteral@@AEBV0@@Z 0000000180010ed4 f i libvcruntime:undname.obj
 0001:0000ff18       ??H@YA?AVDName@@DAEBV0@@Z  0000000180010f18 f i libvcruntime:undname.obj
 0001:0000ff6c       ??H@YA?AVDName@@W4DNameStatus@@AEBV0@@Z 0000000180010f6c f i libvcruntime:undname.obj
 0001:0000ffb0       ??HDName@@QEBA?AV0@AEBUStringLiteral@@@Z 0000000180010fb0 f   libvcruntime:undname.obj
 0001:0000ffe4       ??HDName@@QEBA?AV0@AEBV0@@Z 0000000180010fe4 f   libvcruntime:undname.obj
 0001:00010018       ??HDName@@QEBA?AV0@D@Z     0000000180011018 f   libvcruntime:undname.obj
 0001:0001004c       ??HDName@@QEBA?AV0@PEAV0@@Z 000000018001104c f   libvcruntime:undname.obj
 0001:00010080       ??HDName@@QEBA?AV0@W4DNameStatus@@@Z 0000000180011080 f   libvcruntime:undname.obj
 0001:000100b4       ??HStringLiteral@@QEBA?AU0@H@Z 00000001800110b4 f i libvcruntime:undname.obj
 0001:000100d0       ??YDName@@QEAAAEAV0@AEBUStringLiteral@@@Z 00000001800110d0 f   libvcruntime:undname.obj
 0001:00010170       ??YDName@@QEAAAEAV0@AEBV0@@Z 0000000180011170 f   libvcruntime:undname.obj
 0001:000101e0       ??YDName@@QEAAAEAV0@D@Z    00000001800111e0 f   libvcruntime:undname.obj
 0001:00010268       ??YDName@@QEAAAEAV0@PEAV0@@Z 0000000180011268 f   libvcruntime:undname.obj
 0001:00010320       ??YDName@@QEAAAEAV0@W4DNameStatus@@@Z 0000000180011320 f   libvcruntime:undname.obj
 0001:0001038c       ??YReplicator@@QEAAAEAV0@AEBVDName@@@Z 000000018001138c f   libvcruntime:undname.obj
 0001:000103fc       ??_5DName@@QEAAAEAV0@AEBV0@@Z 00000001800113fc f   libvcruntime:undname.obj
 0001:0001041c       ??__K_l@@YA?AUStringLiteral@@PEBD_K@Z 000000018001141c f i libvcruntime:undname.obj
 0001:0001042c       ?Constructor@_HeapManager@@QEAAXP6APEAX_K@ZP6AXPEAX@Z@Z 000000018001142c f i libvcruntime:undname.obj
 0001:00010448       ?Destructor@_HeapManager@@QEAAXXZ 0000000180011448 f i libvcruntime:undname.obj
 0001:000104a4       ?UScore@UnDecorator@@SA?AUStringLiteral@@W4Tokens@@@Z 00000001800114a4 f   libvcruntime:undname.obj
 0001:00010504       ?composeDeclaration@UnDecorator@@CA?AVDName@@AEBV2@@Z 0000000180011504 f i libvcruntime:undname.obj
 0001:000118b8       ?doAccessSpecifiers@UnDecorator@@SAHXZ 00000001800128b8 f i libvcruntime:undname.obj
 0001:000118cc       ?doAllocationLanguage@UnDecorator@@SAHXZ 00000001800128cc f i libvcruntime:undname.obj
 0001:000118e0       ?doAllocationModel@UnDecorator@@SAHXZ 00000001800128e0 f i libvcruntime:undname.obj
 0001:000118f4       ?doEcsu@UnDecorator@@SAHXZ 00000001800128f4 f i libvcruntime:undname.obj
 0001:00011908       ?doEllipsis@UnDecorator@@SAHXZ 0000000180012908 f i libvcruntime:undname.obj
 0001:0001191c       ?doFunctionReturns@UnDecorator@@SAHXZ 000000018001291c f i libvcruntime:undname.obj
 0001:00011930       ?doMSKeywords@UnDecorator@@SAHXZ 0000000180012930 f i libvcruntime:undname.obj
 0001:00011944       ?doMemberTypes@UnDecorator@@SAHXZ 0000000180012944 f i libvcruntime:undname.obj
 0001:00011958       ?doNameOnly@UnDecorator@@SAHXZ 0000000180012958 f i libvcruntime:undname.obj
 0001:00011968       ?doNoIdentCharCheck@UnDecorator@@SAHXZ 0000000180012968 f i libvcruntime:undname.obj
 0001:00011978       ?doPchar@DName@@AEAAXD@Z   0000000180012978 f   libvcruntime:undname.obj
 0001:000119dc       ?doPtr64@UnDecorator@@SAHXZ 00000001800129dc f i libvcruntime:undname.obj
 0001:000119f0       ?doRestrictionSpec@UnDecorator@@SAHXZ 00000001800129f0 f i libvcruntime:undname.obj
 0001:00011a04       ?doThisTypes@UnDecorator@@SAHXZ 0000000180012a04 f i libvcruntime:undname.obj
 0001:00011a1c       ?doThrowTypes@UnDecorator@@SAHXZ 0000000180012a1c f i libvcruntime:undname.obj
 0001:00011a30       ?doTypeOnly@UnDecorator@@SAHXZ 0000000180012a30 f i libvcruntime:undname.obj
 0001:00011a40       ?doUnderScore@UnDecorator@@SAHXZ 0000000180012a40 f i libvcruntime:undname.obj
 0001:00011a50       ?getAddressOf@UnDecorator@@CA?AVDName@@XZ 0000000180012a50 f   libvcruntime:undname.obj
 0001:00011b04       ?getArgumentList@UnDecorator@@CA?AVDName@@XZ 0000000180012b04 f   libvcruntime:undname.obj
 0001:00011ce8       ?getArgumentTypes@UnDecorator@@CA?AVDName@@XZ 0000000180012ce8 f   libvcruntime:undname.obj
 0001:00011e88       ?getArrayAccess@UnDecorator@@CA?AVDName@@XZ 0000000180012e88 f   libvcruntime:undname.obj
 0001:00011f48       ?getArrayObject@UnDecorator@@CA?AVDName@@XZ 0000000180012f48 f   libvcruntime:undname.obj
 0001:0001204c       ?getArrayType@UnDecorator@@CA?AVDName@@AEBV2@@Z 000000018001304c f i libvcruntime:undname.obj
 0001:00012340       ?getBasedType@UnDecorator@@CA?AVDName@@XZ 0000000180013340 f   libvcruntime:undname.obj
 0001:00012474       ?getBasicDataType@UnDecorator@@CA?AVDName@@AEBV2@@Z 0000000180013474 f   libvcruntime:undname.obj
 0001:00012bf8       ?getCHPEName@UnDecorator@@QEAAPEADPEADH@Z 0000000180013bf8 f i libvcruntime:undname.obj
 0001:00012d5c       ?getCallIndex@UnDecorator@@CA?AVDName@@XZ 0000000180013d5c f i libvcruntime:undname.obj
 0001:00012d7c       ?getCallingConvention@UnDecorator@@CA?AVDName@@XZ 0000000180013d7c f   libvcruntime:undname.obj
 0001:00012ee4       ?getDataIndirectType@UnDecorator@@CA?AVDName@@AEBV2@W4IndirectionKind@@0H@Z 0000000180013ee4 f   libvcruntime:undname.obj
 0001:00013a7c       ?getDataIndirectType@UnDecorator@@CA?AVDName@@XZ 0000000180014a7c f i libvcruntime:undname.obj
 0001:00013ac4       ?getDataType@UnDecorator@@CA?AVDName@@PEAV2@@Z 0000000180014ac4 f   libvcruntime:undname.obj
 0001:00013c1c       ?getDecoratedName@UnDecorator@@CA?AVDName@@XZ 0000000180014c1c f   libvcruntime:undname.obj
 0001:00013fbc       ?getDimension@UnDecorator@@CA?AVDName@@_N@Z 0000000180014fbc f   libvcruntime:undname.obj
 0001:00014158       ?getDispatchTarget@UnDecorator@@CA?AVDName@@XZ 0000000180015158 f   libvcruntime:undname.obj
 0001:000141cc       ?getDisplacement@UnDecorator@@CA?AVDName@@XZ 00000001800151cc f i libvcruntime:undname.obj
 0001:000141ec       ?getECSUDataType@UnDecorator@@CA?AVDName@@XZ 00000001800151ec f   libvcruntime:undname.obj
 0001:00014464       ?getECSUName@UnDecorator@@CA?AVDName@@XZ 0000000180015464 f i libvcruntime:undname.obj
 0001:00014480       ?getEnumType@UnDecorator@@CA?AVDName@@XZ 0000000180015480 f i libvcruntime:undname.obj
 0001:000145f0       ?getExtendedDataIndirectType@UnDecorator@@CA?AVDName@@AEAW4IndirectionKind@@AEA_NH@Z 00000001800155f0 f   libvcruntime:undname.obj
 0001:000148f4       ?getExternalDataType@UnDecorator@@CA?AVDName@@AEBV2@@Z 00000001800158f4 f i libvcruntime:undname.obj
 0001:000149e4       ?getFloatingPoint@UnDecorator@@CA?AVDName@@H@Z 00000001800159e4 f   libvcruntime:undname.obj
 0001:00014ba4       ?getFunctionIndirectType@UnDecorator@@CA?AVDName@@AEBV2@@Z 0000000180015ba4 f   libvcruntime:undname.obj
 0001:00015228       ?getGuardNumber@UnDecorator@@CA?AVDName@@XZ 0000000180016228 f i libvcruntime:undname.obj
 0001:00015248       ?getLastChar@DName@@QEBADXZ 0000000180016248 f i libvcruntime:undname.obj
 0001:00015268       ?getLastChar@DNameStatusNode@@UEBADXZ 0000000180016268 f i libvcruntime:undname.obj
 0001:00015278       ?getLastChar@charNode@@UEBADXZ 0000000180016278 f i libvcruntime:undname.obj
 0001:0001527c       ?getLastChar@pDNameNode@@UEBADXZ 000000018001627c f i libvcruntime:undname.obj
 0001:000152b0       ?getLastChar@pairNode@@UEBADXZ 00000001800162b0 f i libvcruntime:undname.obj
 0001:000152f4       ?getLastChar@pcharNode@@UEBADXZ 00000001800162f4 f i libvcruntime:undname.obj
 0001:00015310       ?getLexicalFrame@UnDecorator@@CA?AVDName@@XZ 0000000180016310 f i libvcruntime:undname.obj
 0001:0001538c       ?getMemberAccess@UnDecorator@@CA?AVDName@@XZ 000000018001638c f   libvcruntime:undname.obj
 0001:00015444       ?getMemoryWithBuffer@_HeapManager@@QEAAPEAX_K@Z 0000000180016444 f   libvcruntime:undname.obj
 0001:000154f8       ?getMemoryWithoutBuffer@_HeapManager@@QEAAPEAX_K@Z 00000001800164f8 f   libvcruntime:undname.obj
 0001:00015510       ?getNoexcept@UnDecorator@@CA?AVDName@@XZ 0000000180016510 f   libvcruntime:undname.obj
 0001:0001558c       ?getNumberOfDimensions@UnDecorator@@CAHXZ 000000018001658c f   libvcruntime:undname.obj
 0001:000155fc       ?getOperatorName@UnDecorator@@CA?AVDName@@_NPEA_N@Z 00000001800165fc f i libvcruntime:undname.obj
 0001:00016200       ?getPointerToMember@UnDecorator@@CA?AVDName@@XZ 0000000180017200 f   libvcruntime:undname.obj
 0001:00016334       ?getPointerType@UnDecorator@@CA?AVDName@@AEBV2@0@Z 0000000180017334 f i libvcruntime:undname.obj
 0001:00016358       ?getPointerTypeArray@UnDecorator@@CA?AVDName@@AEBV2@0@Z 0000000180017358 f i libvcruntime:undname.obj
 0001:00016378       ?getPrimaryDataType@UnDecorator@@CA?AVDName@@AEBV2@@Z 0000000180017378 f   libvcruntime:undname.obj
 0001:000166e0       ?getPtrRefDataType@UnDecorator@@CA?AVDName@@AEBV2@H@Z 00000001800176e0 f   libvcruntime:undname.obj
 0001:00016920       ?getPtrRefType@UnDecorator@@CA?AVDName@@AEBV2@0W4IndirectionKind@@@Z 0000000180017920 f   libvcruntime:undname.obj
 0001:00016b80       ?getReferenceType@UnDecorator@@CA?AVDName@@AEBV2@0W4IndirectionKind@@@Z 0000000180017b80 f i libvcruntime:undname.obj
 0001:00016b9c       ?getRestrictionSpec@UnDecorator@@CA?AVDName@@XZ 0000000180017b9c f   libvcruntime:undname.obj
 0001:00016dec       ?getReturnType@UnDecorator@@CA?AVDName@@PEAV2@@Z 0000000180017dec f   libvcruntime:undname.obj
 0001:00016e30       ?getScope@UnDecorator@@CA?AVDName@@XZ 0000000180017e30 f   libvcruntime:undname.obj
 0001:00017414       ?getScopedName@UnDecorator@@CA?AVDName@@XZ 0000000180018414 f   libvcruntime:undname.obj
 0001:000175a8       ?getSignedDimension@UnDecorator@@CA?AVDName@@XZ 00000001800185a8 f   libvcruntime:undname.obj
 0001:00017650       ?getStorageConvention@UnDecorator@@CA?AVDName@@XZ 0000000180018650 f i libvcruntime:undname.obj
 0001:00017698       ?getString@DName@@QEBAPEADPEAD0@Z 0000000180018698 f i libvcruntime:undname.obj
 0001:000176b8       ?getString@DName@@QEBAPEADPEADH@Z 00000001800186b8 f i libvcruntime:undname.obj
 0001:00017770       ?getString@DNameStatusNode@@UEBAPEADPEAD0@Z 0000000180018770 f i libvcruntime:undname.obj
 0001:000177c8       ?getString@charNode@@UEBAPEADPEAD0@Z 00000001800187c8 f i libvcruntime:undname.obj
 0001:000177e0       ?getString@pDNameNode@@UEBAPEADPEAD0@Z 00000001800187e0 f i libvcruntime:undname.obj
 0001:00017818       ?getString@pairNode@@UEBAPEADPEAD0@Z 0000000180018818 f i libvcruntime:undname.obj
 0001:00017878       ?getString@pcharNode@@UEBAPEADPEAD0@Z 0000000180018878 f i libvcruntime:undname.obj
 0001:000178bc       ?getStringEncoding@UnDecorator@@CA?AVDName@@W4PrefixKind@@H@Z 00000001800188bc f   libvcruntime:undname.obj
 0001:00017a0c       ?getStringHelper@@YAPEADPEADPEBD1H@Z 0000000180018a0c f i libvcruntime:undname.obj
 0001:00017a44       ?getStringObject@UnDecorator@@CA?AVDName@@XZ 0000000180018a44 f   libvcruntime:undname.obj
 0001:00017af8       ?getSymbolName@UnDecorator@@CA?AVDName@@XZ 0000000180018af8 f i libvcruntime:undname.obj
 0001:00017b58       ?getTemplateArgumentList@UnDecorator@@CA?AVDName@@XZ 0000000180018b58 f   libvcruntime:undname.obj
 0001:00017dfc       ?getTemplateName@UnDecorator@@CA?AVDName@@_N@Z 0000000180018dfc f   libvcruntime:undname.obj
 0001:00018154       ?getTemplateNonTypeArgument@UnDecorator@@CA?AVDName@@XZ 0000000180019154 f   libvcruntime:undname.obj
 0001:000187f8       ?getTemplateTypeArgument@UnDecorator@@CA?AVDName@@XZ 00000001800197f8 f   libvcruntime:undname.obj
 0001:000189bc       ?getThisType@UnDecorator@@CA?AVDName@@XZ 00000001800199bc f i libvcruntime:undname.obj
 0001:00018a0c       ?getThrowTypes@UnDecorator@@CA?AVDName@@XZ 0000000180019a0c f   libvcruntime:undname.obj
 0001:00018a38       ?getTypeEncoding@UnDecorator@@CAHXZ 0000000180019a38 f i libvcruntime:undname.obj
 0001:00018ee4       ?getUndecoratedName@UnDecorator@@QEAAPEADPEADH@Z 0000000180019ee4 f i libvcruntime:undname.obj
 0001:0001908c       ?getUnionObject@UnDecorator@@CA?AVDName@@XZ 000000018001a08c f   libvcruntime:undname.obj
 0001:00019198       ?getVCallThunkType@UnDecorator@@CA?AVDName@@XZ 000000018001a198 f i libvcruntime:undname.obj
 0001:0001922c       ?getValue@UnDecorator@@CA?AV?$optional@_K@std@@XZ 000000018001a22c f   libvcruntime:undname.obj
 0001:00019280       ?getValueObject@UnDecorator@@CA?AVDName@@XZ 000000018001a280 f   libvcruntime:undname.obj
 0001:00019464       ?getVbTableType@UnDecorator@@CA?AVDName@@AEBV2@@Z 000000018001a464 f i libvcruntime:undname.obj
 0001:00019480       ?getVdispMapType@UnDecorator@@CA?AVDName@@AEBV2@@Z 000000018001a480 f i libvcruntime:undname.obj
 0001:0001951c       ?getVfTableType@UnDecorator@@CA?AVDName@@AEBV2@@Z 000000018001a51c f i libvcruntime:undname.obj
 0001:000197a8       ?getZName@UnDecorator@@CA?AVDName@@_N0@Z 000000018001a7a8 f   libvcruntime:undname.obj
 0001:00019b34       ?get_current_character_and_increment_buffer@UnDecorator@@CADXZ 000000018001ab34 f i libvcruntime:undname.obj
 0001:00019b54       ?haveTemplateParameters@UnDecorator@@SAHXZ 000000018001ab54 f i libvcruntime:undname.obj
 0001:00019b64       ?increment_buffer@UnDecorator@@CA_N_K@Z 000000018001ab64 f i libvcruntime:undname.obj
 0001:00019b9c       ?increment_buffer_no_check@UnDecorator@@CAXXZ 000000018001ab9c f i libvcruntime:undname.obj
 0001:00019ba8       ?increment_buffer_no_check@UnDecorator@@CAX_K@Z 000000018001aba8 f i libvcruntime:undname.obj
 0001:00019bb4       ?isArray@DName@@QEBAHXZ    000000018001abb4 f i libvcruntime:undname.obj
 0001:00019bc0       ?isComArray@DName@@QEBAHXZ 000000018001abc0 f i libvcruntime:undname.obj
 0001:00019bcc       ?isEmpty@DName@@QEBAHXZ    000000018001abcc f i libvcruntime:undname.obj
 0001:00019bd8       ?isFull@Replicator@@QEBAHXZ 000000018001abd8 f i libvcruntime:undname.obj
 0001:00019be4       ?isNoTE@DName@@QEBAHXZ     000000018001abe4 f i libvcruntime:undname.obj
 0001:00019bf0       ?isPinPtr@DName@@QEBAHXZ   000000018001abf0 f i libvcruntime:undname.obj
 0001:00019bfc       ?isPtrRef@DName@@QEBAHXZ   000000018001abfc f i libvcruntime:undname.obj
 0001:00019c08       ?isUDC@DName@@QEBAHXZ      000000018001ac08 f i libvcruntime:undname.obj
 0001:00019c24       ?isUDTThunk@DName@@QEBAHXZ 000000018001ac24 f i libvcruntime:undname.obj
 0001:00019c40       ?isVCallThunk@DName@@QEBAHXZ 000000018001ac40 f i libvcruntime:undname.obj
 0001:00019c4c       ?isValid@DName@@QEBAHXZ    000000018001ac4c f i libvcruntime:undname.obj
 0001:00019c58       ?length@DName@@QEBAHXZ     000000018001ac58 f i libvcruntime:undname.obj
 0001:00019c78       ?length@DNameStatusNode@@UEBAHXZ 000000018001ac78 f i libvcruntime:undname.obj
 0001:00019c7c       ?length@charNode@@UEBAHXZ  000000018001ac7c f i libvcruntime:undname.obj
 0001:00019c84       ?length@pDNameNode@@UEBAHXZ 000000018001ac84 f i libvcruntime:undname.obj
 0001:00019cb8       ?length@pairNode@@UEBAHXZ  000000018001acb8 f i libvcruntime:undname.obj
 0001:00019d10       ?length@pcharNode@@UEBAHXZ 000000018001ad10 f i libvcruntime:undname.obj
 0001:00019d14       ?make@DNameStatusNode@@SAPEBV1@W4DNameStatus@@@Z 000000018001ad14 f i libvcruntime:undname.obj
 0001:00019d3c       ?parseDecoratedName@UnDecorator@@CA?AVDName@@XZ 000000018001ad3c f   libvcruntime:undname.obj
 0001:00019e98       ?raw_length@DNameStatusNode@@UEBAHXZ 000000018001ae98 f i libvcruntime:undname.obj
 0001:00019e9c       ?raw_length@charNode@@UEBAHXZ 000000018001ae9c f i libvcruntime:undname.obj
 0001:00019ea4       ?raw_length@pDNameNode@@UEBAHXZ 000000018001aea4 f i libvcruntime:undname.obj
 0001:00019ea8       ?raw_length@pairNode@@UEBAHXZ 000000018001aea8 f i libvcruntime:undname.obj
 0001:00019eac       ?raw_length@pcharNode@@UEBAHXZ 000000018001aeac f i libvcruntime:undname.obj
 0001:00019eb0       ?setIsArray@DName@@QEAAXXZ 000000018001aeb0 f i libvcruntime:undname.obj
 0001:00019eb8       ?setIsComArray@DName@@QEAAXXZ 000000018001aeb8 f i libvcruntime:undname.obj
 0001:00019ec0       ?setIsNoTE@DName@@QEAAXXZ  000000018001aec0 f i libvcruntime:undname.obj
 0001:00019ec8       ?setIsPinPtr@DName@@QEAAXXZ 000000018001aec8 f i libvcruntime:undname.obj
 0001:00019ed0       ?setIsUDC@DName@@QEAAXXZ   000000018001aed0 f i libvcruntime:undname.obj
 0001:00019ee0       ?setIsVCallThunk@DName@@QEAAXXZ 000000018001aee0 f i libvcruntime:undname.obj
 0001:00019ee8       ?setPtrRef@DName@@QEAAAEAV1@XZ 000000018001aee8 f i libvcruntime:undname.obj
 0001:00019ef4       ?status@DName@@QEBA?AW4DNameStatus@@XZ 000000018001aef4 f i libvcruntime:undname.obj
 0001:00019f6c       __unDName                  000000018001af6c f   libvcruntime:undname.obj
 0001:00019f9c       __unDNameEx                000000018001af9c f   libvcruntime:undname.obj
 0001:0001a0c4       _vsprintf_s_l              000000018001b0c4 f i libvcruntime:undname.obj
 0001:0001a140       snprintf                   000000018001b140 f i libvcruntime:undname.obj
 0001:0001a1ac       sprintf_s                  000000018001b1ac f i libvcruntime:undname.obj
 0001:0001a214       unDNameGenerateCHPE        000000018001b214 f   libvcruntime:undname.obj
 0001:0001a3b0       vsnprintf                  000000018001b3b0 f i libvcruntime:undname.obj
 0001:0001a42c       ??$?RU__vcrt_ptd@@@__crt_internal_free_policy@@QEBAXQEBU__vcrt_ptd@@@Z 000000018001b42c f i libvcruntime:per_thread_data.obj
 0001:0001a438       ??0?$__crt_unique_heap_ptr@U__vcrt_ptd@@U__crt_internal_free_policy@@@@QEAA@QEAU__vcrt_ptd@@@Z 000000018001b438 f i libvcruntime:per_thread_data.obj
 0001:0001a460       ??1?$__crt_unique_heap_ptr@U__vcrt_ptd@@U__crt_internal_free_policy@@@@QEAA@XZ 000000018001b460 f i libvcruntime:per_thread_data.obj
 0001:0001a490       ??B?$__crt_unique_heap_ptr@U__vcrt_ptd@@U__crt_internal_free_policy@@@@QEBA_NXZ 000000018001b490 f i libvcruntime:per_thread_data.obj
 0001:0001a49c       ?detach@?$__crt_unique_heap_ptr@U__vcrt_ptd@@U__crt_internal_free_policy@@@@QEAAPEAU__vcrt_ptd@@XZ 000000018001b49c f i libvcruntime:per_thread_data.obj
 0001:0001a4a8       ?get@?$__crt_unique_heap_ptr@U__vcrt_ptd@@U__crt_internal_free_policy@@@@QEBAPEAU__vcrt_ptd@@XZ 000000018001b4a8 f i libvcruntime:per_thread_data.obj
 0001:0001a4ac       ?is_valid@?$__crt_unique_heap_ptr@U__vcrt_ptd@@U__crt_internal_free_policy@@@@QEBA_NXZ 000000018001b4ac f i libvcruntime:per_thread_data.obj
 0001:0001a4b8       ?release@?$__crt_unique_heap_ptr@U__vcrt_ptd@@U__crt_internal_free_policy@@@@QEAAXXZ 000000018001b4b8 f i libvcruntime:per_thread_data.obj
 0001:0001a510       __vcrt_freefls             000000018001b510 f   libvcruntime:per_thread_data.obj
 0001:0001a538       __vcrt_freeptd_for_this_thread 000000018001b538 f   libvcruntime:per_thread_data.obj
 0001:0001a590       __vcrt_getptd              000000018001b590 f   libvcruntime:per_thread_data.obj
 0001:0001a5b0       __vcrt_getptd_noexit       000000018001b5b0 f   libvcruntime:per_thread_data.obj
 0001:0001a6a0       __vcrt_getptd_noinit       000000018001b6a0 f   libvcruntime:per_thread_data.obj
 0001:0001a700       __vcrt_initialize_ptd      000000018001b700 f   libvcruntime:per_thread_data.obj
 0001:0001a758       __vcrt_uninitialize_ptd    000000018001b758 f   libvcruntime:per_thread_data.obj
 0001:0001a784       __vcrt_initialize_locks    000000018001b784 f   libvcruntime:locks.obj
 0001:0001a7dc       __vcrt_lock                000000018001b7dc f   libvcruntime:locks.obj
 0001:0001a7fc       __vcrt_uninitialize_locks  000000018001b7fc f   libvcruntime:locks.obj
 0001:0001a840       __vcrt_unlock              000000018001b840 f   libvcruntime:locks.obj
 0001:0001a860       ??$__crt_interlocked_exchange_pointer@$$A6AXXZP6AXXZ@@YAP6AXXZPEDS6AXXZQ6AXXZ@Z 000000018001b860 f i libvcruntime:purevirt.obj
 0001:0001a868       ??$__crt_interlocked_read_pointer@$$A6AXXZ@@YAP6AXXZPEDS6AXXZ@Z 000000018001b868 f i libvcruntime:purevirt.obj
 0001:0001a870       _get_purecall_handler      000000018001b870 f   libvcruntime:purevirt.obj
 0001:0001a87c       _purecall                  000000018001b87c f   libvcruntime:purevirt.obj
 0001:0001a89c       _set_purecall_handler      000000018001b89c f   libvcruntime:purevirt.obj
 0001:0001a8ac       ??$?0AEAViterator@TryBlockMap4@FH4@@AEAV012@$0A@@?$pair@Viterator@TryBlockMap4@FH4@@V123@@std@@QEAA@AEAViterator@TryBlockMap4@FH4@@0@Z 000000018001b8ac f i libvcruntime:risctrnsctrl.obj
 0001:0001a8c8       ??$?0AEAViterator@TryBlockMap@__FrameHandler3@@AEAV012@$0A@@?$pair@Viterator@TryBlockMap@__FrameHandler3@@V123@@std@@QEAA@AEAViterator@TryBlockMap@__FrameHandler3@@0@Z 000000018001b8c8 f i libvcruntime:risctrnsctrl.obj
 0001:0001aab0       ??$_CallSETranslator@V__FrameHandler3@@@@YAHPEAUEHExceptionRecord@@PEA_KPEAU_CONTEXT@@PEAU_xDISPATCHER_CONTEXT@@PEBU_s_FuncInfo@@K1H@Z 000000018001bab0 f i libvcruntime:risctrnsctrl.obj
 0001:0001ab18       ??$_CallSETranslator@V__FrameHandler4@@@@YAHPEAUEHExceptionRecord@@PEA_KPEAU_CONTEXT@@PEAU_xDISPATCHER_CONTEXT@@PEAUFuncInfo4@FH4@@K1H@Z 000000018001bb18 f i libvcruntime:risctrnsctrl.obj
 0001:0001ab80       ??$forward@AEAViterator@TryBlockMap4@FH4@@@std@@YAAEAViterator@TryBlockMap4@FH4@@AEAV123@@Z 000000018001bb80 f i libvcruntime:risctrnsctrl.obj
 0001:0001ab84       ??$forward@AEAViterator@TryBlockMap@__FrameHandler3@@@std@@YAAEAViterator@TryBlockMap@__FrameHandler3@@AEAV123@@Z 000000018001bb84 f i libvcruntime:risctrnsctrl.obj
 0001:0001ab88       ??0FuncInfo4@FH4@@QEAA@XZ  000000018001bb88 f i libvcruntime:risctrnsctrl.obj
 0001:0001aba0       ??0FuncInfoHeader@FH4@@QEAA@XZ 000000018001bba0 f i libvcruntime:risctrnsctrl.obj
 0001:0001aba8       ??0iterator@TryBlockMap4@FH4@@QEAA@AEAV12@I@Z 000000018001bba8 f i libvcruntime:risctrnsctrl.obj
 0001:0001abb8       ??0iterator@TryBlockMap@__FrameHandler3@@QEAA@AEAV12@I@Z 000000018001bbb8 f i libvcruntime:risctrnsctrl.obj
 0001:0001abc8       ??4iterator@TryBlockMap4@FH4@@QEAAAEAV012@AEBV012@@Z 000000018001bbc8 f i libvcruntime:risctrnsctrl.obj
 0001:0001abd4       ??9iterator@TryBlockMap4@FH4@@QEBA_NAEBV012@@Z 000000018001bbd4 f i libvcruntime:risctrnsctrl.obj
 0001:0001abe0       ??Diterator@TryBlockMap4@FH4@@QEAA?AUTryBlockMapEntry4@2@XZ 000000018001bbe0 f i libvcruntime:risctrnsctrl.obj
 0001:0001abf4       ??Eiterator@TryBlockMap4@FH4@@QEAAAEAV012@XZ 000000018001bbf4 f i libvcruntime:risctrnsctrl.obj
 0001:0001acb8       ?CatchTryBlock@__FrameHandler3@@SAPEBU_s_TryBlockMapEntry@@PEBU_s_FuncInfo@@H@Z 000000018001bcb8 f   libvcruntime:risctrnsctrl.obj
 0001:0001ad34       ?DecompFuncInfo@FH4@@YA_JPEAEAEAUFuncInfo4@1@_KH@Z 000000018001bd34 f i libvcruntime:risctrnsctrl.obj
 0001:0001ad4c       ?DecompFuncInfo@FH4@@YA_JPEAEAEAUFuncInfo4@1@_KH_N@Z 000000018001bd4c f i libvcruntime:risctrnsctrl.obj
 0001:0001aecc       ?DecompTryBlock@TryBlockMap4@FH4@@AEAAXXZ 000000018001becc f i libvcruntime:risctrnsctrl.obj
 0001:0001af84       ?ExecutionInCatch@__FrameHandler3@@SA_NPEAU_xDISPATCHER_CONTEXT@@PEBU_s_FuncInfo@@@Z 000000018001bf84 f   libvcruntime:risctrnsctrl.obj
 0001:0001afb8       ?ExecutionInCatch@__FrameHandler4@@SA_NPEAU_xDISPATCHER_CONTEXT@@PEAUFuncInfo4@FH4@@@Z 000000018001bfb8 f   libvcruntime:risctrnsctrl.obj
 0001:0001afc0       ?FrameUnwindToEmptyState@__FrameHandler3@@SAXPEA_KPEAU_xDISPATCHER_CONTEXT@@PEBU_s_FuncInfo@@@Z 000000018001bfc0 f   libvcruntime:risctrnsctrl.obj
 0001:0001b040       ?FrameUnwindToEmptyState@__FrameHandler4@@SAXPEA_KPEAU_xDISPATCHER_CONTEXT@@PEAUFuncInfo4@FH4@@@Z 000000018001c040 f   libvcruntime:risctrnsctrl.obj
 0001:0001b080       ?GetEstablisherFrame@__FrameHandler3@@SAPEA_KPEA_KPEAU_xDISPATCHER_CONTEXT@@PEBU_s_FuncInfo@@0@Z 000000018001c080 f   libvcruntime:risctrnsctrl.obj
 0001:0001b184       ?GetEstablisherFrame@__FrameHandler4@@SAPEA_KPEA_KPEAU_xDISPATCHER_CONTEXT@@PEAUFuncInfo4@FH4@@0@Z 000000018001c184 f   libvcruntime:risctrnsctrl.obj
 0001:0001b1b0       ?GetRangeOfTrysToCheck@__FrameHandler3@@SA?AU?$pair@Viterator@TryBlockMap@__FrameHandler3@@V123@@std@@AEAVTryBlockMap@1@HPEAU_xDISPATCHER_CONTEXT@@PEBU_s_FuncInfo@@H@Z 000000018001c1b0 f   libvcruntime:risctrnsctrl.obj
 0001:0001b330       ?GetRangeOfTrysToCheck@__FrameHandler4@@SA?AU?$pair@Viterator@TryBlockMap4@FH4@@V123@@std@@AEAVTryBlockMap4@FH4@@HPEAU_xDISPATCHER_CONTEXT@@PEAUFuncInfo4@5@H@Z 000000018001c330 f   libvcruntime:risctrnsctrl.obj
 0001:0001b4f4       ?ReadInt@FH4@@YAHPEAPEAE@Z 000000018001c4f4 f i libvcruntime:risctrnsctrl.obj
 0001:0001b504       ?ReadUnsigned@FH4@@YAIPEAPEAE@Z 000000018001c504 f i libvcruntime:risctrnsctrl.obj
 0001:0001b540       ?UnwindNestedFrames@__FrameHandler3@@SAXPEA_KPEAUEHExceptionRecord@@PEAU_CONTEXT@@0PEAXPEBU_s_FuncInfo@@HHPEBU_s_HandlerType@@PEAU_xDISPATCHER_CONTEXT@@E@Z 000000018001c540 f   libvcruntime:risctrnsctrl.obj
 0001:0001b684       ?UnwindNestedFrames@__FrameHandler4@@SAXPEA_KPEAUEHExceptionRecord@@PEAU_CONTEXT@@0PEAXPEAUFuncInfo4@FH4@@HHPEAUHandlerType4@5@PEAU_xDISPATCHER_CONTEXT@@E@Z 000000018001c684 f   libvcruntime:risctrnsctrl.obj
 0001:0001b7ec       ?begin@TryBlockMap4@FH4@@QEAA?AViterator@12@XZ 000000018001c7ec f i libvcruntime:risctrnsctrl.obj
 0001:0001b7fc       ?end@TryBlockMap4@FH4@@QEAA?AViterator@12@XZ 000000018001c7fc f i libvcruntime:risctrnsctrl.obj
 0001:0001b80c       ?imageRelToByteBuffer@FH4@@YAPEAE_KH@Z 000000018001c80c f i libvcruntime:risctrnsctrl.obj
 0001:0001b814       ?incrementToSentinel@iterator@TryBlockMap4@FH4@@QEAAXXZ 000000018001c814 f i libvcruntime:risctrnsctrl.obj
 0001:0001b818       ?setBuffer@TryBlockMap4@FH4@@QEAAXViterator@12@@Z 000000018001c818 f i libvcruntime:risctrnsctrl.obj
 0001:0001ba4c       _CreateFrameInfo           000000018001ca4c f   libvcruntime:risctrnsctrl.obj
 0001:0001ba94       _FindAndUnlinkFrame        000000018001ca94 f   libvcruntime:risctrnsctrl.obj
 0001:0001bafc       _GetImageBase              000000018001cafc f   libvcruntime:risctrnsctrl.obj
 0001:0001bb14       _GetThrowImageBase         000000018001cb14 f   libvcruntime:risctrnsctrl.obj
 0001:0001bb2c       _SetImageBase              000000018001cb2c f   libvcruntime:risctrnsctrl.obj
 0001:0001bb4c       _SetThrowImageBase         000000018001cb4c f   libvcruntime:risctrnsctrl.obj
 0001:0001bb6c       __CxxFrameHandler          000000018001cb6c f   libvcruntime:risctrnsctrl.obj
 0001:0001bb74       __CxxFrameHandler2         000000018001cb74 f   libvcruntime:risctrnsctrl.obj
 0001:0001bb7c       __CxxFrameHandler3         000000018001cb7c f   libvcruntime:risctrnsctrl.obj
 0001:0001bc24       __CxxFrameHandler4         000000018001cc24 f   libvcruntime:risctrnsctrl.obj
 0001:0001bd20       ??$__crt_interlocked_exchange_pointer@UHINSTANCE__@@PEAU1@@@YAPEAUHINSTANCE__@@PEDSEAU0@QEAU0@@Z 000000018001cd20 f i libvcruntime:winapi_downlevel.obj
 0001:0001bd28       ??$__crt_interlocked_exchange_pointer@UHINSTANCE__@@PEAX@@YAPEAUHINSTANCE__@@PEDSEAU0@QEAX@Z 000000018001cd28 f i libvcruntime:winapi_downlevel.obj
 0001:0001bd30       ??$__crt_interlocked_exchange_pointer@XPEAX@@YAPEAXPEDSEAXQEAX@Z 000000018001cd30 f i libvcruntime:winapi_downlevel.obj
 0001:0001bd38       ??$__crt_interlocked_read_pointer@UHINSTANCE__@@@@YAPEAUHINSTANCE__@@PEDSEAU0@@Z 000000018001cd38 f i libvcruntime:winapi_downlevel.obj
 0001:0001bd40       ??$__crt_interlocked_read_pointer@X@@YAPEAXPEDSEAX@Z 000000018001cd40 f i libvcruntime:winapi_downlevel.obj
 0001:0001c3c8       __vcrt_FlsAlloc            000000018001d3c8 f   libvcruntime:winapi_downlevel.obj
 0001:0001c420       __vcrt_FlsFree             000000018001d420 f   libvcruntime:winapi_downlevel.obj
 0001:0001c478       __vcrt_FlsGetValue         000000018001d478 f   libvcruntime:winapi_downlevel.obj
 0001:0001c4d0       __vcrt_FlsSetValue         000000018001d4d0 f   libvcruntime:winapi_downlevel.obj
 0001:0001c538       __vcrt_InitializeCriticalSectionEx 000000018001d538 f   libvcruntime:winapi_downlevel.obj
 0001:0001c5b4       ?GetCurrentState@__FrameHandler3@@SAHPEA_KPEAU_xDISPATCHER_CONTEXT@@PEBU_s_FuncInfo@@@Z 000000018001d5b4 f   libvcruntime:ehstate.obj
 0001:0001c5e4       ?GetUnwindTryBlock@__FrameHandler3@@SAHPEA_KPEAU_xDISPATCHER_CONTEXT@@PEBU_s_FuncInfo@@@Z 000000018001d5e4 f   libvcruntime:ehstate.obj
 0001:0001c618       ?SetState@__FrameHandler3@@SAXPEA_KPEBU_s_FuncInfo@@H@Z 000000018001d618 f   libvcruntime:ehstate.obj
 0001:0001c628       ?SetUnwindTryBlock@__FrameHandler3@@SAXPEA_KPEAU_xDISPATCHER_CONTEXT@@PEBU_s_FuncInfo@@H@Z 000000018001d628 f   libvcruntime:ehstate.obj
 0001:0001c674       ?StateFromControlPc@__FrameHandler3@@SAHPEBU_s_FuncInfo@@PEAU_xDISPATCHER_CONTEXT@@@Z 000000018001d674 f   libvcruntime:ehstate.obj
 0001:0001c680       ?StateFromControlPc@__FrameHandler4@@SAHPEAUFuncInfo4@FH4@@PEAU_xDISPATCHER_CONTEXT@@@Z 000000018001d680 f   libvcruntime:ehstate.obj
 0001:0001c68c       ?StateFromIp@__FrameHandler3@@SAHPEBU_s_FuncInfo@@PEAU_xDISPATCHER_CONTEXT@@_K@Z 000000018001d68c f   libvcruntime:ehstate.obj
 0001:0001c70c       ?StateFromIp@__FrameHandler4@@SAHPEAUFuncInfo4@FH4@@PEAU_xDISPATCHER_CONTEXT@@_K@Z 000000018001d70c f   libvcruntime:ehstate.obj
 0001:0001c834       ?__FuncRelToRealOffset@@YA_KPEAU_xDISPATCHER_CONTEXT@@I@Z 000000018001d834 f i libvcruntime:ehstate.obj
 0001:0001c848       ?__RVAtoRealOffset@@YA_KPEAU_xDISPATCHER_CONTEXT@@H@Z 000000018001d848 f i libvcruntime:ehstate.obj
 0001:0001e454       ??$TypeMatchHelper@V__FrameHandler3@@@@YAHPEBU_s_HandlerType@@PEBU_s_CatchableType@@PEBU_s_ThrowInfo@@@Z 000000018001f454 f i libvcruntime:frame.obj
 0001:0001e5e0       ??$TypeMatchHelper@V__FrameHandler4@@@@YAHPEAUHandlerType4@FH4@@PEBU_s_CatchableType@@PEBU_s_ThrowInfo@@@Z 000000018001f5e0 f i libvcruntime:frame.obj
 0001:0001e780       ??$__InternalCxxFrameHandler@V__FrameHandler3@@@@YA?AW4_EXCEPTION_DISPOSITION@@PEAUEHExceptionRecord@@PEA_KPEAU_CONTEXT@@PEAU_xDISPATCHER_CONTEXT@@PEBU_s_FuncInfo@@H1E@Z 000000018001f780 f i libvcruntime:frame.obj
 0001:0001ea44       ??$__InternalCxxFrameHandler@V__FrameHandler4@@@@YA?AW4_EXCEPTION_DISPOSITION@@PEAUEHExceptionRecord@@PEA_KPEAU_CONTEXT@@PEAU_xDISPATCHER_CONTEXT@@PEAUFuncInfo4@FH4@@H1E@Z 000000018001fa44 f i libvcruntime:frame.obj
 0001:0001ed80       ??$__InternalCxxFrameHandlerWrapper@V__FrameHandler3@@@@YA?AW4_EXCEPTION_DISPOSITION@@PEAUEHExceptionRecord@@PEA_KPEAU_CONTEXT@@PEAU_xDISPATCHER_CONTEXT@@PEBU_s_FuncInfo@@H1E@Z 000000018001fd80 f i libvcruntime:frame.obj
 0001:0001ed88       ??$__InternalCxxFrameHandlerWrapper@V__FrameHandler4@@@@YA?AW4_EXCEPTION_DISPOSITION@@PEAUEHExceptionRecord@@PEA_KPEAU_CONTEXT@@PEAU_xDISPATCHER_CONTEXT@@PEAUFuncInfo4@FH4@@H1E@Z 000000018001fd88 f i libvcruntime:frame.obj
 0001:0001ede8       ??0HandlerMap4@FH4@@QEAA@PEBUTryBlockMapEntry4@1@_KH@Z 000000018001fde8 f i libvcruntime:frame.obj
 0001:0001ee8c       ??0HandlerMap@__FrameHandler3@@QEAA@PEBU_s_TryBlockMapEntry@@_KI@Z 000000018001fe8c f i libvcruntime:frame.obj
 0001:0001eea8       ??0HandlerType4@FH4@@QEAA@XZ 000000018001fea8 f i libvcruntime:frame.obj
 0001:0001eec4       ??0TryBlockMap4@FH4@@QEAA@PEBUFuncInfo4@1@_K@Z 000000018001fec4 f i libvcruntime:frame.obj
 0001:0001efe4       ??0TryBlockMap@__FrameHandler3@@QEAA@PEBU_s_FuncInfo@@_K@Z 000000018001ffe4 f i libvcruntime:frame.obj
 0001:0001eff4       ??0UWMap4@FH4@@QEAA@PEBUFuncInfo4@1@_K@Z 000000018001fff4 f i libvcruntime:frame.obj
 0001:0001f054       ??0bad_exception@std@@QEAA@AEBV01@@Z 0000000180020054 f i libvcruntime:frame.obj
 0001:0001f0a0       ??0bad_exception@std@@QEAA@XZ 00000001800200a0 f i libvcruntime:frame.obj
 0001:0001f0c8       ??0exception@std@@QEAA@AEBV01@@Z 00000001800200c8 f i libvcruntime:frame.obj
 0001:0001f108       ??0exception@std@@QEAA@QEBDH@Z 0000000180020108 f i libvcruntime:frame.obj
 0001:0001f124       ??0iterator@HandlerMap4@FH4@@QEAA@AEAV12@I@Z 0000000180020124 f i libvcruntime:frame.obj
 0001:0001f134       ??0iterator@HandlerMap@__FrameHandler3@@QEAA@AEAV12@I@Z 0000000180020134 f i libvcruntime:frame.obj
 0001:0001f144       ??0iterator@UWMap4@FH4@@QEAA@AEAV12@PEAE@Z 0000000180020144 f i libvcruntime:frame.obj
 0001:0001f154       ??1bad_exception@std@@UEAA@XZ 0000000180020154 f i libvcruntime:frame.obj
 0001:0001f16c       ??1exception@std@@UEAA@XZ  000000018002016c f i libvcruntime:frame.obj
 0001:0001f184       ??4iterator@UWMap4@FH4@@QEAAAEAV012@AEBV012@@Z 0000000180020184 f i libvcruntime:frame.obj
 0001:0001f1ac       ??8iterator@HandlerMap4@FH4@@QEBA_NAEBV012@@Z 00000001800201ac f i libvcruntime:frame.obj
 0001:0001f1b8       ??8iterator@HandlerMap@__FrameHandler3@@QEBA_NAEBV012@@Z 00000001800201b8 f i libvcruntime:frame.obj
 0001:0001f1c4       ??8type_info@@QEBA_NAEBV0@@Z 00000001800201c4 f i libvcruntime:frame.obj
 0001:0001f1e8       ??9iterator@HandlerMap4@FH4@@QEBA_NAEBV012@@Z 00000001800201e8 f i libvcruntime:frame.obj
 0001:0001f1f4       ??9iterator@HandlerMap@__FrameHandler3@@QEBA_NAEBV012@@Z 00000001800201f4 f i libvcruntime:frame.obj
 0001:0001f200       ??Diterator@HandlerMap4@FH4@@QEAA?AUHandlerType4@2@XZ 0000000180020200 f i libvcruntime:frame.obj
 0001:0001f228       ??Diterator@HandlerMap@__FrameHandler3@@QEAA?BU_s_HandlerType@@XZ 0000000180020228 f i libvcruntime:frame.obj
 0001:0001f254       ??Diterator@TryBlockMap@__FrameHandler3@@QEAA?BU_s_TryBlockMapEntry@@XZ 0000000180020254 f i libvcruntime:frame.obj
 0001:0001f28c       ??Diterator@UWMap4@FH4@@QEAA?AUUnwindMapEntry4@2@XZ 000000018002028c f i libvcruntime:frame.obj
 0001:0001f2f4       ??Eiterator@HandlerMap4@FH4@@QEAAAEAV012@XZ 00000001800202f4 f i libvcruntime:frame.obj
 0001:0001f318       ??Eiterator@HandlerMap@__FrameHandler3@@QEAAAEAV012@XZ 0000000180020318 f i libvcruntime:frame.obj
 0001:0001f320       ??Eiterator@TryBlockMap@__FrameHandler3@@QEAAAEAV012@XZ 0000000180020320 f i libvcruntime:frame.obj
 0001:0001f328       ??Eiterator@UWMap4@FH4@@QEAAAEAV012@XZ 0000000180020328 f i libvcruntime:frame.obj
 0001:0001f350       ??Giterator@UWMap4@FH4@@QEBA_JAEBV012@@Z 0000000180020350 f i libvcruntime:frame.obj
 0001:0001f35c       ??Miterator@TryBlockMap4@FH4@@QEBA_NAEBV012@@Z 000000018002035c f i libvcruntime:frame.obj
 0001:0001f368       ??Miterator@TryBlockMap@__FrameHandler3@@QEBA_NAEBV012@@Z 0000000180020368 f i libvcruntime:frame.obj
 0001:0001f374       ??Oiterator@UWMap4@FH4@@QEBA_NAEBV012@@Z 0000000180020374 f i libvcruntime:frame.obj
 0001:0001f384       ??Piterator@UWMap4@FH4@@QEBA_NAEBV012@@Z 0000000180020384 f i libvcruntime:frame.obj
 0001:0001f394       ??_Ebad_exception@std@@UEAAPEAXI@Z 0000000180020394 f i libvcruntime:frame.obj
 0001:0001f394       ??_Gbad_exception@std@@UEAAPEAXI@Z 0000000180020394 f i libvcruntime:frame.obj
 0001:0001f3e8       ??_Eexception@std@@UEAAPEAXI@Z 00000001800203e8 f i libvcruntime:frame.obj
 0001:0001f3e8       ??_Gexception@std@@UEAAPEAXI@Z 00000001800203e8 f i libvcruntime:frame.obj
 0001:0001f43c       ?BuildCatchObject@__FrameHandler3@@SAXPEAUEHExceptionRecord@@PEAXPEBU_s_HandlerType@@PEBU_s_CatchableType@@@Z 000000018002043c f   libvcruntime:frame.obj
 0001:0001f444       ?BuildCatchObject@__FrameHandler4@@SAXPEAUEHExceptionRecord@@PEAXPEAUHandlerType4@FH4@@PEBU_s_CatchableType@@@Z 0000000180020444 f   libvcruntime:frame.obj
 0001:0001f44c       ?BuildCatchObjectHelper@__FrameHandler3@@SAHPEAUEHExceptionRecord@@PEAXPEBU_s_HandlerType@@PEBU_s_CatchableType@@@Z 000000018002044c f   libvcruntime:frame.obj
 0001:0001f454       ?BuildCatchObjectHelper@__FrameHandler4@@SAHPEAUEHExceptionRecord@@PEAXPEAUHandlerType4@FH4@@PEBU_s_CatchableType@@@Z 0000000180020454 f   libvcruntime:frame.obj
 0001:0001f45c       ?CxxCallCatchBlock@__FrameHandler3@@SAPEAXPEAU_EXCEPTION_RECORD@@@Z 000000018002045c f   libvcruntime:frame.obj
 0001:0001f6c0       ?CxxCallCatchBlock@__FrameHandler4@@SAPEAXPEAU_EXCEPTION_RECORD@@@Z 00000001800206c0 f   libvcruntime:frame.obj
 0001:0001f9a4       ?DecompHandler@HandlerMap4@FH4@@AEAAXXZ 00000001800209a4 f i libvcruntime:frame.obj
 0001:0001fc80       ?FrameUnwindToState@__FrameHandler3@@SAXPEA_KPEAU_xDISPATCHER_CONTEXT@@PEBU_s_FuncInfo@@H@Z 0000000180020c80 f   libvcruntime:frame.obj
 0001:0001fe6c       ?FrameUnwindToState@__FrameHandler4@@SAXPEA_KPEAU_xDISPATCHER_CONTEXT@@PEAUFuncInfo4@FH4@@H@Z 0000000180020e6c f   libvcruntime:frame.obj
 0001:00020234       ?GetHandlerSearchState@__FrameHandler3@@SAHPEA_KPEAU_xDISPATCHER_CONTEXT@@PEBU_s_FuncInfo@@@Z 0000000180021234 f i libvcruntime:frame.obj
 0001:000202f0       ?GetHandlerSearchState@__FrameHandler4@@SAHPEA_KPEAU_xDISPATCHER_CONTEXT@@PEAUFuncInfo4@FH4@@@Z 00000001800212f0 f i libvcruntime:frame.obj
 0001:0002036c       ?GetMaxState@__FrameHandler3@@SAHPEAU_xDISPATCHER_CONTEXT@@PEBU_s_FuncInfo@@@Z 000000018002136c f i libvcruntime:frame.obj
 0001:00020370       ?GetMaxState@__FrameHandler4@@SAHPEAU_xDISPATCHER_CONTEXT@@PEAUFuncInfo4@FH4@@@Z 0000000180021370 f i libvcruntime:frame.obj
 0001:0002058c       ?ReadEntry@UWMap4@FH4@@AEAAXPEAPEAE@Z 000000018002158c f i libvcruntime:frame.obj
 0001:00020650       ?TypeMatch@__FrameHandler3@@SAHPEBU_s_HandlerType@@PEBU_s_CatchableType@@PEBU_s_ThrowInfo@@@Z 0000000180021650 f   libvcruntime:frame.obj
 0001:00020658       ?TypeMatch@__FrameHandler4@@SAHPEAUHandlerType4@FH4@@PEBU_s_CatchableType@@PEBU_s_ThrowInfo@@@Z 0000000180021658 f   libvcruntime:frame.obj
 0001:00020660       ?WalkBack@UWMap4@FH4@@AEAAXPEAPEAE@Z 0000000180021660 f i libvcruntime:frame.obj
 0001:000206a4       ?WalkBack@iterator@UWMap4@FH4@@QEAAXXZ 00000001800216a4 f i libvcruntime:frame.obj
 0001:000206f0       ?WalkForward@UWMap4@FH4@@AEAAXPEAPEAE@Z 00000001800216f0 f i libvcruntime:frame.obj
 0001:000206f8       ?_CallMemberFunction1@@YAXQEAX00@Z 00000001800216f8 f i libvcruntime:frame.obj
 0001:00020704       ?_CallMemberFunction2@@YAXQEAX00H@Z 0000000180021704 f i libvcruntime:frame.obj
 0001:00020734       ?begin@HandlerMap4@FH4@@QEAA?AViterator@12@XZ 0000000180021734 f i libvcruntime:frame.obj
 0001:00020744       ?begin@HandlerMap@__FrameHandler3@@QEAA?AViterator@12@XZ 0000000180021744 f i libvcruntime:frame.obj
 0001:00020754       ?begin@UWMap4@FH4@@QEAA?AViterator@12@XZ 0000000180021754 f i libvcruntime:frame.obj
 0001:00020768       ?end@HandlerMap4@FH4@@QEAA?AViterator@12@XZ 0000000180021768 f i libvcruntime:frame.obj
 0001:00020778       ?end@HandlerMap@__FrameHandler3@@QEAA?AViterator@12@XZ 0000000180021778 f i libvcruntime:frame.obj
 0001:00020788       ?getESTypes@__FrameHandler3@@SAPEBU_s_ESTypeList@@PEBU_s_FuncInfo@@@Z 0000000180021788 f i libvcruntime:frame.obj
 0001:000207bc       ?getESTypes@__FrameHandler4@@SAPEBU_s_ESTypeList@@PEAUFuncInfo4@FH4@@@Z 00000001800217bc f i libvcruntime:frame.obj
 0001:000207c0       ?getLastEntry@HandlerMap4@FH4@@QEAAPEAUHandlerType4@2@XZ 00000001800217c0 f i libvcruntime:frame.obj
 0001:00020824       ?getLastEntry@HandlerMap@__FrameHandler3@@QEAAPEBU_s_HandlerType@@XZ 0000000180021824 f i libvcruntime:frame.obj
 0001:0002083c       ?getMagicNum@__FrameHandler3@@SAIPEBU_s_FuncInfo@@@Z 000000018002183c f i libvcruntime:frame.obj
 0001:00020848       ?getMagicNum@__FrameHandler4@@SAIPEAUFuncInfo4@FH4@@@Z 0000000180021848 f i libvcruntime:frame.obj
 0001:00020850       ?getNumTryBlocks@TryBlockMap4@FH4@@QEAAIXZ 0000000180021850 f i libvcruntime:frame.obj
 0001:00020854       ?getNumTryBlocks@TryBlockMap@__FrameHandler3@@QEAAIXZ 0000000180021854 f i libvcruntime:frame.obj
 0001:0002085c       ?getStartStop@UWMap4@FH4@@QEAAXHHAEAViterator@12@0@Z 000000018002185c f i libvcruntime:frame.obj
 0001:00020960       ?getStateFromIterators@UWMap4@FH4@@SAHAEBViterator@12@H0H0@Z 0000000180021960 f i libvcruntime:frame.obj
 0001:00020a3c       ?isEHs@__FrameHandler3@@SA_NPEBU_s_FuncInfo@@@Z 0000000180021a3c f i libvcruntime:frame.obj
 0001:00020a44       ?isEHs@__FrameHandler4@@SA_NPEAUFuncInfo4@FH4@@@Z 0000000180021a44 f i libvcruntime:frame.obj
 0001:00020a50       ?isNoExcept@__FrameHandler3@@SA_NPEBU_s_FuncInfo@@@Z 0000000180021a50 f i libvcruntime:frame.obj
 0001:00020a5c       ?isNoExcept@__FrameHandler4@@SA_NPEAUFuncInfo4@FH4@@@Z 0000000180021a5c f i libvcruntime:frame.obj
 0001:00020a68       ?reset@HandlerType4@FH4@@QEAAXXZ 0000000180021a68 f i libvcruntime:frame.obj
 0001:00020a84       ?resetBuffer@HandlerMap4@FH4@@QEAAXXZ 0000000180021a84 f i libvcruntime:frame.obj
 0001:00020a94       ?setBuffer@HandlerMap4@FH4@@QEAAXI@Z 0000000180021a94 f i libvcruntime:frame.obj
 0001:00020adc       ?what@exception@std@@UEBAPEBDXZ 0000000180021adc f i libvcruntime:frame.obj
 0001:00020af4       __BuildCatchObject         0000000180021af4 f   libvcruntime:frame.obj
 0001:00020afc       __BuildCatchObjectHelper   0000000180021afc f   libvcruntime:frame.obj
 0001:00020b04       __TypeMatch                0000000180021b04 f   libvcruntime:frame.obj
 0001:00020b0c       __vcrt_EncodePointer       0000000180021b0c f i libvcruntime:frame.obj
 0001:00020b70       _CallSettingFrame          0000000180021b70 f   libvcruntime:handlers.obj
 0001:00020bc0       _CallSettingFrame_LookupContinuationIndex 0000000180021bc0 f   libvcruntime:handlers.obj
 0001:00020c00       _CallSettingFrame_NotifyContinuationAddr 0000000180021c00 f   libvcruntime:handlers.obj
 0001:00020c30       _CallSettingFrameEncoded   0000000180021c30 f   libvcruntime:handlers.obj
 0001:00020c88       ??$?RD@__crt_public_free_policy@@QEBAXQEBD@Z 0000000180021c88 f i libvcruntime:std_exception.obj
 0001:00020c94       ??0?$__crt_unique_heap_ptr@DU__crt_public_free_policy@@@@QEAA@QEAD@Z 0000000180021c94 f i libvcruntime:std_exception.obj
 0001:00020c9c       ??1?$__crt_unique_heap_ptr@DU__crt_public_free_policy@@@@QEAA@XZ 0000000180021c9c f i libvcruntime:std_exception.obj
 0001:00020cc0       ??B?$__crt_unique_heap_ptr@DU__crt_public_free_policy@@@@QEBA_NXZ 0000000180021cc0 f i libvcruntime:std_exception.obj
 0001:00020ccc       ?detach@?$__crt_unique_heap_ptr@DU__crt_public_free_policy@@@@QEAAPEADXZ 0000000180021ccc f i libvcruntime:std_exception.obj
 0001:00020cd8       ?get@?$__crt_unique_heap_ptr@DU__crt_public_free_policy@@@@QEBAPEADXZ 0000000180021cd8 f i libvcruntime:std_exception.obj
 0001:00020cdc       ?is_valid@?$__crt_unique_heap_ptr@DU__crt_public_free_policy@@@@QEBA_NXZ 0000000180021cdc f i libvcruntime:std_exception.obj
 0001:00020ce8       ?release@?$__crt_unique_heap_ptr@DU__crt_public_free_policy@@@@QEAAXXZ 0000000180021ce8 f i libvcruntime:std_exception.obj
 0001:00020d0c       __std_exception_copy       0000000180021d0c f   libvcruntime:std_exception.obj
 0001:00020dbc       __std_exception_destroy    0000000180021dbc f   libvcruntime:std_exception.obj
 0001:00020dec       _CxxThrowException         0000000180021dec f   libvcruntime:throw.obj
 0001:00020ee0       memcpy_avx_ermsb_Intel     0000000180021ee0 f   libvcruntime:memcpy_avx_ermsb_aligned.obj
 0001:00021420       memcpy_avx_ermsb_amd       0000000180022420 f   libvcruntime:memcpy_avx_ermsb_aligned_amd.obj
 0001:00021960       memcpy_sse2_ermsb_Intel    0000000180022960 f   libvcruntime:memcpy_sse2_ermsb_aligned.obj
 0001:00021cc0       memcpy_sse2_ermsb_amd      0000000180022cc0 f   libvcruntime:memcpy_sse2_ermsb_aligned_amd.obj
 0001:00022020       memcpy_repmovs_Intel       0000000180023020 f   libvcruntime:memcpy_repmovs.obj
 0001:00022060       memcpy_CopyDown_Intel      0000000180023060 f   libvcruntime:memcpy_CopyDown.obj
 0001:000221a0       memcpy_repmovs_amd         00000001800231a0 f   libvcruntime:memcpy_repmovs_amd.obj
 0001:000221e0       memcpy_CopyDown_amd        00000001800231e0 f   libvcruntime:memcpy_CopyDown_amd.obj
 0001:00022300       roundf                     0000000180023300 f   libucrt:round.obj
 0001:00022360       round                      0000000180023360 f   libucrt:round.obj
 0001:000223e0       ceilf                      00000001800233e0 f   libucrt:ceilf.obj
 0001:000224a0       __is_fma3_avx2_enabled     00000001800234a0 f i libucrt:pow.obj
 0001:000224c0       asdouble                   00000001800234c0 f i libucrt:pow.obj
 0001:000224d0       asuint64                   00000001800234d0 f i libucrt:pow.obj
 0001:000224e0       check_oflow                00000001800234e0 f i libucrt:pow.obj
 0001:000224f0       check_uflow                00000001800234f0 f i libucrt:pow.obj
 0001:00022560       eval_as_double             0000000180023560 f i libucrt:pow.obj
 0001:00022860       force_eval_double          0000000180023860 f i libucrt:pow.obj
 0001:00022870       issignaling_inline         0000000180023870 f i libucrt:pow.obj
 0001:00022af0       opt_barrier_double         0000000180023af0 f i libucrt:pow.obj
 0001:00022b00       pow                        0000000180023b00 f   libucrt:pow.obj
 0001:000236a0       sqrtf                      00000001800246a0 f   libucrt:sqrtf.obj
 0001:00023764       _initterm                  0000000180024764 f   libucrt:initterm.obj
 0001:000237a8       _initterm_e                00000001800247a8 f   libucrt:initterm.obj
 0001:00023818       _seh_filter_dll            0000000180024818 f   libucrt:exception_filter.obj
 0001:00023830       _seh_filter_exe            0000000180024830 f   libucrt:exception_filter.obj
 0001:000239f8       ??$?B$$A6AXPEAXK0@Z@__crt_fast_encoded_nullptr_t@@QEBAP6AXPEAXK0@ZXZ 00000001800249f8 f i libucrt:exit.obj
 0001:00023a88       ??$__crt_fast_decode_pointer@P6AXPEAXK0@Z@@YAP6AXPEAXK0@ZQ6AX0K0@Z@Z 0000000180024a88 f i libucrt:exit.obj
 0001:00023aa4       ??$__crt_fast_encode_pointer@P6AXPEAXK0@Z@@YAP6AXPEAXK0@ZQ6AX0K0@Z@Z 0000000180024aa4 f i libucrt:exit.obj
 0001:00023acc       ??$__crt_get_proc_address@P6AXI@Z@@YAP6AXI@ZQEAUHINSTANCE__@@QEBD@Z 0000000180024acc f i libucrt:exit.obj
 0001:00023ad4       ??$__crt_interlocked_read@J@@YAJPEDJ@Z 0000000180024ad4 f i libucrt:exit.obj
 0001:00023b04       ??0?$__crt_unique_handle_t@U__crt_hmodule_traits@@@@QEAA@QEAUHINSTANCE__@@@Z 0000000180024b04 f i libucrt:exit.obj
 0001:00023b0c       ??1?$__crt_unique_handle_t@U__crt_hmodule_traits@@@@QEAA@XZ 0000000180024b0c f i libucrt:exit.obj
 0001:00023c38       ?__acrt_select_exit_lock@@YA?AW4__acrt_lock_id@@XZ 0000000180024c38 f i libucrt:exit.obj
 0001:00023c40       ?__crt_fast_encode_pointer@@YA?AU__crt_fast_encoded_nullptr_t@@$$T@Z 0000000180024c40 f i libucrt:exit.obj
 0001:00023c48       ?__crt_interlocked_read_32@@YAHPEDH@Z 0000000180024c48 f i libucrt:exit.obj
 0001:00023c4c       ?__crt_rotate_pointer_value@@YA_K_KH@Z 0000000180024c4c f i libucrt:exit.obj
 0001:00023c68       ?close@?$__crt_unique_handle_t@U__crt_hmodule_traits@@@@QEAAXXZ 0000000180024c68 f i libucrt:exit.obj
 0001:00023c94       ?close@__crt_hmodule_traits@@SA_NPEAUHINSTANCE__@@@Z 0000000180024c94 f i libucrt:exit.obj
 0001:00023e04       ?get@?$__crt_unique_handle_t@U__crt_hmodule_traits@@@@QEBAPEAUHINSTANCE__@@XZ 0000000180024e04 f i libucrt:exit.obj
 0001:00023e08       ?get_address_of@?$__crt_unique_handle_t@U__crt_hmodule_traits@@@@QEAAPEAPEAUHINSTANCE__@@XZ 0000000180024e08 f i libucrt:exit.obj
 0001:00023e0c       ?get_invalid_value@__crt_hmodule_traits@@SAPEAUHINSTANCE__@@XZ 0000000180024e0c f i libucrt:exit.obj
 0001:00023f24       _Exit                      0000000180024f24 f   libucrt:exit.obj
 0001:00023f34       __acrt_initialize_thread_local_exit_callback 0000000180024f34 f   libucrt:exit.obj
 0001:00023f40       _c_exit                    0000000180024f40 f   libucrt:exit.obj
 0001:00023f54       _cexit                     0000000180024f54 f   libucrt:exit.obj
 0001:00023f64       _exit                      0000000180024f64 f   libucrt:exit.obj
 0001:00023f74       _is_c_termination_complete 0000000180024f74 f   libucrt:exit.obj
 0001:00023f80       _register_thread_local_exe_atexit_callback 0000000180024f80 f   libucrt:exit.obj
 0001:00023fcc       exit                       0000000180024fcc f   libucrt:exit.obj
 0001:00023fd8       quick_exit                 0000000180024fd8 f   libucrt:exit.obj
 0001:00023fe8       ??$?RE@__crt_internal_free_policy@@QEBAXQEBE@Z 0000000180024fe8 f i libucrt:argv_parsing.obj
 0001:00023ff4       ??$?RPEAD@__crt_internal_free_policy@@QEBAXQEBQEAD@Z 0000000180024ff4 f i libucrt:argv_parsing.obj
 0001:00024000       ??$?RPEA_W@__crt_internal_free_policy@@QEBAXQEBQEA_W@Z 0000000180025000 f i libucrt:argv_parsing.obj
 0001:000243b8       ??$get_module_file_name@$$TAEAY0BAF@DH@?$__crt_char_traits@D@@SAK$$QEA$$TAEAY0BAF@D$$QEAH@Z 00000001800253b8 f i libucrt:argv_parsing.obj
 0001:000243c8       ??$get_module_file_name@$$TAEAY0BAF@_WH@?$__crt_char_traits@_W@@SAK$$QEA$$TAEAY0BAF@_W$$QEAH@Z 00000001800253c8 f i libucrt:argv_parsing.obj
 0001:00024810       ??$set_program_name@PEAD@?$__crt_char_traits@D@@SAX$$QEAPEAD@Z 0000000180025810 f i libucrt:argv_parsing.obj
 0001:00024820       ??$set_program_name@PEA_W@?$__crt_char_traits@_W@@SAX$$QEAPEA_W@Z 0000000180025820 f i libucrt:argv_parsing.obj
 0001:00024840       ??0?$__crt_unique_heap_ptr@EU__crt_internal_free_policy@@@@QEAA@QEAE@Z 0000000180025840 f i libucrt:argv_parsing.obj
 0001:00024848       ??0?$__crt_unique_heap_ptr@PEADU__crt_internal_free_policy@@@@QEAA@QEAPEAD@Z 0000000180025848 f i libucrt:argv_parsing.obj
 0001:00024850       ??0?$__crt_unique_heap_ptr@PEA_WU__crt_internal_free_policy@@@@QEAA@QEAPEA_W@Z 0000000180025850 f i libucrt:argv_parsing.obj
 0001:00024858       ??1?$__crt_unique_heap_ptr@EU__crt_internal_free_policy@@@@QEAA@XZ 0000000180025858 f i libucrt:argv_parsing.obj
 0001:0002487c       ??1?$__crt_unique_heap_ptr@PEADU__crt_internal_free_policy@@@@QEAA@XZ 000000018002587c f i libucrt:argv_parsing.obj
 0001:000248a0       ??1?$__crt_unique_heap_ptr@PEA_WU__crt_internal_free_policy@@@@QEAA@XZ 00000001800258a0 f i libucrt:argv_parsing.obj
 0001:000248c4       ??B?$__crt_unique_heap_ptr@EU__crt_internal_free_policy@@@@QEBA_NXZ 00000001800258c4 f i libucrt:argv_parsing.obj
 0001:00024918       ?detach@?$__crt_unique_heap_ptr@EU__crt_internal_free_policy@@@@QEAAPEAEXZ 0000000180025918 f i libucrt:argv_parsing.obj
 0001:00024924       ?detach@?$__crt_unique_heap_ptr@PEADU__crt_internal_free_policy@@@@QEAAPEAPEADXZ 0000000180025924 f i libucrt:argv_parsing.obj
 0001:00024930       ?detach@?$__crt_unique_heap_ptr@PEA_WU__crt_internal_free_policy@@@@QEAAPEAPEA_WXZ 0000000180025930 f i libucrt:argv_parsing.obj
 0001:00024958       ?get@?$__crt_unique_heap_ptr@EU__crt_internal_free_policy@@@@QEBAPEAEXZ 0000000180025958 f i libucrt:argv_parsing.obj
 0001:0002495c       ?get@?$__crt_unique_heap_ptr@PEADU__crt_internal_free_policy@@@@QEBAPEAPEADXZ 000000018002595c f i libucrt:argv_parsing.obj
 0001:00024960       ?get@?$__crt_unique_heap_ptr@PEA_WU__crt_internal_free_policy@@@@QEBAPEAPEA_WXZ 0000000180025960 f i libucrt:argv_parsing.obj
 0001:00024964       ?get_address_of@?$__crt_unique_heap_ptr@PEADU__crt_internal_free_policy@@@@QEAAPEAPEAPEADXZ 0000000180025964 f i libucrt:argv_parsing.obj
 0001:00024968       ?get_address_of@?$__crt_unique_heap_ptr@PEA_WU__crt_internal_free_policy@@@@QEAAPEAPEAPEA_WXZ 0000000180025968 f i libucrt:argv_parsing.obj
 0001:0002499c       ?is_valid@?$__crt_unique_heap_ptr@EU__crt_internal_free_policy@@@@QEBA_NXZ 000000018002599c f i libucrt:argv_parsing.obj
 0001:000249a8       ?release@?$__crt_unique_heap_ptr@EU__crt_internal_free_policy@@@@QEAAXXZ 00000001800259a8 f i libucrt:argv_parsing.obj
 0001:000249cc       ?release@?$__crt_unique_heap_ptr@PEADU__crt_internal_free_policy@@@@QEAAXXZ 00000001800259cc f i libucrt:argv_parsing.obj
 0001:000249f0       ?release@?$__crt_unique_heap_ptr@PEA_WU__crt_internal_free_policy@@@@QEAAXXZ 00000001800259f0 f i libucrt:argv_parsing.obj
 0001:00024a34       __acrt_allocate_buffer_for_argv 0000000180025a34 f   libucrt:argv_parsing.obj
 0001:00024aa8       _configure_narrow_argv     0000000180025aa8 f   libucrt:argv_parsing.obj
 0001:00024c84       _configure_wide_argv       0000000180025c84 f   libucrt:argv_parsing.obj
 0001:00024e5c       _set_pgmptr                0000000180025e5c f i libucrt:argv_parsing.obj
 0001:00024e68       _set_wpgmptr               0000000180025e68 f i libucrt:argv_parsing.obj
 0001:00024e74       ??$?R_W@__crt_internal_free_policy@@QEBAXQEB_W@Z 0000000180025e74 f i libucrt:environment_initialization.obj
 0001:000254f0       ??$get_environment_from_os@$$V@?$__crt_char_traits@D@@SAPEADXZ 00000001800264f0 f i libucrt:environment_initialization.obj
 0001:000254f8       ??$get_environment_from_os@$$V@?$__crt_char_traits@_W@@SAPEA_WXZ 00000001800264f8 f i libucrt:environment_initialization.obj
 0001:00025700       ??$set_variable_in_environment_nolock@PEADH@?$__crt_char_traits@D@@SAH$$QEAPEAD$$QEAH@Z 0000000180026700 f i libucrt:environment_initialization.obj
 0001:0002570c       ??$set_variable_in_environment_nolock@PEA_WH@?$__crt_char_traits@_W@@SAH$$QEAPEA_W$$QEAH@Z 000000018002670c f i libucrt:environment_initialization.obj
 0001:00025718       ??$tcscpy_s@PEADAEB_KAEAPEAD@?$__crt_char_traits@D@@SAH$$QEAPEADAEB_KAEAPEAD@Z 0000000180026718 f i libucrt:environment_initialization.obj
 0001:0002572c       ??$tcscpy_s@PEA_WAEB_KAEAPEA_W@?$__crt_char_traits@_W@@SAH$$QEAPEA_WAEB_KAEAPEA_W@Z 000000018002672c f i libucrt:environment_initialization.obj
 0001:00025740       ??$tcslen@AEAPEAD@?$__crt_char_traits@D@@SA_KAEAPEAD@Z 0000000180026740 f i libucrt:environment_initialization.obj
 0001:00025758       ??$tcslen@AEAPEA_W@?$__crt_char_traits@_W@@SA_KAEAPEA_W@Z 0000000180026758 f i libucrt:environment_initialization.obj
 0001:00025770       ??$uninitialize@A6AXAEAPEAPEAD@_E@?$dual_state_global@PEAPEAD@__crt_state_management@@QEAAXA6AXAEAPEAPEAD@_E@Z 0000000180026770 f i libucrt:environment_initialization.obj
 0001:000257d0       ??$uninitialize@A6AXAEAPEAPEA_W@_E@?$dual_state_global@PEAPEA_W@__crt_state_management@@QEAAXA6AXAEAPEAPEA_W@_E@Z 00000001800267d0 f i libucrt:environment_initialization.obj
 0001:00025870       ??0?$__crt_unique_heap_ptr@_WU__crt_internal_free_policy@@@@QEAA@QEA_W@Z 0000000180026870 f i libucrt:environment_initialization.obj
 0001:00025878       ??1?$__crt_unique_heap_ptr@_WU__crt_internal_free_policy@@@@QEAA@XZ 0000000180026878 f i libucrt:environment_initialization.obj
 0001:0002589c       ??B?$__crt_unique_heap_ptr@PEADU__crt_internal_free_policy@@@@QEBA_NXZ 000000018002689c f i libucrt:environment_initialization.obj
 0001:000258a8       ??B?$__crt_unique_heap_ptr@PEA_WU__crt_internal_free_policy@@@@QEBA_NXZ 00000001800268a8 f i libucrt:environment_initialization.obj
 0001:000258b4       ??B?$__crt_unique_heap_ptr@_WU__crt_internal_free_policy@@@@QEBA_NXZ 00000001800268b4 f i libucrt:environment_initialization.obj
 0001:000258c0       ?__crt_compute_required_transform_buffer_count@@YA_KIQEBD@Z 00000001800268c0 f i libucrt:environment_initialization.obj
 0001:000258f0       ?__crt_compute_required_transform_buffer_count@@YA_KIQEB_W@Z 00000001800268f0 f i libucrt:environment_initialization.obj
 0001:0002592c       ?__crt_transform_string@@YA_KIQEBDQEA_W_K@Z 000000018002692c f i libucrt:environment_initialization.obj
 0001:00025958       ?__crt_transform_string@@YA_KIQEB_WQEAD_K@Z 0000000180026958 f i libucrt:environment_initialization.obj
 0001:00025994       ?detach@?$__crt_unique_heap_ptr@DU__crt_internal_free_policy@@@@QEAAPEADXZ 0000000180026994 f i libucrt:environment_initialization.obj
 0001:000259a0       ?detach@?$__crt_unique_heap_ptr@_WU__crt_internal_free_policy@@@@QEAAPEA_WXZ 00000001800269a0 f i libucrt:environment_initialization.obj
 0001:000259ac       ?get@?$__crt_unique_heap_ptr@_WU__crt_internal_free_policy@@@@QEBAPEA_WXZ 00000001800269ac f i libucrt:environment_initialization.obj
 0001:000259b0       ?get_current_state_index@__crt_state_management@@YA_KXZ 00000001800269b0 f i libucrt:environment_initialization.obj
 0001:000259fc       ?initialize@?$dual_state_global@PEAPEAD@__crt_state_management@@QEAAXQEAPEAD@Z 00000001800269fc f i libucrt:environment_initialization.obj
 0001:00025a0c       ?initialize@?$dual_state_global@PEAPEA_W@__crt_state_management@@QEAAXQEAPEA_W@Z 0000000180026a0c f i libucrt:environment_initialization.obj
 0001:00025a1c       ?is_valid@?$__crt_unique_heap_ptr@PEADU__crt_internal_free_policy@@@@QEBA_NXZ 0000000180026a1c f i libucrt:environment_initialization.obj
 0001:00025a28       ?is_valid@?$__crt_unique_heap_ptr@PEA_WU__crt_internal_free_policy@@@@QEBA_NXZ 0000000180026a28 f i libucrt:environment_initialization.obj
 0001:00025a34       ?is_valid@?$__crt_unique_heap_ptr@_WU__crt_internal_free_policy@@@@QEBA_NXZ 0000000180026a34 f i libucrt:environment_initialization.obj
 0001:00025a4c       ?release@?$__crt_unique_heap_ptr@_WU__crt_internal_free_policy@@@@QEAAXXZ 0000000180026a4c f i libucrt:environment_initialization.obj
 0001:00025a70       ?value@?$dual_state_global@PEAPEAD@__crt_state_management@@QEAAAEAPEAPEADXZ 0000000180026a70 f i libucrt:environment_initialization.obj
 0001:00025a74       ?value@?$dual_state_global@PEAPEA_W@__crt_state_management@@QEAAAEAPEAPEA_WXZ 0000000180026a74 f i libucrt:environment_initialization.obj
 0001:00025a78       __dcrt_get_or_create_narrow_environment_nolock 0000000180026a78 f   libucrt:environment_initialization.obj
 0001:00025ac4       __dcrt_get_or_create_wide_environment_nolock 0000000180026ac4 f   libucrt:environment_initialization.obj
 0001:00025b10       __dcrt_uninitialize_environments_nolock 0000000180026b10 f   libucrt:environment_initialization.obj
 0001:00025b64       __p__environ               0000000180026b64 f   libucrt:environment_initialization.obj
 0001:00025b70       __p__wenviron              0000000180026b70 f   libucrt:environment_initialization.obj
 0001:00025b7c       _get_initial_narrow_environment 0000000180026b7c f   libucrt:environment_initialization.obj
 0001:00025be0       _get_initial_wide_environment 0000000180026be0 f   libucrt:environment_initialization.obj
 0001:00025c44       _initialize_narrow_environment 0000000180026c44 f   libucrt:environment_initialization.obj
 0001:00025c4c       _initialize_wide_environment 0000000180026c4c f   libucrt:environment_initialization.obj
 0001:00025c54       _invoke_watson_if_error    0000000180026c54 f i libucrt:environment_initialization.obj
 0001:00025c94       ??$?B$$A6AXXZ@__crt_fast_encoded_nullptr_t@@QEBAP6AXXZXZ 0000000180026c94 f i libucrt:onexit.obj
 0001:00025ca0       ??$?BP6AXXZ@__crt_fast_encoded_nullptr_t@@QEBAPEAP6AXXZXZ 0000000180026ca0 f i libucrt:onexit.obj
 0001:00025cac       ??$?RP6AXXZ@__crt_internal_free_policy@@QEBAXQEBQ6AXXZ@Z 0000000180026cac f i libucrt:onexit.obj
 0001:00025dbc       ??$__crt_fast_decode_pointer@P6AXXZ@@YAP6AXXZQ6AXXZ@Z 0000000180026dbc f i libucrt:onexit.obj
 0001:00025dd8       ??$__crt_fast_decode_pointer@PEAP6AXXZ@@YAPEAP6AXXZQEAP6AXXZ@Z 0000000180026dd8 f i libucrt:onexit.obj
 0001:00025df4       ??$__crt_fast_encode_pointer@P6AHXZ@@YAP6AHXZQ6AHXZ@Z 0000000180026df4 f i libucrt:onexit.obj
 0001:00025e1c       ??$__crt_fast_encode_pointer@P6AXXZ@@YAP6AXXZQ6AXXZ@Z 0000000180026e1c f i libucrt:onexit.obj
 0001:00025e44       ??$__crt_fast_encode_pointer@PEAP6AXXZ@@YAPEAP6AXXZQEAP6AXXZ@Z 0000000180026e44 f i libucrt:onexit.obj
 0001:00025eb4       ??0?$__crt_unique_heap_ptr@P6AXXZU__crt_internal_free_policy@@@@QEAA@QEAP6AXXZ@Z 0000000180026eb4 f i libucrt:onexit.obj
 0001:00025ebc       ??1?$__crt_unique_heap_ptr@P6AXXZU__crt_internal_free_policy@@@@QEAA@XZ 0000000180026ebc f i libucrt:onexit.obj
 0001:00025ee0       ??1scoped_global_state_reset@__crt_state_management@@QEAA@XZ 0000000180026ee0 f i libucrt:onexit.obj
 0001:0002627c       ?detach@?$__crt_unique_heap_ptr@P6AXXZU__crt_internal_free_policy@@@@QEAAPEAP6AXXZXZ 000000018002727c f i libucrt:onexit.obj
 0001:00026288       ?release@?$__crt_unique_heap_ptr@P6AXXZU__crt_internal_free_policy@@@@QEAAXXZ 0000000180027288 f i libucrt:onexit.obj
 0001:000262ac       _crt_at_quick_exit         00000001800272ac f   libucrt:onexit.obj
 0001:000262c0       _crt_atexit                00000001800272c0 f   libucrt:onexit.obj
 0001:000262d4       _execute_onexit_table      00000001800272d4 f   libucrt:onexit.obj
 0001:00026328       _initialize_onexit_table   0000000180027328 f   libucrt:onexit.obj
 0001:00026358       _register_onexit_function  0000000180027358 f   libucrt:onexit.obj
 0001:00026538       ??$?BX@__crt_fast_encoded_nullptr_t@@QEBAPEAXXZ 0000000180027538 f i libucrt:initialization.obj
 0001:00026544       ??$__crt_fast_encode_pointer@PEAX@@YAPEAXQEAX@Z 0000000180027544 f i libucrt:initialization.obj
 0001:0002662c       ?__acrt_stdio_is_initialized@@YA_NXZ 000000018002762c f i libucrt:initialization.obj
 0001:0002663c       ?initialize@?$dual_state_global@PEAU__crt_locale_data@@@__crt_state_management@@QEAAXQEAU__crt_locale_data@@@Z 000000018002763c f i libucrt:initialization.obj
 0001:0002664c       __acrt_initialize          000000018002764c f   libucrt:initialization.obj
 0001:00026664       __acrt_thread_attach       0000000180027664 f   libucrt:initialization.obj
 0001:00026680       __acrt_thread_detach       0000000180027680 f   libucrt:initialization.obj
 0001:00026694       __acrt_uninitialize        0000000180027694 f   libucrt:initialization.obj
 0001:000266d8       __acrt_uninitialize_critical 00000001800276d8 f   libucrt:initialization.obj
 0001:00026704       _get_terminate             0000000180027704 f   libucrt:terminate.obj
 0001:00026730       set_terminate              0000000180027730 f   libucrt:terminate.obj
 0001:00026768       terminate                  0000000180027768 f   libucrt:terminate.obj
 0001:00026790       free                       0000000180027790 f   libucrt:free.obj
 0001:000267a0       malloc                     00000001800277a0 f   libucrt:malloc.obj
 0001:00026850       strcpy_s                   0000000180027850 f   libucrt:strcpy_s.obj
 0001:000268f0       _set_abort_behavior        00000001800278f0 f   libucrt:abort.obj
 0001:00026914       abort                      0000000180027914 f   libucrt:abort.obj
 0001:00026980       ??$?0AEBV?$stream_output_adapter@D@__crt_stdio_output@@AEB_KAEBQEBDAEAV__crt_cached_ptd_host@@AEBQEAD@?$format_validation_base@DV?$stream_output_adapter@D@__crt_stdio_output@@@__crt_stdio_output@@IEAA@AEBV?$stream_output_adapter@D@1@AEB_KAEBQEBDAEAV__crt_cached_ptd_host@@AEBQEAD@Z 0000000180027980 f i libucrt:output.obj
 0001:00026a0c       ??$?0AEBV?$stream_output_adapter@D@__crt_stdio_output@@AEB_KAEBQEBDAEAV__crt_cached_ptd_host@@AEBQEAD@?$positional_parameter_base@DV?$stream_output_adapter@D@__crt_stdio_output@@@__crt_stdio_output@@IEAA@AEBV?$stream_output_adapter@D@1@AEB_KAEBQEBDAEAV__crt_cached_ptd_host@@AEBQEAD@Z 0000000180027a0c f i libucrt:output.obj
 0001:00026abc       ??$?0AEBV?$stream_output_adapter@D@__crt_stdio_output@@AEB_KAEBQEBDAEAV__crt_cached_ptd_host@@AEBQEAD@?$standard_base@DV?$stream_output_adapter@D@__crt_stdio_output@@@__crt_stdio_output@@IEAA@AEBV?$stream_output_adapter@D@1@AEB_KAEBQEBDAEAV__crt_cached_ptd_host@@AEBQEAD@Z 0000000180027abc f i libucrt:output.obj
 0001:00026b48       ??$?0AEBV?$stream_output_adapter@_W@__crt_stdio_output@@AEB_KAEBQEB_WAEAV__crt_cached_ptd_host@@AEBQEAD@?$format_validation_base@_WV?$stream_output_adapter@_W@__crt_stdio_output@@@__crt_stdio_output@@IEAA@AEBV?$stream_output_adapter@_W@1@AEB_KAEBQEB_WAEAV__crt_cached_ptd_host@@AEBQEAD@Z 0000000180027b48 f i libucrt:output.obj
 0001:00026bdc       ??$?0AEBV?$stream_output_adapter@_W@__crt_stdio_output@@AEB_KAEBQEB_WAEAV__crt_cached_ptd_host@@AEBQEAD@?$positional_parameter_base@_WV?$stream_output_adapter@_W@__crt_stdio_output@@@__crt_stdio_output@@IEAA@AEBV?$stream_output_adapter@_W@1@AEB_KAEBQEB_WAEAV__crt_cached_ptd_host@@AEBQEAD@Z 0000000180027bdc f i libucrt:output.obj
 0001:00026c94       ??$?0AEBV?$stream_output_adapter@_W@__crt_stdio_output@@AEB_KAEBQEB_WAEAV__crt_cached_ptd_host@@AEBQEAD@?$standard_base@_WV?$stream_output_adapter@_W@__crt_stdio_output@@@__crt_stdio_output@@IEAA@AEBV?$stream_output_adapter@_W@1@AEB_KAEBQEB_WAEAV__crt_cached_ptd_host@@AEBQEAD@Z 0000000180027c94 f i libucrt:output.obj
 0001:00026d28       ??$?0AEBV?$string_output_adapter@D@__crt_stdio_output@@AEB_KAEBQEBDAEAV__crt_cached_ptd_host@@AEBQEAD@?$format_validation_base@DV?$string_output_adapter@D@__crt_stdio_output@@@__crt_stdio_output@@IEAA@AEBV?$string_output_adapter@D@1@AEB_KAEBQEBDAEAV__crt_cached_ptd_host@@AEBQEAD@Z 0000000180027d28 f i libucrt:output.obj
 0001:00026db4       ??$?0AEBV?$string_output_adapter@D@__crt_stdio_output@@AEB_KAEBQEBDAEAV__crt_cached_ptd_host@@AEBQEAD@?$positional_parameter_base@DV?$string_output_adapter@D@__crt_stdio_output@@@__crt_stdio_output@@IEAA@AEBV?$string_output_adapter@D@1@AEB_KAEBQEBDAEAV__crt_cached_ptd_host@@AEBQEAD@Z 0000000180027db4 f i libucrt:output.obj
 0001:00026e64       ??$?0AEBV?$string_output_adapter@D@__crt_stdio_output@@AEB_KAEBQEBDAEAV__crt_cached_ptd_host@@AEBQEAD@?$standard_base@DV?$string_output_adapter@D@__crt_stdio_output@@@__crt_stdio_output@@IEAA@AEBV?$string_output_adapter@D@1@AEB_KAEBQEBDAEAV__crt_cached_ptd_host@@AEBQEAD@Z 0000000180027e64 f i libucrt:output.obj
 0001:00026ef0       ??$?0AEBV?$string_output_adapter@_W@__crt_stdio_output@@AEB_KAEBQEB_WAEAV__crt_cached_ptd_host@@AEBQEAD@?$format_validation_base@_WV?$string_output_adapter@_W@__crt_stdio_output@@@__crt_stdio_output@@IEAA@AEBV?$string_output_adapter@_W@1@AEB_KAEBQEB_WAEAV__crt_cached_ptd_host@@AEBQEAD@Z 0000000180027ef0 f i libucrt:output.obj
 0001:00026f84       ??$?0AEBV?$string_output_adapter@_W@__crt_stdio_output@@AEB_KAEBQEB_WAEAV__crt_cached_ptd_host@@AEBQEAD@?$positional_parameter_base@_WV?$string_output_adapter@_W@__crt_stdio_output@@@__crt_stdio_output@@IEAA@AEBV?$string_output_adapter@_W@1@AEB_KAEBQEB_WAEAV__crt_cached_ptd_host@@AEBQEAD@Z 0000000180027f84 f i libucrt:output.obj
 0001:0002703c       ??$?0AEBV?$string_output_adapter@_W@__crt_stdio_output@@AEB_KAEBQEB_WAEAV__crt_cached_ptd_host@@AEBQEAD@?$standard_base@_WV?$string_output_adapter@_W@__crt_stdio_output@@@__crt_stdio_output@@IEAA@AEBV?$string_output_adapter@_W@1@AEB_KAEBQEB_WAEAV__crt_cached_ptd_host@@AEBQEAD@Z 000000018002803c f i libucrt:output.obj
 0001:000273d0       ??$_tcstol_internal@DPEAPEAD$0A@@@YAJAEAV__crt_cached_ptd_host@@QEBDQEAPEADH@Z 00000001800283d0 f i libucrt:output.obj
 0001:0002740c       ??$_tcstol_internal@_WPEAPEA_W$0A@@@YAJAEAV__crt_cached_ptd_host@@QEB_WQEAPEA_WH@Z 000000018002840c f i libucrt:output.obj
 0001:000289a8       ??$count@D@formatting_buffer@__crt_stdio_output@@QEBA_KXZ 00000001800299a8 f i libucrt:output.obj
 0001:000289cc       ??$count@_W@formatting_buffer@__crt_stdio_output@@QEBA_KXZ 00000001800299cc f i libucrt:output.obj
 0001:000289f0       ??$data@D@formatting_buffer@__crt_stdio_output@@QEAAPEADXZ 00000001800299f0 f i libucrt:output.obj
 0001:00028a04       ??$data@_W@formatting_buffer@__crt_stdio_output@@QEAAPEA_WXZ 0000000180029a04 f i libucrt:output.obj
 0001:00028a18       ??$ensure_buffer_is_big_enough@D@formatting_buffer@__crt_stdio_output@@QEAA_N_KAEAV__crt_cached_ptd_host@@@Z 0000000180029a18 f i libucrt:output.obj
 0001:00028aec       ??$ensure_buffer_is_big_enough@_W@formatting_buffer@__crt_stdio_output@@QEAA_N_KAEAV__crt_cached_ptd_host@@@Z 0000000180029aec f i libucrt:output.obj
 0001:00028bc4       ??$extract_argument_from_va_list@C_J@?$positional_parameter_base@DV?$stream_output_adapter@D@__crt_stdio_output@@@__crt_stdio_output@@IEAA_NAEA_J@Z 0000000180029bc4 f i libucrt:output.obj
 0001:00028d10       ??$extract_argument_from_va_list@C_J@?$positional_parameter_base@DV?$string_output_adapter@D@__crt_stdio_output@@@__crt_stdio_output@@IEAA_NAEA_J@Z 0000000180029d10 f i libucrt:output.obj
 0001:00028e5c       ??$extract_argument_from_va_list@C_J@?$positional_parameter_base@_WV?$stream_output_adapter@_W@__crt_stdio_output@@@__crt_stdio_output@@IEAA_NAEA_J@Z 0000000180029e5c f i libucrt:output.obj
 0001:00028fac       ??$extract_argument_from_va_list@C_J@?$positional_parameter_base@_WV?$string_output_adapter@_W@__crt_stdio_output@@@__crt_stdio_output@@IEAA_NAEA_J@Z 0000000180029fac f i libucrt:output.obj
 0001:000290fc       ??$extract_argument_from_va_list@C_J@?$standard_base@DV?$stream_output_adapter@D@__crt_stdio_output@@@__crt_stdio_output@@IEAA_NAEA_J@Z 000000018002a0fc f i libucrt:output.obj
 0001:00029118       ??$extract_argument_from_va_list@C_J@?$standard_base@DV?$string_output_adapter@D@__crt_stdio_output@@@__crt_stdio_output@@IEAA_NAEA_J@Z 000000018002a118 f i libucrt:output.obj
 0001:00029134       ??$extract_argument_from_va_list@C_J@?$standard_base@_WV?$stream_output_adapter@_W@__crt_stdio_output@@@__crt_stdio_output@@IEAA_NAEA_J@Z 000000018002a134 f i libucrt:output.obj
 0001:00029150       ??$extract_argument_from_va_list@C_J@?$standard_base@_WV?$string_output_adapter@_W@__crt_stdio_output@@@__crt_stdio_output@@IEAA_NAEA_J@Z 000000018002a150 f i libucrt:output.obj
 0001:0002916c       ??$extract_argument_from_va_list@E_J@?$positional_parameter_base@DV?$stream_output_adapter@D@__crt_stdio_output@@@__crt_stdio_output@@IEAA_NAEA_J@Z 000000018002a16c f i libucrt:output.obj
 0001:000292b8       ??$extract_argument_from_va_list@E_J@?$positional_parameter_base@DV?$string_output_adapter@D@__crt_stdio_output@@@__crt_stdio_output@@IEAA_NAEA_J@Z 000000018002a2b8 f i libucrt:output.obj
 0001:00029404       ??$extract_argument_from_va_list@E_J@?$positional_parameter_base@_WV?$stream_output_adapter@_W@__crt_stdio_output@@@__crt_stdio_output@@IEAA_NAEA_J@Z 000000018002a404 f i libucrt:output.obj
 0001:00029550       ??$extract_argument_from_va_list@E_J@?$positional_parameter_base@_WV?$string_output_adapter@_W@__crt_stdio_output@@@__crt_stdio_output@@IEAA_NAEA_J@Z 000000018002a550 f i libucrt:output.obj
 0001:0002969c       ??$extract_argument_from_va_list@E_J@?$standard_base@DV?$stream_output_adapter@D@__crt_stdio_output@@@__crt_stdio_output@@IEAA_NAEA_J@Z 000000018002a69c f i libucrt:output.obj
 0001:000296b8       ??$extract_argument_from_va_list@E_J@?$standard_base@DV?$string_output_adapter@D@__crt_stdio_output@@@__crt_stdio_output@@IEAA_NAEA_J@Z 000000018002a6b8 f i libucrt:output.obj
 0001:000296d4       ??$extract_argument_from_va_list@E_J@?$standard_base@_WV?$stream_output_adapter@_W@__crt_stdio_output@@@__crt_stdio_output@@IEAA_NAEA_J@Z 000000018002a6d4 f i libucrt:output.obj
 0001:000296f0       ??$extract_argument_from_va_list@E_J@?$standard_base@_WV?$string_output_adapter@_W@__crt_stdio_output@@@__crt_stdio_output@@IEAA_NAEA_J@Z 000000018002a6f0 f i libucrt:output.obj
 0001:0002970c       ??$extract_argument_from_va_list@F_J@?$positional_parameter_base@DV?$stream_output_adapter@D@__crt_stdio_output@@@__crt_stdio_output@@IEAA_NAEA_J@Z 000000018002a70c f i libucrt:output.obj
 0001:00029858       ??$extract_argument_from_va_list@F_J@?$positional_parameter_base@DV?$string_output_adapter@D@__crt_stdio_output@@@__crt_stdio_output@@IEAA_NAEA_J@Z 000000018002a858 f i libucrt:output.obj
 0001:000299a4       ??$extract_argument_from_va_list@F_J@?$positional_parameter_base@_WV?$stream_output_adapter@_W@__crt_stdio_output@@@__crt_stdio_output@@IEAA_NAEA_J@Z 000000018002a9a4 f i libucrt:output.obj
 0001:00029af4       ??$extract_argument_from_va_list@F_J@?$positional_parameter_base@_WV?$string_output_adapter@_W@__crt_stdio_output@@@__crt_stdio_output@@IEAA_NAEA_J@Z 000000018002aaf4 f i libucrt:output.obj
 0001:00029c44       ??$extract_argument_from_va_list@F_J@?$standard_base@DV?$stream_output_adapter@D@__crt_stdio_output@@@__crt_stdio_output@@IEAA_NAEA_J@Z 000000018002ac44 f i libucrt:output.obj
 0001:00029c60       ??$extract_argument_from_va_list@F_J@?$standard_base@DV?$string_output_adapter@D@__crt_stdio_output@@@__crt_stdio_output@@IEAA_NAEA_J@Z 000000018002ac60 f i libucrt:output.obj
 0001:00029c7c       ??$extract_argument_from_va_list@F_J@?$standard_base@_WV?$stream_output_adapter@_W@__crt_stdio_output@@@__crt_stdio_output@@IEAA_NAEA_J@Z 000000018002ac7c f i libucrt:output.obj
 0001:00029c98       ??$extract_argument_from_va_list@F_J@?$standard_base@_WV?$string_output_adapter@_W@__crt_stdio_output@@@__crt_stdio_output@@IEAA_NAEA_J@Z 000000018002ac98 f i libucrt:output.obj
 0001:00029cb4       ??$extract_argument_from_va_list@GD@?$positional_parameter_base@DV?$stream_output_adapter@D@__crt_stdio_output@@@__crt_stdio_output@@IEAA_NAEAD@Z 000000018002acb4 f i libucrt:output.obj
 0001:00029df8       ??$extract_argument_from_va_list@GD@?$positional_parameter_base@DV?$string_output_adapter@D@__crt_stdio_output@@@__crt_stdio_output@@IEAA_NAEAD@Z 000000018002adf8 f i libucrt:output.obj
 0001:00029f3c       ??$extract_argument_from_va_list@GD@?$standard_base@DV?$stream_output_adapter@D@__crt_stdio_output@@@__crt_stdio_output@@IEAA_NAEAD@Z 000000018002af3c f i libucrt:output.obj
 0001:00029f58       ??$extract_argument_from_va_list@GD@?$standard_base@DV?$string_output_adapter@D@__crt_stdio_output@@@__crt_stdio_output@@IEAA_NAEAD@Z 000000018002af58 f i libucrt:output.obj
 0001:00029f74       ??$extract_argument_from_va_list@G_J@?$positional_parameter_base@DV?$stream_output_adapter@D@__crt_stdio_output@@@__crt_stdio_output@@IEAA_NAEA_J@Z 000000018002af74 f i libucrt:output.obj
 0001:0002a0c0       ??$extract_argument_from_va_list@G_J@?$positional_parameter_base@DV?$string_output_adapter@D@__crt_stdio_output@@@__crt_stdio_output@@IEAA_NAEA_J@Z 000000018002b0c0 f i libucrt:output.obj
 0001:0002a20c       ??$extract_argument_from_va_list@G_J@?$positional_parameter_base@_WV?$stream_output_adapter@_W@__crt_stdio_output@@@__crt_stdio_output@@IEAA_NAEA_J@Z 000000018002b20c f i libucrt:output.obj
 0001:0002a358       ??$extract_argument_from_va_list@G_J@?$positional_parameter_base@_WV?$string_output_adapter@_W@__crt_stdio_output@@@__crt_stdio_output@@IEAA_NAEA_J@Z 000000018002b358 f i libucrt:output.obj
 0001:0002a4a4       ??$extract_argument_from_va_list@G_J@?$standard_base@DV?$stream_output_adapter@D@__crt_stdio_output@@@__crt_stdio_output@@IEAA_NAEA_J@Z 000000018002b4a4 f i libucrt:output.obj
 0001:0002a4c0       ??$extract_argument_from_va_list@G_J@?$standard_base@DV?$string_output_adapter@D@__crt_stdio_output@@@__crt_stdio_output@@IEAA_NAEA_J@Z 000000018002b4c0 f i libucrt:output.obj
 0001:0002a4dc       ??$extract_argument_from_va_list@G_J@?$standard_base@_WV?$stream_output_adapter@_W@__crt_stdio_output@@@__crt_stdio_output@@IEAA_NAEA_J@Z 000000018002b4dc f i libucrt:output.obj
 0001:0002a4f8       ??$extract_argument_from_va_list@G_J@?$standard_base@_WV?$string_output_adapter@_W@__crt_stdio_output@@@__crt_stdio_output@@IEAA_NAEA_J@Z 000000018002b4f8 f i libucrt:output.obj
 0001:0002a514       ??$extract_argument_from_va_list@H_J@?$positional_parameter_base@DV?$stream_output_adapter@D@__crt_stdio_output@@@__crt_stdio_output@@IEAA_NAEA_J@Z 000000018002b514 f i libucrt:output.obj
 0001:0002a65c       ??$extract_argument_from_va_list@H_J@?$positional_parameter_base@DV?$string_output_adapter@D@__crt_stdio_output@@@__crt_stdio_output@@IEAA_NAEA_J@Z 000000018002b65c f i libucrt:output.obj
 0001:0002a7a4       ??$extract_argument_from_va_list@H_J@?$positional_parameter_base@_WV?$stream_output_adapter@_W@__crt_stdio_output@@@__crt_stdio_output@@IEAA_NAEA_J@Z 000000018002b7a4 f i libucrt:output.obj
 0001:0002a8f0       ??$extract_argument_from_va_list@H_J@?$positional_parameter_base@_WV?$string_output_adapter@_W@__crt_stdio_output@@@__crt_stdio_output@@IEAA_NAEA_J@Z 000000018002b8f0 f i libucrt:output.obj
 0001:0002aa3c       ??$extract_argument_from_va_list@H_J@?$standard_base@DV?$stream_output_adapter@D@__crt_stdio_output@@@__crt_stdio_output@@IEAA_NAEA_J@Z 000000018002ba3c f i libucrt:output.obj
 0001:0002aa58       ??$extract_argument_from_va_list@H_J@?$standard_base@DV?$string_output_adapter@D@__crt_stdio_output@@@__crt_stdio_output@@IEAA_NAEA_J@Z 000000018002ba58 f i libucrt:output.obj
 0001:0002aa74       ??$extract_argument_from_va_list@H_J@?$standard_base@_WV?$stream_output_adapter@_W@__crt_stdio_output@@@__crt_stdio_output@@IEAA_NAEA_J@Z 000000018002ba74 f i libucrt:output.obj
 0001:0002aa90       ??$extract_argument_from_va_list@H_J@?$standard_base@_WV?$string_output_adapter@_W@__crt_stdio_output@@@__crt_stdio_output@@IEAA_NAEA_J@Z 000000018002ba90 f i libucrt:output.obj
 0001:0002aaac       ??$extract_argument_from_va_list@I_J@?$positional_parameter_base@DV?$stream_output_adapter@D@__crt_stdio_output@@@__crt_stdio_output@@IEAA_NAEA_J@Z 000000018002baac f i libucrt:output.obj
 0001:0002abf4       ??$extract_argument_from_va_list@I_J@?$positional_parameter_base@DV?$string_output_adapter@D@__crt_stdio_output@@@__crt_stdio_output@@IEAA_NAEA_J@Z 000000018002bbf4 f i libucrt:output.obj
 0001:0002ad3c       ??$extract_argument_from_va_list@I_J@?$positional_parameter_base@_WV?$stream_output_adapter@_W@__crt_stdio_output@@@__crt_stdio_output@@IEAA_NAEA_J@Z 000000018002bd3c f i libucrt:output.obj
 0001:0002ae88       ??$extract_argument_from_va_list@I_J@?$positional_parameter_base@_WV?$string_output_adapter@_W@__crt_stdio_output@@@__crt_stdio_output@@IEAA_NAEA_J@Z 000000018002be88 f i libucrt:output.obj
 0001:0002afd4       ??$extract_argument_from_va_list@I_J@?$standard_base@DV?$stream_output_adapter@D@__crt_stdio_output@@@__crt_stdio_output@@IEAA_NAEA_J@Z 000000018002bfd4 f i libucrt:output.obj
 0001:0002aff0       ??$extract_argument_from_va_list@I_J@?$standard_base@DV?$string_output_adapter@D@__crt_stdio_output@@@__crt_stdio_output@@IEAA_NAEA_J@Z 000000018002bff0 f i libucrt:output.obj
 0001:0002b00c       ??$extract_argument_from_va_list@I_J@?$standard_base@_WV?$stream_output_adapter@_W@__crt_stdio_output@@@__crt_stdio_output@@IEAA_NAEA_J@Z 000000018002c00c f i libucrt:output.obj
 0001:0002b028       ??$extract_argument_from_va_list@I_J@?$standard_base@_WV?$string_output_adapter@_W@__crt_stdio_output@@@__crt_stdio_output@@IEAA_NAEA_J@Z 000000018002c028 f i libucrt:output.obj
 0001:0002b044       ??$extract_argument_from_va_list@PEADPEAD@?$positional_parameter_base@DV?$stream_output_adapter@D@__crt_stdio_output@@@__crt_stdio_output@@IEAA_NAEAPEAD@Z 000000018002c044 f i libucrt:output.obj
 0001:0002b18c       ??$extract_argument_from_va_list@PEADPEAD@?$positional_parameter_base@DV?$string_output_adapter@D@__crt_stdio_output@@@__crt_stdio_output@@IEAA_NAEAPEAD@Z 000000018002c18c f i libucrt:output.obj
 0001:0002b2d4       ??$extract_argument_from_va_list@PEADPEAD@?$positional_parameter_base@_WV?$stream_output_adapter@_W@__crt_stdio_output@@@__crt_stdio_output@@IEAA_NAEAPEAD@Z 000000018002c2d4 f i libucrt:output.obj
 0001:0002b420       ??$extract_argument_from_va_list@PEADPEAD@?$positional_parameter_base@_WV?$string_output_adapter@_W@__crt_stdio_output@@@__crt_stdio_output@@IEAA_NAEAPEAD@Z 000000018002c420 f i libucrt:output.obj
 0001:0002b56c       ??$extract_argument_from_va_list@PEADPEAD@?$standard_base@DV?$stream_output_adapter@D@__crt_stdio_output@@@__crt_stdio_output@@IEAA_NAEAPEAD@Z 000000018002c56c f i libucrt:output.obj
 0001:0002b588       ??$extract_argument_from_va_list@PEADPEAD@?$standard_base@DV?$string_output_adapter@D@__crt_stdio_output@@@__crt_stdio_output@@IEAA_NAEAPEAD@Z 000000018002c588 f i libucrt:output.obj
 0001:0002b5a4       ??$extract_argument_from_va_list@PEADPEAD@?$standard_base@_WV?$stream_output_adapter@_W@__crt_stdio_output@@@__crt_stdio_output@@IEAA_NAEAPEAD@Z 000000018002c5a4 f i libucrt:output.obj
 0001:0002b5c0       ??$extract_argument_from_va_list@PEADPEAD@?$standard_base@_WV?$string_output_adapter@_W@__crt_stdio_output@@@__crt_stdio_output@@IEAA_NAEAPEAD@Z 000000018002c5c0 f i libucrt:output.obj
 0001:0002b5dc       ??$extract_argument_from_va_list@PEAUansi_string@?1??type_case_Z@?$output_processor@DV?$stream_output_adapter@D@__crt_stdio_output@@V?$format_validation_base@DV?$stream_output_adapter@D@__crt_stdio_output@@@2@@__crt_stdio_output@@AEAA_NXZ@PEAU1?1??234@AEAA_NXZ@@?$standard_base@DV?$stream_output_adapter@D@__crt_stdio_output@@@__crt_stdio_output@@IEAA_NAEAPEAUansi_string@?1??type_case_Z@?$output_processor@DV?$stream_output_adapter@D@__crt_stdio_output@@V?$format_validation_base@DV?$stream_output_adapter@D@__crt_stdio_output@@@2@@1@AEAA_NXZ@@Z 000000018002c5dc f i libucrt:output.obj
 0001:0002b5f8       ??$extract_argument_from_va_list@PEAUansi_string@?1??type_case_Z@?$output_processor@DV?$stream_output_adapter@D@__crt_stdio_output@@V?$positional_parameter_base@DV?$stream_output_adapter@D@__crt_stdio_output@@@2@@__crt_stdio_output@@AEAA_NXZ@PEAU1?1??234@AEAA_NXZ@@?$positional_parameter_base@DV?$stream_output_adapter@D@__crt_stdio_output@@@__crt_stdio_output@@IEAA_NAEAPEAUansi_string@?1??type_case_Z@?$output_processor@DV?$stream_output_adapter@D@__crt_stdio_output@@V?$positional_parameter_base@DV?$stream_output_adapter@D@__crt_stdio_output@@@2@@1@AEAA_NXZ@@Z 000000018002c5f8 f i libucrt:output.obj
 0001:0002b740       ??$extract_argument_from_va_list@PEAUansi_string@?1??type_case_Z@?$output_processor@DV?$stream_output_adapter@D@__crt_stdio_output@@V?$positional_parameter_base@DV?$stream_output_adapter@D@__crt_stdio_output@@@2@@__crt_stdio_output@@AEAA_NXZ@PEAU1?1??234@AEAA_NXZ@@?$standard_base@DV?$stream_output_adapter@D@__crt_stdio_output@@@__crt_stdio_output@@IEAA_NAEAPEAUansi_string@?1??type_case_Z@?$output_processor@DV?$stream_output_adapter@D@__crt_stdio_output@@V?$positional_parameter_base@DV?$stream_output_adapter@D@__crt_stdio_output@@@2@@1@AEAA_NXZ@@Z 000000018002c740 f i libucrt:output.obj
 0001:0002b75c       ??$extract_argument_from_va_list@PEAUansi_string@?1??type_case_Z@?$output_processor@DV?$stream_output_adapter@D@__crt_stdio_output@@V?$standard_base@DV?$stream_output_adapter@D@__crt_stdio_output@@@2@@__crt_stdio_output@@AEAA_NXZ@PEAU1?1??234@AEAA_NXZ@@?$standard_base@DV?$stream_output_adapter@D@__crt_stdio_output@@@__crt_stdio_output@@IEAA_NAEAPEAUansi_string@?1??type_case_Z@?$output_processor@DV?$stream_output_adapter@D@__crt_stdio_output@@V?$standard_base@DV?$stream_output_adapter@D@__crt_stdio_output@@@2@@1@AEAA_NXZ@@Z 000000018002c75c f i libucrt:output.obj
 0001:0002b778       ??$extract_argument_from_va_list@PEAUansi_string@?1??type_case_Z@?$output_processor@DV?$string_output_adapter@D@__crt_stdio_output@@V?$format_validation_base@DV?$string_output_adapter@D@__crt_stdio_output@@@2@@__crt_stdio_output@@AEAA_NXZ@PEAU1?1??234@AEAA_NXZ@@?$standard_base@DV?$string_output_adapter@D@__crt_stdio_output@@@__crt_stdio_output@@IEAA_NAEAPEAUansi_string@?1??type_case_Z@?$output_processor@DV?$string_output_adapter@D@__crt_stdio_output@@V?$format_validation_base@DV?$string_output_adapter@D@__crt_stdio_output@@@2@@1@AEAA_NXZ@@Z 000000018002c778 f i libucrt:output.obj
 0001:0002b794       ??$extract_argument_from_va_list@PEAUansi_string@?1??type_case_Z@?$output_processor@DV?$string_output_adapter@D@__crt_stdio_output@@V?$positional_parameter_base@DV?$string_output_adapter@D@__crt_stdio_output@@@2@@__crt_stdio_output@@AEAA_NXZ@PEAU1?1??234@AEAA_NXZ@@?$positional_parameter_base@DV?$string_output_adapter@D@__crt_stdio_output@@@__crt_stdio_output@@IEAA_NAEAPEAUansi_string@?1??type_case_Z@?$output_processor@DV?$string_output_adapter@D@__crt_stdio_output@@V?$positional_parameter_base@DV?$string_output_adapter@D@__crt_stdio_output@@@2@@1@AEAA_NXZ@@Z 000000018002c794 f i libucrt:output.obj
 0001:0002b8dc       ??$extract_argument_from_va_list@PEAUansi_string@?1??type_case_Z@?$output_processor@DV?$string_output_adapter@D@__crt_stdio_output@@V?$positional_parameter_base@DV?$string_output_adapter@D@__crt_stdio_output@@@2@@__crt_stdio_output@@AEAA_NXZ@PEAU1?1??234@AEAA_NXZ@@?$standard_base@DV?$string_output_adapter@D@__crt_stdio_output@@@__crt_stdio_output@@IEAA_NAEAPEAUansi_string@?1??type_case_Z@?$output_processor@DV?$string_output_adapter@D@__crt_stdio_output@@V?$positional_parameter_base@DV?$string_output_adapter@D@__crt_stdio_output@@@2@@1@AEAA_NXZ@@Z 000000018002c8dc f i libucrt:output.obj
 0001:0002b8f8       ??$extract_argument_from_va_list@PEAUansi_string@?1??type_case_Z@?$output_processor@DV?$string_output_adapter@D@__crt_stdio_output@@V?$standard_base@DV?$string_output_adapter@D@__crt_stdio_output@@@2@@__crt_stdio_output@@AEAA_NXZ@PEAU1?1??234@AEAA_NXZ@@?$standard_base@DV?$string_output_adapter@D@__crt_stdio_output@@@__crt_stdio_output@@IEAA_NAEAPEAUansi_string@?1??type_case_Z@?$output_processor@DV?$string_output_adapter@D@__crt_stdio_output@@V?$standard_base@DV?$string_output_adapter@D@__crt_stdio_output@@@2@@1@AEAA_NXZ@@Z 000000018002c8f8 f i libucrt:output.obj
 0001:0002b914       ??$extract_argument_from_va_list@PEAUansi_string@?1??type_case_Z@?$output_processor@_WV?$stream_output_adapter@_W@__crt_stdio_output@@V?$format_validation_base@_WV?$stream_output_adapter@_W@__crt_stdio_output@@@2@@__crt_stdio_output@@AEAA_NXZ@PEAU1?1??234@AEAA_NXZ@@?$standard_base@_WV?$stream_output_adapter@_W@__crt_stdio_output@@@__crt_stdio_output@@IEAA_NAEAPEAUansi_string@?1??type_case_Z@?$output_processor@_WV?$stream_output_adapter@_W@__crt_stdio_output@@V?$format_validation_base@_WV?$stream_output_adapter@_W@__crt_stdio_output@@@2@@1@AEAA_NXZ@@Z 000000018002c914 f i libucrt:output.obj
 0001:0002b930       ??$extract_argument_from_va_list@PEAUansi_string@?1??type_case_Z@?$output_processor@_WV?$stream_output_adapter@_W@__crt_stdio_output@@V?$positional_parameter_base@_WV?$stream_output_adapter@_W@__crt_stdio_output@@@2@@__crt_stdio_output@@AEAA_NXZ@PEAU1?1??234@AEAA_NXZ@@?$positional_parameter_base@_WV?$stream_output_adapter@_W@__crt_stdio_output@@@__crt_stdio_output@@IEAA_NAEAPEAUansi_string@?1??type_case_Z@?$output_processor@_WV?$stream_output_adapter@_W@__crt_stdio_output@@V?$positional_parameter_base@_WV?$stream_output_adapter@_W@__crt_stdio_output@@@2@@1@AEAA_NXZ@@Z 000000018002c930 f i libucrt:output.obj
 0001:0002ba7c       ??$extract_argument_from_va_list@PEAUansi_string@?1??type_case_Z@?$output_processor@_WV?$stream_output_adapter@_W@__crt_stdio_output@@V?$positional_parameter_base@_WV?$stream_output_adapter@_W@__crt_stdio_output@@@2@@__crt_stdio_output@@AEAA_NXZ@PEAU1?1??234@AEAA_NXZ@@?$standard_base@_WV?$stream_output_adapter@_W@__crt_stdio_output@@@__crt_stdio_output@@IEAA_NAEAPEAUansi_string@?1??type_case_Z@?$output_processor@_WV?$stream_output_adapter@_W@__crt_stdio_output@@V?$positional_parameter_base@_WV?$stream_output_adapter@_W@__crt_stdio_output@@@2@@1@AEAA_NXZ@@Z 000000018002ca7c f i libucrt:output.obj
 0001:0002ba98       ??$extract_argument_from_va_list@PEAUansi_string@?1??type_case_Z@?$output_processor@_WV?$stream_output_adapter@_W@__crt_stdio_output@@V?$standard_base@_WV?$stream_output_adapter@_W@__crt_stdio_output@@@2@@__crt_stdio_output@@AEAA_NXZ@PEAU1?1??234@AEAA_NXZ@@?$standard_base@_WV?$stream_output_adapter@_W@__crt_stdio_output@@@__crt_stdio_output@@IEAA_NAEAPEAUansi_string@?1??type_case_Z@?$output_processor@_WV?$stream_output_adapter@_W@__crt_stdio_output@@V?$standard_base@_WV?$stream_output_adapter@_W@__crt_stdio_output@@@2@@1@AEAA_NXZ@@Z 000000018002ca98 f i libucrt:output.obj
 0001:0002bab4       ??$extract_argument_from_va_list@PEAUansi_string@?1??type_case_Z@?$output_processor@_WV?$string_output_adapter@_W@__crt_stdio_output@@V?$format_validation_base@_WV?$string_output_adapter@_W@__crt_stdio_output@@@2@@__crt_stdio_output@@AEAA_NXZ@PEAU1?1??234@AEAA_NXZ@@?$standard_base@_WV?$string_output_adapter@_W@__crt_stdio_output@@@__crt_stdio_output@@IEAA_NAEAPEAUansi_string@?1??type_case_Z@?$output_processor@_WV?$string_output_adapter@_W@__crt_stdio_output@@V?$format_validation_base@_WV?$string_output_adapter@_W@__crt_stdio_output@@@2@@1@AEAA_NXZ@@Z 000000018002cab4 f i libucrt:output.obj
 0001:0002bad0       ??$extract_argument_from_va_list@PEAUansi_string@?1??type_case_Z@?$output_processor@_WV?$string_output_adapter@_W@__crt_stdio_output@@V?$positional_parameter_base@_WV?$string_output_adapter@_W@__crt_stdio_output@@@2@@__crt_stdio_output@@AEAA_NXZ@PEAU1?1??234@AEAA_NXZ@@?$positional_parameter_base@_WV?$string_output_adapter@_W@__crt_stdio_output@@@__crt_stdio_output@@IEAA_NAEAPEAUansi_string@?1??type_case_Z@?$output_processor@_WV?$string_output_adapter@_W@__crt_stdio_output@@V?$positional_parameter_base@_WV?$string_output_adapter@_W@__crt_stdio_output@@@2@@1@AEAA_NXZ@@Z 000000018002cad0 f i libucrt:output.obj
 0001:0002bc1c       ??$extract_argument_from_va_list@PEAUansi_string@?1??type_case_Z@?$output_processor@_WV?$string_output_adapter@_W@__crt_stdio_output@@V?$positional_parameter_base@_WV?$string_output_adapter@_W@__crt_stdio_output@@@2@@__crt_stdio_output@@AEAA_NXZ@PEAU1?1??234@AEAA_NXZ@@?$standard_base@_WV?$string_output_adapter@_W@__crt_stdio_output@@@__crt_stdio_output@@IEAA_NAEAPEAUansi_string@?1??type_case_Z@?$output_processor@_WV?$string_output_adapter@_W@__crt_stdio_output@@V?$positional_parameter_base@_WV?$string_output_adapter@_W@__crt_stdio_output@@@2@@1@AEAA_NXZ@@Z 000000018002cc1c f i libucrt:output.obj
 0001:0002bc38       ??$extract_argument_from_va_list@PEAUansi_string@?1??type_case_Z@?$output_processor@_WV?$string_output_adapter@_W@__crt_stdio_output@@V?$standard_base@_WV?$string_output_adapter@_W@__crt_stdio_output@@@2@@__crt_stdio_output@@AEAA_NXZ@PEAU1?1??234@AEAA_NXZ@@?$standard_base@_WV?$string_output_adapter@_W@__crt_stdio_output@@@__crt_stdio_output@@IEAA_NAEAPEAUansi_string@?1??type_case_Z@?$output_processor@_WV?$string_output_adapter@_W@__crt_stdio_output@@V?$standard_base@_WV?$string_output_adapter@_W@__crt_stdio_output@@@2@@1@AEAA_NXZ@@Z 000000018002cc38 f i libucrt:output.obj
 0001:0002bc54       ??$extract_argument_from_va_list@PEAXPEAX@?$positional_parameter_base@DV?$stream_output_adapter@D@__crt_stdio_output@@@__crt_stdio_output@@IEAA_NAEAPEAX@Z 000000018002cc54 f i libucrt:output.obj
 0001:0002bd9c       ??$extract_argument_from_va_list@PEAXPEAX@?$positional_parameter_base@DV?$string_output_adapter@D@__crt_stdio_output@@@__crt_stdio_output@@IEAA_NAEAPEAX@Z 000000018002cd9c f i libucrt:output.obj
 0001:0002bee4       ??$extract_argument_from_va_list@PEAXPEAX@?$positional_parameter_base@_WV?$stream_output_adapter@_W@__crt_stdio_output@@@__crt_stdio_output@@IEAA_NAEAPEAX@Z 000000018002cee4 f i libucrt:output.obj
 0001:0002c030       ??$extract_argument_from_va_list@PEAXPEAX@?$positional_parameter_base@_WV?$string_output_adapter@_W@__crt_stdio_output@@@__crt_stdio_output@@IEAA_NAEAPEAX@Z 000000018002d030 f i libucrt:output.obj
 0001:0002c17c       ??$extract_argument_from_va_list@PEAXPEAX@?$standard_base@DV?$stream_output_adapter@D@__crt_stdio_output@@@__crt_stdio_output@@IEAA_NAEAPEAX@Z 000000018002d17c f i libucrt:output.obj
 0001:0002c198       ??$extract_argument_from_va_list@PEAXPEAX@?$standard_base@DV?$string_output_adapter@D@__crt_stdio_output@@@__crt_stdio_output@@IEAA_NAEAPEAX@Z 000000018002d198 f i libucrt:output.obj
 0001:0002c1b4       ??$extract_argument_from_va_list@PEAXPEAX@?$standard_base@_WV?$stream_output_adapter@_W@__crt_stdio_output@@@__crt_stdio_output@@IEAA_NAEAPEAX@Z 000000018002d1b4 f i libucrt:output.obj
 0001:0002c1d0       ??$extract_argument_from_va_list@PEAXPEAX@?$standard_base@_WV?$string_output_adapter@_W@__crt_stdio_output@@@__crt_stdio_output@@IEAA_NAEAPEAX@Z 000000018002d1d0 f i libucrt:output.obj
 0001:0002c1ec       ??$extract_argument_from_va_list@U_CRT_DOUBLE@@U1@@?$positional_parameter_base@DV?$stream_output_adapter@D@__crt_stdio_output@@@__crt_stdio_output@@IEAA_NAEAU_CRT_DOUBLE@@@Z 000000018002d1ec f i libucrt:output.obj
 0001:0002c338       ??$extract_argument_from_va_list@U_CRT_DOUBLE@@U1@@?$positional_parameter_base@DV?$string_output_adapter@D@__crt_stdio_output@@@__crt_stdio_output@@IEAA_NAEAU_CRT_DOUBLE@@@Z 000000018002d338 f i libucrt:output.obj
 0001:0002c484       ??$extract_argument_from_va_list@U_CRT_DOUBLE@@U1@@?$positional_parameter_base@_WV?$stream_output_adapter@_W@__crt_stdio_output@@@__crt_stdio_output@@IEAA_NAEAU_CRT_DOUBLE@@@Z 000000018002d484 f i libucrt:output.obj
 0001:0002c5d0       ??$extract_argument_from_va_list@U_CRT_DOUBLE@@U1@@?$positional_parameter_base@_WV?$string_output_adapter@_W@__crt_stdio_output@@@__crt_stdio_output@@IEAA_NAEAU_CRT_DOUBLE@@@Z 000000018002d5d0 f i libucrt:output.obj
 0001:0002c71c       ??$extract_argument_from_va_list@U_CRT_DOUBLE@@U1@@?$standard_base@DV?$stream_output_adapter@D@__crt_stdio_output@@@__crt_stdio_output@@IEAA_NAEAU_CRT_DOUBLE@@@Z 000000018002d71c f i libucrt:output.obj
 0001:0002c73c       ??$extract_argument_from_va_list@U_CRT_DOUBLE@@U1@@?$standard_base@DV?$string_output_adapter@D@__crt_stdio_output@@@__crt_stdio_output@@IEAA_NAEAU_CRT_DOUBLE@@@Z 000000018002d73c f i libucrt:output.obj
 0001:0002c75c       ??$extract_argument_from_va_list@U_CRT_DOUBLE@@U1@@?$standard_base@_WV?$stream_output_adapter@_W@__crt_stdio_output@@@__crt_stdio_output@@IEAA_NAEAU_CRT_DOUBLE@@@Z 000000018002d75c f i libucrt:output.obj
 0001:0002c77c       ??$extract_argument_from_va_list@U_CRT_DOUBLE@@U1@@?$standard_base@_WV?$string_output_adapter@_W@__crt_stdio_output@@@__crt_stdio_output@@IEAA_NAEAU_CRT_DOUBLE@@@Z 000000018002d77c f i libucrt:output.obj
 0001:0002c79c       ??$extract_argument_from_va_list@_J_J@?$positional_parameter_base@DV?$stream_output_adapter@D@__crt_stdio_output@@@__crt_stdio_output@@IEAA_NAEA_J@Z 000000018002d79c f i libucrt:output.obj
 0001:0002c8e4       ??$extract_argument_from_va_list@_J_J@?$positional_parameter_base@DV?$string_output_adapter@D@__crt_stdio_output@@@__crt_stdio_output@@IEAA_NAEA_J@Z 000000018002d8e4 f i libucrt:output.obj
 0001:0002ca2c       ??$extract_argument_from_va_list@_J_J@?$positional_parameter_base@_WV?$stream_output_adapter@_W@__crt_stdio_output@@@__crt_stdio_output@@IEAA_NAEA_J@Z 000000018002da2c f i libucrt:output.obj
 0001:0002cb78       ??$extract_argument_from_va_list@_J_J@?$positional_parameter_base@_WV?$string_output_adapter@_W@__crt_stdio_output@@@__crt_stdio_output@@IEAA_NAEA_J@Z 000000018002db78 f i libucrt:output.obj
 0001:0002ccc4       ??$extract_argument_from_va_list@_J_J@?$standard_base@DV?$stream_output_adapter@D@__crt_stdio_output@@@__crt_stdio_output@@IEAA_NAEA_J@Z 000000018002dcc4 f i libucrt:output.obj
 0001:0002cce0       ??$extract_argument_from_va_list@_J_J@?$standard_base@DV?$string_output_adapter@D@__crt_stdio_output@@@__crt_stdio_output@@IEAA_NAEA_J@Z 000000018002dce0 f i libucrt:output.obj
 0001:0002ccfc       ??$extract_argument_from_va_list@_J_J@?$standard_base@_WV?$stream_output_adapter@_W@__crt_stdio_output@@@__crt_stdio_output@@IEAA_NAEA_J@Z 000000018002dcfc f i libucrt:output.obj
 0001:0002cd18       ??$extract_argument_from_va_list@_J_J@?$standard_base@_WV?$string_output_adapter@_W@__crt_stdio_output@@@__crt_stdio_output@@IEAA_NAEA_J@Z 000000018002dd18 f i libucrt:output.obj
 0001:0002cd34       ??$extract_argument_from_va_list@_K_J@?$positional_parameter_base@DV?$stream_output_adapter@D@__crt_stdio_output@@@__crt_stdio_output@@IEAA_NAEA_J@Z 000000018002dd34 f i libucrt:output.obj
 0001:0002ce7c       ??$extract_argument_from_va_list@_K_J@?$positional_parameter_base@DV?$string_output_adapter@D@__crt_stdio_output@@@__crt_stdio_output@@IEAA_NAEA_J@Z 000000018002de7c f i libucrt:output.obj
 0001:0002cfc4       ??$extract_argument_from_va_list@_K_J@?$positional_parameter_base@_WV?$stream_output_adapter@_W@__crt_stdio_output@@@__crt_stdio_output@@IEAA_NAEA_J@Z 000000018002dfc4 f i libucrt:output.obj
 0001:0002d110       ??$extract_argument_from_va_list@_K_J@?$positional_parameter_base@_WV?$string_output_adapter@_W@__crt_stdio_output@@@__crt_stdio_output@@IEAA_NAEA_J@Z 000000018002e110 f i libucrt:output.obj
 0001:0002d25c       ??$extract_argument_from_va_list@_K_J@?$standard_base@DV?$stream_output_adapter@D@__crt_stdio_output@@@__crt_stdio_output@@IEAA_NAEA_J@Z 000000018002e25c f i libucrt:output.obj
 0001:0002d278       ??$extract_argument_from_va_list@_K_J@?$standard_base@DV?$string_output_adapter@D@__crt_stdio_output@@@__crt_stdio_output@@IEAA_NAEA_J@Z 000000018002e278 f i libucrt:output.obj
 0001:0002d294       ??$extract_argument_from_va_list@_K_J@?$standard_base@_WV?$stream_output_adapter@_W@__crt_stdio_output@@@__crt_stdio_output@@IEAA_NAEA_J@Z 000000018002e294 f i libucrt:output.obj
 0001:0002d2b0       ??$extract_argument_from_va_list@_K_J@?$standard_base@_WV?$string_output_adapter@_W@__crt_stdio_output@@@__crt_stdio_output@@IEAA_NAEA_J@Z 000000018002e2b0 f i libucrt:output.obj
 0001:0002d2cc       ??$extract_argument_from_va_list@_W_W@?$positional_parameter_base@DV?$stream_output_adapter@D@__crt_stdio_output@@@__crt_stdio_output@@IEAA_NAEA_W@Z 000000018002e2cc f i libucrt:output.obj
 0001:0002d414       ??$extract_argument_from_va_list@_W_W@?$positional_parameter_base@DV?$string_output_adapter@D@__crt_stdio_output@@@__crt_stdio_output@@IEAA_NAEA_W@Z 000000018002e414 f i libucrt:output.obj
 0001:0002d55c       ??$extract_argument_from_va_list@_W_W@?$positional_parameter_base@_WV?$stream_output_adapter@_W@__crt_stdio_output@@@__crt_stdio_output@@IEAA_NAEA_W@Z 000000018002e55c f i libucrt:output.obj
 0001:0002d6a8       ??$extract_argument_from_va_list@_W_W@?$positional_parameter_base@_WV?$string_output_adapter@_W@__crt_stdio_output@@@__crt_stdio_output@@IEAA_NAEA_W@Z 000000018002e6a8 f i libucrt:output.obj
 0001:0002d7f4       ??$extract_argument_from_va_list@_W_W@?$standard_base@DV?$stream_output_adapter@D@__crt_stdio_output@@@__crt_stdio_output@@IEAA_NAEA_W@Z 000000018002e7f4 f i libucrt:output.obj
 0001:0002d810       ??$extract_argument_from_va_list@_W_W@?$standard_base@DV?$string_output_adapter@D@__crt_stdio_output@@@__crt_stdio_output@@IEAA_NAEA_W@Z 000000018002e810 f i libucrt:output.obj
 0001:0002d82c       ??$extract_argument_from_va_list@_W_W@?$standard_base@_WV?$stream_output_adapter@_W@__crt_stdio_output@@@__crt_stdio_output@@IEAA_NAEA_W@Z 000000018002e82c f i libucrt:output.obj
 0001:0002d848       ??$extract_argument_from_va_list@_W_W@?$standard_base@_WV?$string_output_adapter@_W@__crt_stdio_output@@@__crt_stdio_output@@IEAA_NAEA_W@Z 000000018002e848 f i libucrt:output.obj
 0001:0002d864       ??$get_parameter_type@D@?$positional_parameter_base@DV?$stream_output_adapter@D@__crt_stdio_output@@@__crt_stdio_output@@CA?AW4parameter_type@01@PEAD@Z 000000018002e864 f i libucrt:output.obj
 0001:0002d86c       ??$get_parameter_type@D@?$positional_parameter_base@DV?$string_output_adapter@D@__crt_stdio_output@@@__crt_stdio_output@@CA?AW4parameter_type@01@PEAD@Z 000000018002e86c f i libucrt:output.obj
 0001:0002d874       ??$get_parameter_type@D@?$positional_parameter_base@_WV?$stream_output_adapter@_W@__crt_stdio_output@@@__crt_stdio_output@@CA?AW4parameter_type@01@PEAD@Z 000000018002e874 f i libucrt:output.obj
 0001:0002d87c       ??$get_parameter_type@D@?$positional_parameter_base@_WV?$string_output_adapter@_W@__crt_stdio_output@@@__crt_stdio_output@@CA?AW4parameter_type@01@PEAD@Z 000000018002e87c f i libucrt:output.obj
 0001:0002d884       ??$get_parameter_type@Uansi_string@?1??type_case_Z@?$output_processor@DV?$stream_output_adapter@D@__crt_stdio_output@@V?$positional_parameter_base@DV?$stream_output_adapter@D@__crt_stdio_output@@@2@@__crt_stdio_output@@AEAA_NXZ@@?$positional_parameter_base@DV?$stream_output_adapter@D@__crt_stdio_output@@@__crt_stdio_output@@CA?AW4parameter_type@01@PEAUansi_string@?1??type_case_Z@?$output_processor@DV?$stream_output_adapter@D@__crt_stdio_output@@V?$positional_parameter_base@DV?$stream_output_adapter@D@__crt_stdio_output@@@2@@1@AEAA_NXZ@@Z 000000018002e884 f i libucrt:output.obj
 0001:0002d88c       ??$get_parameter_type@Uansi_string@?1??type_case_Z@?$output_processor@DV?$string_output_adapter@D@__crt_stdio_output@@V?$positional_parameter_base@DV?$string_output_adapter@D@__crt_stdio_output@@@2@@__crt_stdio_output@@AEAA_NXZ@@?$positional_parameter_base@DV?$string_output_adapter@D@__crt_stdio_output@@@__crt_stdio_output@@CA?AW4parameter_type@01@PEAUansi_string@?1??type_case_Z@?$output_processor@DV?$string_output_adapter@D@__crt_stdio_output@@V?$positional_parameter_base@DV?$string_output_adapter@D@__crt_stdio_output@@@2@@1@AEAA_NXZ@@Z 000000018002e88c f i libucrt:output.obj
 0001:0002d894       ??$get_parameter_type@Uansi_string@?1??type_case_Z@?$output_processor@_WV?$stream_output_adapter@_W@__crt_stdio_output@@V?$positional_parameter_base@_WV?$stream_output_adapter@_W@__crt_stdio_output@@@2@@__crt_stdio_output@@AEAA_NXZ@@?$positional_parameter_base@_WV?$stream_output_adapter@_W@__crt_stdio_output@@@__crt_stdio_output@@CA?AW4parameter_type@01@PEAUansi_string@?1??type_case_Z@?$output_processor@_WV?$stream_output_adapter@_W@__crt_stdio_output@@V?$positional_parameter_base@_WV?$stream_output_adapter@_W@__crt_stdio_output@@@2@@1@AEAA_NXZ@@Z 000000018002e894 f i libucrt:output.obj
 0001:0002d89c       ??$get_parameter_type@Uansi_string@?1??type_case_Z@?$output_processor@_WV?$string_output_adapter@_W@__crt_stdio_output@@V?$positional_parameter_base@_WV?$string_output_adapter@_W@__crt_stdio_output@@@2@@__crt_stdio_output@@AEAA_NXZ@@?$positional_parameter_base@_WV?$string_output_adapter@_W@__crt_stdio_output@@@__crt_stdio_output@@CA?AW4parameter_type@01@PEAUansi_string@?1??type_case_Z@?$output_processor@_WV?$string_output_adapter@_W@__crt_stdio_output@@V?$positional_parameter_base@_WV?$string_output_adapter@_W@__crt_stdio_output@@@2@@1@AEAA_NXZ@@Z 000000018002e89c f i libucrt:output.obj
 0001:0002d8a4       ??$get_parameter_type@X@?$positional_parameter_base@DV?$stream_output_adapter@D@__crt_stdio_output@@@__crt_stdio_output@@CA?AW4parameter_type@01@PEAX@Z 000000018002e8a4 f i libucrt:output.obj
 0001:0002d8ac       ??$get_parameter_type@X@?$positional_parameter_base@DV?$string_output_adapter@D@__crt_stdio_output@@@__crt_stdio_output@@CA?AW4parameter_type@01@PEAX@Z 000000018002e8ac f i libucrt:output.obj
 0001:0002d8b4       ??$get_parameter_type@X@?$positional_parameter_base@_WV?$stream_output_adapter@_W@__crt_stdio_output@@@__crt_stdio_output@@CA?AW4parameter_type@01@PEAX@Z 000000018002e8b4 f i libucrt:output.obj
 0001:0002d8bc       ??$get_parameter_type@X@?$positional_parameter_base@_WV?$string_output_adapter@_W@__crt_stdio_output@@@__crt_stdio_output@@CA?AW4parameter_type@01@PEAX@Z 000000018002e8bc f i libucrt:output.obj
 0001:0002d8c4       ??$is_character_specifier@D@?$positional_parameter_base@DV?$stream_output_adapter@D@__crt_stdio_output@@@__crt_stdio_output@@CA_ND@Z 000000018002e8c4 f i libucrt:output.obj
 0001:0002d8d0       ??$is_character_specifier@D@?$positional_parameter_base@DV?$string_output_adapter@D@__crt_stdio_output@@@__crt_stdio_output@@CA_ND@Z 000000018002e8d0 f i libucrt:output.obj
 0001:0002d8dc       ??$is_character_specifier@_W@?$positional_parameter_base@_WV?$stream_output_adapter@_W@__crt_stdio_output@@@__crt_stdio_output@@CA_N_W@Z 000000018002e8dc f i libucrt:output.obj
 0001:0002d8f0       ??$is_character_specifier@_W@?$positional_parameter_base@_WV?$string_output_adapter@_W@__crt_stdio_output@@@__crt_stdio_output@@CA_N_W@Z 000000018002e8f0 f i libucrt:output.obj
 0001:0002d904       ??$is_integral_specifier@D@?$positional_parameter_base@DV?$stream_output_adapter@D@__crt_stdio_output@@@__crt_stdio_output@@CA_ND@Z 000000018002e904 f i libucrt:output.obj
 0001:0002d930       ??$is_integral_specifier@D@?$positional_parameter_base@DV?$string_output_adapter@D@__crt_stdio_output@@@__crt_stdio_output@@CA_ND@Z 000000018002e930 f i libucrt:output.obj
 0001:0002d95c       ??$is_integral_specifier@_W@?$positional_parameter_base@_WV?$stream_output_adapter@_W@__crt_stdio_output@@@__crt_stdio_output@@CA_N_W@Z 000000018002e95c f i libucrt:output.obj
 0001:0002d98c       ??$is_integral_specifier@_W@?$positional_parameter_base@_WV?$string_output_adapter@_W@__crt_stdio_output@@@__crt_stdio_output@@CA_N_W@Z 000000018002e98c f i libucrt:output.obj
 0001:0002d9bc       ??$is_overflow_condition@K@__crt_strtox@@YA_NIK@Z 000000018002e9bc f i libucrt:output.obj
 0001:0002d9ec       ??$is_pointer_specifier@D@?$positional_parameter_base@DV?$stream_output_adapter@D@__crt_stdio_output@@@__crt_stdio_output@@CA_ND@Z 000000018002e9ec f i libucrt:output.obj
 0001:0002d9f4       ??$is_pointer_specifier@D@?$positional_parameter_base@DV?$string_output_adapter@D@__crt_stdio_output@@@__crt_stdio_output@@CA_ND@Z 000000018002e9f4 f i libucrt:output.obj
 0001:0002d9fc       ??$is_pointer_specifier@_W@?$positional_parameter_base@_WV?$stream_output_adapter@_W@__crt_stdio_output@@@__crt_stdio_output@@CA_N_W@Z 000000018002e9fc f i libucrt:output.obj
 0001:0002da08       ??$is_pointer_specifier@_W@?$positional_parameter_base@_WV?$string_output_adapter@_W@__crt_stdio_output@@@__crt_stdio_output@@CA_N_W@Z 000000018002ea08 f i libucrt:output.obj
 0001:0002da14       ??$is_string_specifier@D@?$positional_parameter_base@DV?$stream_output_adapter@D@__crt_stdio_output@@@__crt_stdio_output@@CA_ND@Z 000000018002ea14 f i libucrt:output.obj
 0001:0002da20       ??$is_string_specifier@D@?$positional_parameter_base@DV?$string_output_adapter@D@__crt_stdio_output@@@__crt_stdio_output@@CA_ND@Z 000000018002ea20 f i libucrt:output.obj
 0001:0002da2c       ??$is_string_specifier@_W@?$positional_parameter_base@_WV?$stream_output_adapter@_W@__crt_stdio_output@@@__crt_stdio_output@@CA_N_W@Z 000000018002ea2c f i libucrt:output.obj
 0001:0002da40       ??$is_string_specifier@_W@?$positional_parameter_base@_WV?$string_output_adapter@_W@__crt_stdio_output@@@__crt_stdio_output@@CA_N_W@Z 000000018002ea40 f i libucrt:output.obj
 0001:0002da54       ??$is_wide_character_specifier@D@__crt_stdio_output@@YA_N_KDW4length_modifier@0@@Z 000000018002ea54 f i libucrt:output.obj
 0001:0002da88       ??$is_wide_character_specifier@_W@__crt_stdio_output@@YA_N_K_WW4length_modifier@0@@Z 000000018002ea88 f i libucrt:output.obj
 0001:0002dad8       ??$make_c_string_character_source@DPEAPEAD@__crt_strtox@@YA?AV?$c_string_character_source@D@0@QEBDQEAPEAD@Z 000000018002ead8 f i libucrt:output.obj
 0001:0002daf0       ??$make_c_string_character_source@_WPEAPEA_W@__crt_strtox@@YA?AV?$c_string_character_source@_W@0@QEB_WQEAPEA_W@Z 000000018002eaf0 f i libucrt:output.obj
 0001:0002db08       ??$parse_integer@KV?$c_string_character_source@D@__crt_strtox@@$0A@@__crt_strtox@@YAKAEAV__crt_cached_ptd_host@@V?$c_string_character_source@D@0@H_N@Z 000000018002eb08 f i libucrt:output.obj
 0001:0002de6c       ??$parse_integer@KV?$c_string_character_source@_W@__crt_strtox@@$0A@@__crt_strtox@@YAKAEAV__crt_cached_ptd_host@@V?$c_string_character_source@_W@0@H_N@Z 000000018002ee6c f i libucrt:output.obj
 0001:0002e7b0       ??$peek_va_arg@C@__crt_stdio_output@@YACPEAD@Z 000000018002f7b0 f i libucrt:output.obj
 0001:0002e7b4       ??$peek_va_arg@E@__crt_stdio_output@@YAEPEAD@Z 000000018002f7b4 f i libucrt:output.obj
 0001:0002e7b8       ??$peek_va_arg@F@__crt_stdio_output@@YAFPEAD@Z 000000018002f7b8 f i libucrt:output.obj
 0001:0002e7bc       ??$peek_va_arg@G@__crt_stdio_output@@YAGPEAD@Z 000000018002f7bc f i libucrt:output.obj
 0001:0002e7c0       ??$peek_va_arg@H@__crt_stdio_output@@YAHPEAD@Z 000000018002f7c0 f i libucrt:output.obj
 0001:0002e7c4       ??$peek_va_arg@I@__crt_stdio_output@@YAIPEAD@Z 000000018002f7c4 f i libucrt:output.obj
 0001:0002e7c8       ??$peek_va_arg@PEAD@__crt_stdio_output@@YAPEADPEAD@Z 000000018002f7c8 f i libucrt:output.obj
 0001:0002e7cc       ??$peek_va_arg@PEAUansi_string@?1??type_case_Z@?$output_processor@DV?$stream_output_adapter@D@__crt_stdio_output@@V?$positional_parameter_base@DV?$stream_output_adapter@D@__crt_stdio_output@@@2@@__crt_stdio_output@@AEAA_NXZ@@__crt_stdio_output@@YAPEAUansi_string@?1??type_case_Z@?$output_processor@DV?$stream_output_adapter@D@__crt_stdio_output@@V?$positional_parameter_base@DV?$stream_output_adapter@D@__crt_stdio_output@@@2@@0@AEAA_NXZ@PEAD@Z 000000018002f7cc f i libucrt:output.obj
 0001:0002e7d0       ??$peek_va_arg@PEAUansi_string@?1??type_case_Z@?$output_processor@DV?$string_output_adapter@D@__crt_stdio_output@@V?$positional_parameter_base@DV?$string_output_adapter@D@__crt_stdio_output@@@2@@__crt_stdio_output@@AEAA_NXZ@@__crt_stdio_output@@YAPEAUansi_string@?1??type_case_Z@?$output_processor@DV?$string_output_adapter@D@__crt_stdio_output@@V?$positional_parameter_base@DV?$string_output_adapter@D@__crt_stdio_output@@@2@@0@AEAA_NXZ@PEAD@Z 000000018002f7d0 f i libucrt:output.obj
 0001:0002e7d4       ??$peek_va_arg@PEAUansi_string@?1??type_case_Z@?$output_processor@_WV?$stream_output_adapter@_W@__crt_stdio_output@@V?$positional_parameter_base@_WV?$stream_output_adapter@_W@__crt_stdio_output@@@2@@__crt_stdio_output@@AEAA_NXZ@@__crt_stdio_output@@YAPEAUansi_string@?1??type_case_Z@?$output_processor@_WV?$stream_output_adapter@_W@__crt_stdio_output@@V?$positional_parameter_base@_WV?$stream_output_adapter@_W@__crt_stdio_output@@@2@@0@AEAA_NXZ@PEAD@Z 000000018002f7d4 f i libucrt:output.obj
 0001:0002e7d8       ??$peek_va_arg@PEAUansi_string@?1??type_case_Z@?$output_processor@_WV?$string_output_adapter@_W@__crt_stdio_output@@V?$positional_parameter_base@_WV?$string_output_adapter@_W@__crt_stdio_output@@@2@@__crt_stdio_output@@AEAA_NXZ@@__crt_stdio_output@@YAPEAUansi_string@?1??type_case_Z@?$output_processor@_WV?$string_output_adapter@_W@__crt_stdio_output@@V?$positional_parameter_base@_WV?$string_output_adapter@_W@__crt_stdio_output@@@2@@0@AEAA_NXZ@PEAD@Z 000000018002f7d8 f i libucrt:output.obj
 0001:0002e7dc       ??$peek_va_arg@PEAX@__crt_stdio_output@@YAPEAXPEAD@Z 000000018002f7dc f i libucrt:output.obj
 0001:0002e7e0       ??$peek_va_arg@U_CRT_DOUBLE@@@__crt_stdio_output@@YA?AU_CRT_DOUBLE@@PEAD@Z 000000018002f7e0 f i libucrt:output.obj
 0001:0002e7e4       ??$peek_va_arg@_J@__crt_stdio_output@@YA_JPEAD@Z 000000018002f7e4 f i libucrt:output.obj
 0001:0002e7e8       ??$peek_va_arg@_K@__crt_stdio_output@@YA_KPEAD@Z 000000018002f7e8 f i libucrt:output.obj
 0001:0002e7ec       ??$peek_va_arg@_W@__crt_stdio_output@@YA_WPEAD@Z 000000018002f7ec f i libucrt:output.obj
 0001:0002e7f0       ??$puttc_nolock_internal@AEBDPEAU_iobuf@@AEAV__crt_cached_ptd_host@@@?$__crt_char_traits@D@@SAHAEBD$$QEAPEAU_iobuf@@AEAV__crt_cached_ptd_host@@@Z 000000018002f7f0 f i libucrt:output.obj
 0001:0002e800       ??$puttc_nolock_internal@AEB_WPEAU_iobuf@@AEAV__crt_cached_ptd_host@@@?$__crt_char_traits@_W@@SAGAEB_W$$QEAPEAU_iobuf@@AEAV__crt_cached_ptd_host@@@Z 000000018002f800 f i libucrt:output.obj
 0001:0002e810       ??$read_va_arg@C@__crt_stdio_output@@YACAEAPEAD@Z 000000018002f810 f i libucrt:output.obj
 0001:0002e820       ??$read_va_arg@E@__crt_stdio_output@@YAEAEAPEAD@Z 000000018002f820 f i libucrt:output.obj
 0001:0002e830       ??$read_va_arg@F@__crt_stdio_output@@YAFAEAPEAD@Z 000000018002f830 f i libucrt:output.obj
 0001:0002e844       ??$read_va_arg@G@__crt_stdio_output@@YAGAEAPEAD@Z 000000018002f844 f i libucrt:output.obj
 0001:0002e858       ??$read_va_arg@H@__crt_stdio_output@@YAHAEAPEAD@Z 000000018002f858 f i libucrt:output.obj
 0001:0002e868       ??$read_va_arg@I@__crt_stdio_output@@YAIAEAPEAD@Z 000000018002f868 f i libucrt:output.obj
 0001:0002e878       ??$read_va_arg@PEAD@__crt_stdio_output@@YAPEADAEAPEAD@Z 000000018002f878 f i libucrt:output.obj
 0001:0002e88c       ??$read_va_arg@PEAUansi_string@?1??type_case_Z@?$output_processor@DV?$stream_output_adapter@D@__crt_stdio_output@@V?$format_validation_base@DV?$stream_output_adapter@D@__crt_stdio_output@@@2@@__crt_stdio_output@@AEAA_NXZ@@__crt_stdio_output@@YAPEAUansi_string@?1??type_case_Z@?$output_processor@DV?$stream_output_adapter@D@__crt_stdio_output@@V?$format_validation_base@DV?$stream_output_adapter@D@__crt_stdio_output@@@2@@0@AEAA_NXZ@AEAPEAD@Z 000000018002f88c f i libucrt:output.obj
 0001:0002e8a0       ??$read_va_arg@PEAUansi_string@?1??type_case_Z@?$output_processor@DV?$stream_output_adapter@D@__crt_stdio_output@@V?$positional_parameter_base@DV?$stream_output_adapter@D@__crt_stdio_output@@@2@@__crt_stdio_output@@AEAA_NXZ@@__crt_stdio_output@@YAPEAUansi_string@?1??type_case_Z@?$output_processor@DV?$stream_output_adapter@D@__crt_stdio_output@@V?$positional_parameter_base@DV?$stream_output_adapter@D@__crt_stdio_output@@@2@@0@AEAA_NXZ@AEAPEAD@Z 000000018002f8a0 f i libucrt:output.obj
 0001:0002e8b4       ??$read_va_arg@PEAUansi_string@?1??type_case_Z@?$output_processor@DV?$stream_output_adapter@D@__crt_stdio_output@@V?$standard_base@DV?$stream_output_adapter@D@__crt_stdio_output@@@2@@__crt_stdio_output@@AEAA_NXZ@@__crt_stdio_output@@YAPEAUansi_string@?1??type_case_Z@?$output_processor@DV?$stream_output_adapter@D@__crt_stdio_output@@V?$standard_base@DV?$stream_output_adapter@D@__crt_stdio_output@@@2@@0@AEAA_NXZ@AEAPEAD@Z 000000018002f8b4 f i libucrt:output.obj
 0001:0002e8c8       ??$read_va_arg@PEAUansi_string@?1??type_case_Z@?$output_processor@DV?$string_output_adapter@D@__crt_stdio_output@@V?$format_validation_base@DV?$string_output_adapter@D@__crt_stdio_output@@@2@@__crt_stdio_output@@AEAA_NXZ@@__crt_stdio_output@@YAPEAUansi_string@?1??type_case_Z@?$output_processor@DV?$string_output_adapter@D@__crt_stdio_output@@V?$format_validation_base@DV?$string_output_adapter@D@__crt_stdio_output@@@2@@0@AEAA_NXZ@AEAPEAD@Z 000000018002f8c8 f i libucrt:output.obj
 0001:0002e8dc       ??$read_va_arg@PEAUansi_string@?1??type_case_Z@?$output_processor@DV?$string_output_adapter@D@__crt_stdio_output@@V?$positional_parameter_base@DV?$string_output_adapter@D@__crt_stdio_output@@@2@@__crt_stdio_output@@AEAA_NXZ@@__crt_stdio_output@@YAPEAUansi_string@?1??type_case_Z@?$output_processor@DV?$string_output_adapter@D@__crt_stdio_output@@V?$positional_parameter_base@DV?$string_output_adapter@D@__crt_stdio_output@@@2@@0@AEAA_NXZ@AEAPEAD@Z 000000018002f8dc f i libucrt:output.obj
 0001:0002e8f0       ??$read_va_arg@PEAUansi_string@?1??type_case_Z@?$output_processor@DV?$string_output_adapter@D@__crt_stdio_output@@V?$standard_base@DV?$string_output_adapter@D@__crt_stdio_output@@@2@@__crt_stdio_output@@AEAA_NXZ@@__crt_stdio_output@@YAPEAUansi_string@?1??type_case_Z@?$output_processor@DV?$string_output_adapter@D@__crt_stdio_output@@V?$standard_base@DV?$string_output_adapter@D@__crt_stdio_output@@@2@@0@AEAA_NXZ@AEAPEAD@Z 000000018002f8f0 f i libucrt:output.obj
 0001:0002e904       ??$read_va_arg@PEAUansi_string@?1??type_case_Z@?$output_processor@_WV?$stream_output_adapter@_W@__crt_stdio_output@@V?$format_validation_base@_WV?$stream_output_adapter@_W@__crt_stdio_output@@@2@@__crt_stdio_output@@AEAA_NXZ@@__crt_stdio_output@@YAPEAUansi_string@?1??type_case_Z@?$output_processor@_WV?$stream_output_adapter@_W@__crt_stdio_output@@V?$format_validation_base@_WV?$stream_output_adapter@_W@__crt_stdio_output@@@2@@0@AEAA_NXZ@AEAPEAD@Z 000000018002f904 f i libucrt:output.obj
 0001:0002e918       ??$read_va_arg@PEAUansi_string@?1??type_case_Z@?$output_processor@_WV?$stream_output_adapter@_W@__crt_stdio_output@@V?$positional_parameter_base@_WV?$stream_output_adapter@_W@__crt_stdio_output@@@2@@__crt_stdio_output@@AEAA_NXZ@@__crt_stdio_output@@YAPEAUansi_string@?1??type_case_Z@?$output_processor@_WV?$stream_output_adapter@_W@__crt_stdio_output@@V?$positional_parameter_base@_WV?$stream_output_adapter@_W@__crt_stdio_output@@@2@@0@AEAA_NXZ@AEAPEAD@Z 000000018002f918 f i libucrt:output.obj
 0001:0002e92c       ??$read_va_arg@PEAUansi_string@?1??type_case_Z@?$output_processor@_WV?$stream_output_adapter@_W@__crt_stdio_output@@V?$standard_base@_WV?$stream_output_adapter@_W@__crt_stdio_output@@@2@@__crt_stdio_output@@AEAA_NXZ@@__crt_stdio_output@@YAPEAUansi_string@?1??type_case_Z@?$output_processor@_WV?$stream_output_adapter@_W@__crt_stdio_output@@V?$standard_base@_WV?$stream_output_adapter@_W@__crt_stdio_output@@@2@@0@AEAA_NXZ@AEAPEAD@Z 000000018002f92c f i libucrt:output.obj
 0001:0002e940       ??$read_va_arg@PEAUansi_string@?1??type_case_Z@?$output_processor@_WV?$string_output_adapter@_W@__crt_stdio_output@@V?$format_validation_base@_WV?$string_output_adapter@_W@__crt_stdio_output@@@2@@__crt_stdio_output@@AEAA_NXZ@@__crt_stdio_output@@YAPEAUansi_string@?1??type_case_Z@?$output_processor@_WV?$string_output_adapter@_W@__crt_stdio_output@@V?$format_validation_base@_WV?$string_output_adapter@_W@__crt_stdio_output@@@2@@0@AEAA_NXZ@AEAPEAD@Z 000000018002f940 f i libucrt:output.obj
 0001:0002e954       ??$read_va_arg@PEAUansi_string@?1??type_case_Z@?$output_processor@_WV?$string_output_adapter@_W@__crt_stdio_output@@V?$positional_parameter_base@_WV?$string_output_adapter@_W@__crt_stdio_output@@@2@@__crt_stdio_output@@AEAA_NXZ@@__crt_stdio_output@@YAPEAUansi_string@?1??type_case_Z@?$output_processor@_WV?$string_output_adapter@_W@__crt_stdio_output@@V?$positional_parameter_base@_WV?$string_output_adapter@_W@__crt_stdio_output@@@2@@0@AEAA_NXZ@AEAPEAD@Z 000000018002f954 f i libucrt:output.obj
 0001:0002e968       ??$read_va_arg@PEAUansi_string@?1??type_case_Z@?$output_processor@_WV?$string_output_adapter@_W@__crt_stdio_output@@V?$standard_base@_WV?$string_output_adapter@_W@__crt_stdio_output@@@2@@__crt_stdio_output@@AEAA_NXZ@@__crt_stdio_output@@YAPEAUansi_string@?1??type_case_Z@?$output_processor@_WV?$string_output_adapter@_W@__crt_stdio_output@@V?$standard_base@_WV?$string_output_adapter@_W@__crt_stdio_output@@@2@@0@AEAA_NXZ@AEAPEAD@Z 000000018002f968 f i libucrt:output.obj
 0001:0002e97c       ??$read_va_arg@PEAX@__crt_stdio_output@@YAPEAXAEAPEAD@Z 000000018002f97c f i libucrt:output.obj
 0001:0002e990       ??$read_va_arg@U_CRT_DOUBLE@@@__crt_stdio_output@@YA?AU_CRT_DOUBLE@@AEAPEAD@Z 000000018002f990 f i libucrt:output.obj
 0001:0002e9a4       ??$read_va_arg@_J@__crt_stdio_output@@YA_JAEAPEAD@Z 000000018002f9a4 f i libucrt:output.obj
 0001:0002e9b8       ??$read_va_arg@_K@__crt_stdio_output@@YA_KAEAPEAD@Z 000000018002f9b8 f i libucrt:output.obj
 0001:0002e9cc       ??$read_va_arg@_W@__crt_stdio_output@@YA_WAEAPEAD@Z 000000018002f9cc f i libucrt:output.obj
 0001:0002e9e0       ??$scratch_count@D@formatting_buffer@__crt_stdio_output@@QEBA_KXZ 000000018002f9e0 f i libucrt:output.obj
 0001:0002ea04       ??$scratch_data@D@formatting_buffer@__crt_stdio_output@@QEAAPEADXZ 000000018002fa04 f i libucrt:output.obj
 0001:0002ea30       ??$type_case_integer@$07@?$output_processor@DV?$stream_output_adapter@D@__crt_stdio_output@@V?$format_validation_base@DV?$stream_output_adapter@D@__crt_stdio_output@@@2@@__crt_stdio_output@@AEAA_N_N@Z 000000018002fa30 f i libucrt:output.obj
 0001:0002ecb4       ??$type_case_integer@$07@?$output_processor@DV?$stream_output_adapter@D@__crt_stdio_output@@V?$positional_parameter_base@DV?$stream_output_adapter@D@__crt_stdio_output@@@2@@__crt_stdio_output@@AEAA_N_N@Z 000000018002fcb4 f i libucrt:output.obj
 0001:0002ef78       ??$type_case_integer@$07@?$output_processor@DV?$stream_output_adapter@D@__crt_stdio_output@@V?$standard_base@DV?$stream_output_adapter@D@__crt_stdio_output@@@2@@__crt_stdio_output@@AEAA_N_N@Z 000000018002ff78 f i libucrt:output.obj
 0001:0002f1fc       ??$type_case_integer@$07@?$output_processor@DV?$string_output_adapter@D@__crt_stdio_output@@V?$format_validation_base@DV?$string_output_adapter@D@__crt_stdio_output@@@2@@__crt_stdio_output@@AEAA_N_N@Z 00000001800301fc f i libucrt:output.obj
 0001:0002f480       ??$type_case_integer@$07@?$output_processor@DV?$string_output_adapter@D@__crt_stdio_output@@V?$positional_parameter_base@DV?$string_output_adapter@D@__crt_stdio_output@@@2@@__crt_stdio_output@@AEAA_N_N@Z 0000000180030480 f i libucrt:output.obj
 0001:0002f744       ??$type_case_integer@$07@?$output_processor@DV?$string_output_adapter@D@__crt_stdio_output@@V?$standard_base@DV?$string_output_adapter@D@__crt_stdio_output@@@2@@__crt_stdio_output@@AEAA_N_N@Z 0000000180030744 f i libucrt:output.obj
 0001:0002f9c8       ??$type_case_integer@$07@?$output_processor@_WV?$stream_output_adapter@_W@__crt_stdio_output@@V?$format_validation_base@_WV?$stream_output_adapter@_W@__crt_stdio_output@@@2@@__crt_stdio_output@@AEAA_N_N@Z 00000001800309c8 f i libucrt:output.obj
 0001:0002fc54       ??$type_case_integer@$07@?$output_processor@_WV?$stream_output_adapter@_W@__crt_stdio_output@@V?$positional_parameter_base@_WV?$stream_output_adapter@_W@__crt_stdio_output@@@2@@__crt_stdio_output@@AEAA_N_N@Z 0000000180030c54 f i libucrt:output.obj
 0001:0002ff20       ??$type_case_integer@$07@?$output_processor@_WV?$stream_output_adapter@_W@__crt_stdio_output@@V?$standard_base@_WV?$stream_output_adapter@_W@__crt_stdio_output@@@2@@__crt_stdio_output@@AEAA_N_N@Z 0000000180030f20 f i libucrt:output.obj
 0001:000301ac       ??$type_case_integer@$07@?$output_processor@_WV?$string_output_adapter@_W@__crt_stdio_output@@V?$format_validation_base@_WV?$string_output_adapter@_W@__crt_stdio_output@@@2@@__crt_stdio_output@@AEAA_N_N@Z 00000001800311ac f i libucrt:output.obj
 0001:00030438       ??$type_case_integer@$07@?$output_processor@_WV?$string_output_adapter@_W@__crt_stdio_output@@V?$positional_parameter_base@_WV?$string_output_adapter@_W@__crt_stdio_output@@@2@@__crt_stdio_output@@AEAA_N_N@Z 0000000180031438 f i libucrt:output.obj
 0001:00030704       ??$type_case_integer@$07@?$output_processor@_WV?$string_output_adapter@_W@__crt_stdio_output@@V?$standard_base@_WV?$string_output_adapter@_W@__crt_stdio_output@@@2@@__crt_stdio_output@@AEAA_N_N@Z 0000000180031704 f i libucrt:output.obj
 0001:00030990       ??$type_case_integer@$09@?$output_processor@DV?$stream_output_adapter@D@__crt_stdio_output@@V?$format_validation_base@DV?$stream_output_adapter@D@__crt_stdio_output@@@2@@__crt_stdio_output@@AEAA_N_N@Z 0000000180031990 f i libucrt:output.obj
 0001:00030c14       ??$type_case_integer@$09@?$output_processor@DV?$stream_output_adapter@D@__crt_stdio_output@@V?$positional_parameter_base@DV?$stream_output_adapter@D@__crt_stdio_output@@@2@@__crt_stdio_output@@AEAA_N_N@Z 0000000180031c14 f i libucrt:output.obj
 0001:00030ed8       ??$type_case_integer@$09@?$output_processor@DV?$stream_output_adapter@D@__crt_stdio_output@@V?$standard_base@DV?$stream_output_adapter@D@__crt_stdio_output@@@2@@__crt_stdio_output@@AEAA_N_N@Z 0000000180031ed8 f i libucrt:output.obj
 0001:0003115c       ??$type_case_integer@$09@?$output_processor@DV?$string_output_adapter@D@__crt_stdio_output@@V?$format_validation_base@DV?$string_output_adapter@D@__crt_stdio_output@@@2@@__crt_stdio_output@@AEAA_N_N@Z 000000018003215c f i libucrt:output.obj
 0001:000313e0       ??$type_case_integer@$09@?$output_processor@DV?$string_output_adapter@D@__crt_stdio_output@@V?$positional_parameter_base@DV?$string_output_adapter@D@__crt_stdio_output@@@2@@__crt_stdio_output@@AEAA_N_N@Z 00000001800323e0 f i libucrt:output.obj
 0001:000316a4       ??$type_case_integer@$09@?$output_processor@DV?$string_output_adapter@D@__crt_stdio_output@@V?$standard_base@DV?$string_output_adapter@D@__crt_stdio_output@@@2@@__crt_stdio_output@@AEAA_N_N@Z 00000001800326a4 f i libucrt:output.obj
 0001:00031928       ??$type_case_integer@$09@?$output_processor@_WV?$stream_output_adapter@_W@__crt_stdio_output@@V?$format_validation_base@_WV?$stream_output_adapter@_W@__crt_stdio_output@@@2@@__crt_stdio_output@@AEAA_N_N@Z 0000000180032928 f i libucrt:output.obj
 0001:00031bb4       ??$type_case_integer@$09@?$output_processor@_WV?$stream_output_adapter@_W@__crt_stdio_output@@V?$positional_parameter_base@_WV?$stream_output_adapter@_W@__crt_stdio_output@@@2@@__crt_stdio_output@@AEAA_N_N@Z 0000000180032bb4 f i libucrt:output.obj
 0001:00031e80       ??$type_case_integer@$09@?$output_processor@_WV?$stream_output_adapter@_W@__crt_stdio_output@@V?$standard_base@_WV?$stream_output_adapter@_W@__crt_stdio_output@@@2@@__crt_stdio_output@@AEAA_N_N@Z 0000000180032e80 f i libucrt:output.obj
 0001:0003210c       ??$type_case_integer@$09@?$output_processor@_WV?$string_output_adapter@_W@__crt_stdio_output@@V?$format_validation_base@_WV?$string_output_adapter@_W@__crt_stdio_output@@@2@@__crt_stdio_output@@AEAA_N_N@Z 000000018003310c f i libucrt:output.obj
 0001:00032398       ??$type_case_integer@$09@?$output_processor@_WV?$string_output_adapter@_W@__crt_stdio_output@@V?$positional_parameter_base@_WV?$string_output_adapter@_W@__crt_stdio_output@@@2@@__crt_stdio_output@@AEAA_N_N@Z 0000000180033398 f i libucrt:output.obj
 0001:00032664       ??$type_case_integer@$09@?$output_processor@_WV?$string_output_adapter@_W@__crt_stdio_output@@V?$standard_base@_WV?$string_output_adapter@_W@__crt_stdio_output@@@2@@__crt_stdio_output@@AEAA_N_N@Z 0000000180033664 f i libucrt:output.obj
 0001:000328f0       ??$type_case_integer@$0BA@@?$output_processor@DV?$stream_output_adapter@D@__crt_stdio_output@@V?$format_validation_base@DV?$stream_output_adapter@D@__crt_stdio_output@@@2@@__crt_stdio_output@@AEAA_N_N@Z 00000001800338f0 f i libucrt:output.obj
 0001:00032b74       ??$type_case_integer@$0BA@@?$output_processor@DV?$stream_output_adapter@D@__crt_stdio_output@@V?$positional_parameter_base@DV?$stream_output_adapter@D@__crt_stdio_output@@@2@@__crt_stdio_output@@AEAA_N_N@Z 0000000180033b74 f i libucrt:output.obj
 0001:00032e38       ??$type_case_integer@$0BA@@?$output_processor@DV?$stream_output_adapter@D@__crt_stdio_output@@V?$standard_base@DV?$stream_output_adapter@D@__crt_stdio_output@@@2@@__crt_stdio_output@@AEAA_N_N@Z 0000000180033e38 f i libucrt:output.obj
 0001:000330bc       ??$type_case_integer@$0BA@@?$output_processor@DV?$string_output_adapter@D@__crt_stdio_output@@V?$format_validation_base@DV?$string_output_adapter@D@__crt_stdio_output@@@2@@__crt_stdio_output@@AEAA_N_N@Z 00000001800340bc f i libucrt:output.obj
 0001:00033340       ??$type_case_integer@$0BA@@?$output_processor@DV?$string_output_adapter@D@__crt_stdio_output@@V?$positional_parameter_base@DV?$string_output_adapter@D@__crt_stdio_output@@@2@@__crt_stdio_output@@AEAA_N_N@Z 0000000180034340 f i libucrt:output.obj
 0001:00033604       ??$type_case_integer@$0BA@@?$output_processor@DV?$string_output_adapter@D@__crt_stdio_output@@V?$standard_base@DV?$string_output_adapter@D@__crt_stdio_output@@@2@@__crt_stdio_output@@AEAA_N_N@Z 0000000180034604 f i libucrt:output.obj
 0001:00033888       ??$type_case_integer@$0BA@@?$output_processor@_WV?$stream_output_adapter@_W@__crt_stdio_output@@V?$format_validation_base@_WV?$stream_output_adapter@_W@__crt_stdio_output@@@2@@__crt_stdio_output@@AEAA_N_N@Z 0000000180034888 f i libucrt:output.obj
 0001:00033b14       ??$type_case_integer@$0BA@@?$output_processor@_WV?$stream_output_adapter@_W@__crt_stdio_output@@V?$positional_parameter_base@_WV?$stream_output_adapter@_W@__crt_stdio_output@@@2@@__crt_stdio_output@@AEAA_N_N@Z 0000000180034b14 f i libucrt:output.obj
 0001:00033de0       ??$type_case_integer@$0BA@@?$output_processor@_WV?$stream_output_adapter@_W@__crt_stdio_output@@V?$standard_base@_WV?$stream_output_adapter@_W@__crt_stdio_output@@@2@@__crt_stdio_output@@AEAA_N_N@Z 0000000180034de0 f i libucrt:output.obj
 0001:0003406c       ??$type_case_integer@$0BA@@?$output_processor@_WV?$string_output_adapter@_W@__crt_stdio_output@@V?$format_validation_base@_WV?$string_output_adapter@_W@__crt_stdio_output@@@2@@__crt_stdio_output@@AEAA_N_N@Z 000000018003506c f i libucrt:output.obj
 0001:000342f8       ??$type_case_integer@$0BA@@?$output_processor@_WV?$string_output_adapter@_W@__crt_stdio_output@@V?$positional_parameter_base@_WV?$string_output_adapter@_W@__crt_stdio_output@@@2@@__crt_stdio_output@@AEAA_N_N@Z 00000001800352f8 f i libucrt:output.obj
 0001:000345c4       ??$type_case_integer@$0BA@@?$output_processor@_WV?$string_output_adapter@_W@__crt_stdio_output@@V?$standard_base@_WV?$string_output_adapter@_W@__crt_stdio_output@@@2@@__crt_stdio_output@@AEAA_N_N@Z 00000001800355c4 f i libucrt:output.obj
 0001:00034850       ??$type_case_integer_parse_into_buffer@I$07@?$output_processor@DV?$stream_output_adapter@D@__crt_stdio_output@@V?$format_validation_base@DV?$stream_output_adapter@D@__crt_stdio_output@@@2@@__crt_stdio_output@@AEAAXI_N@Z 0000000180035850 f i libucrt:output.obj
 0001:000348d8       ??$type_case_integer_parse_into_buffer@I$07@?$output_processor@DV?$stream_output_adapter@D@__crt_stdio_output@@V?$positional_parameter_base@DV?$stream_output_adapter@D@__crt_stdio_output@@@2@@__crt_stdio_output@@AEAAXI_N@Z 00000001800358d8 f i libucrt:output.obj
 0001:00034960       ??$type_case_integer_parse_into_buffer@I$07@?$output_processor@DV?$stream_output_adapter@D@__crt_stdio_output@@V?$standard_base@DV?$stream_output_adapter@D@__crt_stdio_output@@@2@@__crt_stdio_output@@AEAAXI_N@Z 0000000180035960 f i libucrt:output.obj
 0001:000349e8       ??$type_case_integer_parse_into_buffer@I$07@?$output_processor@DV?$string_output_adapter@D@__crt_stdio_output@@V?$format_validation_base@DV?$string_output_adapter@D@__crt_stdio_output@@@2@@__crt_stdio_output@@AEAAXI_N@Z 00000001800359e8 f i libucrt:output.obj
 0001:00034a70       ??$type_case_integer_parse_into_buffer@I$07@?$output_processor@DV?$string_output_adapter@D@__crt_stdio_output@@V?$positional_parameter_base@DV?$string_output_adapter@D@__crt_stdio_output@@@2@@__crt_stdio_output@@AEAAXI_N@Z 0000000180035a70 f i libucrt:output.obj
 0001:00034af8       ??$type_case_integer_parse_into_buffer@I$07@?$output_processor@DV?$string_output_adapter@D@__crt_stdio_output@@V?$standard_base@DV?$string_output_adapter@D@__crt_stdio_output@@@2@@__crt_stdio_output@@AEAAXI_N@Z 0000000180035af8 f i libucrt:output.obj
 0001:00034b80       ??$type_case_integer_parse_into_buffer@I$07@?$output_processor@_WV?$stream_output_adapter@_W@__crt_stdio_output@@V?$format_validation_base@_WV?$stream_output_adapter@_W@__crt_stdio_output@@@2@@__crt_stdio_output@@AEAAXI_N@Z 0000000180035b80 f i libucrt:output.obj
 0001:00034c28       ??$type_case_integer_parse_into_buffer@I$07@?$output_processor@_WV?$stream_output_adapter@_W@__crt_stdio_output@@V?$positional_parameter_base@_WV?$stream_output_adapter@_W@__crt_stdio_output@@@2@@__crt_stdio_output@@AEAAXI_N@Z 0000000180035c28 f i libucrt:output.obj
 0001:00034cd0       ??$type_case_integer_parse_into_buffer@I$07@?$output_processor@_WV?$stream_output_adapter@_W@__crt_stdio_output@@V?$standard_base@_WV?$stream_output_adapter@_W@__crt_stdio_output@@@2@@__crt_stdio_output@@AEAAXI_N@Z 0000000180035cd0 f i libucrt:output.obj
 0001:00034d78       ??$type_case_integer_parse_into_buffer@I$07@?$output_processor@_WV?$string_output_adapter@_W@__crt_stdio_output@@V?$format_validation_base@_WV?$string_output_adapter@_W@__crt_stdio_output@@@2@@__crt_stdio_output@@AEAAXI_N@Z 0000000180035d78 f i libucrt:output.obj
 0001:00034e20       ??$type_case_integer_parse_into_buffer@I$07@?$output_processor@_WV?$string_output_adapter@_W@__crt_stdio_output@@V?$positional_parameter_base@_WV?$string_output_adapter@_W@__crt_stdio_output@@@2@@__crt_stdio_output@@AEAAXI_N@Z 0000000180035e20 f i libucrt:output.obj
 0001:00034ec8       ??$type_case_integer_parse_into_buffer@I$07@?$output_processor@_WV?$string_output_adapter@_W@__crt_stdio_output@@V?$standard_base@_WV?$string_output_adapter@_W@__crt_stdio_output@@@2@@__crt_stdio_output@@AEAAXI_N@Z 0000000180035ec8 f i libucrt:output.obj
 0001:00034f70       ??$type_case_integer_parse_into_buffer@I$09@?$output_processor@DV?$stream_output_adapter@D@__crt_stdio_output@@V?$format_validation_base@DV?$stream_output_adapter@D@__crt_stdio_output@@@2@@__crt_stdio_output@@AEAAXI_N@Z 0000000180035f70 f i libucrt:output.obj
 0001:00035044       ??$type_case_integer_parse_into_buffer@I$09@?$output_processor@DV?$stream_output_adapter@D@__crt_stdio_output@@V?$positional_parameter_base@DV?$stream_output_adapter@D@__crt_stdio_output@@@2@@__crt_stdio_output@@AEAAXI_N@Z 0000000180036044 f i libucrt:output.obj
 0001:00035118       ??$type_case_integer_parse_into_buffer@I$09@?$output_processor@DV?$stream_output_adapter@D@__crt_stdio_output@@V?$standard_base@DV?$stream_output_adapter@D@__crt_stdio_output@@@2@@__crt_stdio_output@@AEAAXI_N@Z 0000000180036118 f i libucrt:output.obj
 0001:000351ec       ??$type_case_integer_parse_into_buffer@I$09@?$output_processor@DV?$string_output_adapter@D@__crt_stdio_output@@V?$format_validation_base@DV?$string_output_adapter@D@__crt_stdio_output@@@2@@__crt_stdio_output@@AEAAXI_N@Z 00000001800361ec f i libucrt:output.obj
 0001:000352c0       ??$type_case_integer_parse_into_buffer@I$09@?$output_processor@DV?$string_output_adapter@D@__crt_stdio_output@@V?$positional_parameter_base@DV?$string_output_adapter@D@__crt_stdio_output@@@2@@__crt_stdio_output@@AEAAXI_N@Z 00000001800362c0 f i libucrt:output.obj
 0001:00035394       ??$type_case_integer_parse_into_buffer@I$09@?$output_processor@DV?$string_output_adapter@D@__crt_stdio_output@@V?$standard_base@DV?$string_output_adapter@D@__crt_stdio_output@@@2@@__crt_stdio_output@@AEAAXI_N@Z 0000000180036394 f i libucrt:output.obj
 0001:00035468       ??$type_case_integer_parse_into_buffer@I$09@?$output_processor@_WV?$stream_output_adapter@_W@__crt_stdio_output@@V?$format_validation_base@_WV?$stream_output_adapter@_W@__crt_stdio_output@@@2@@__crt_stdio_output@@AEAAXI_N@Z 0000000180036468 f i libucrt:output.obj
 0001:00035554       ??$type_case_integer_parse_into_buffer@I$09@?$output_processor@_WV?$stream_output_adapter@_W@__crt_stdio_output@@V?$positional_parameter_base@_WV?$stream_output_adapter@_W@__crt_stdio_output@@@2@@__crt_stdio_output@@AEAAXI_N@Z 0000000180036554 f i libucrt:output.obj
 0001:00035640       ??$type_case_integer_parse_into_buffer@I$09@?$output_processor@_WV?$stream_output_adapter@_W@__crt_stdio_output@@V?$standard_base@_WV?$stream_output_adapter@_W@__crt_stdio_output@@@2@@__crt_stdio_output@@AEAAXI_N@Z 0000000180036640 f i libucrt:output.obj
 0001:0003572c       ??$type_case_integer_parse_into_buffer@I$09@?$output_processor@_WV?$string_output_adapter@_W@__crt_stdio_output@@V?$format_validation_base@_WV?$string_output_adapter@_W@__crt_stdio_output@@@2@@__crt_stdio_output@@AEAAXI_N@Z 000000018003672c f i libucrt:output.obj
 0001:00035818       ??$type_case_integer_parse_into_buffer@I$09@?$output_processor@_WV?$string_output_adapter@_W@__crt_stdio_output@@V?$positional_parameter_base@_WV?$string_output_adapter@_W@__crt_stdio_output@@@2@@__crt_stdio_output@@AEAAXI_N@Z 0000000180036818 f i libucrt:output.obj
 0001:00035904       ??$type_case_integer_parse_into_buffer@I$09@?$output_processor@_WV?$string_output_adapter@_W@__crt_stdio_output@@V?$standard_base@_WV?$string_output_adapter@_W@__crt_stdio_output@@@2@@__crt_stdio_output@@AEAAXI_N@Z 0000000180036904 f i libucrt:output.obj
 0001:000359f0       ??$type_case_integer_parse_into_buffer@I$0BA@@?$output_processor@DV?$stream_output_adapter@D@__crt_stdio_output@@V?$format_validation_base@DV?$stream_output_adapter@D@__crt_stdio_output@@@2@@__crt_stdio_output@@AEAAXI_N@Z 00000001800369f0 f i libucrt:output.obj
 0001:00035a98       ??$type_case_integer_parse_into_buffer@I$0BA@@?$output_processor@DV?$stream_output_adapter@D@__crt_stdio_output@@V?$positional_parameter_base@DV?$stream_output_adapter@D@__crt_stdio_output@@@2@@__crt_stdio_output@@AEAAXI_N@Z 0000000180036a98 f i libucrt:output.obj
 0001:00035b40       ??$type_case_integer_parse_into_buffer@I$0BA@@?$output_processor@DV?$stream_output_adapter@D@__crt_stdio_output@@V?$standard_base@DV?$stream_output_adapter@D@__crt_stdio_output@@@2@@__crt_stdio_output@@AEAAXI_N@Z 0000000180036b40 f i libucrt:output.obj
 0001:00035be8       ??$type_case_integer_parse_into_buffer@I$0BA@@?$output_processor@DV?$string_output_adapter@D@__crt_stdio_output@@V?$format_validation_base@DV?$string_output_adapter@D@__crt_stdio_output@@@2@@__crt_stdio_output@@AEAAXI_N@Z 0000000180036be8 f i libucrt:output.obj
 0001:00035c90       ??$type_case_integer_parse_into_buffer@I$0BA@@?$output_processor@DV?$string_output_adapter@D@__crt_stdio_output@@V?$positional_parameter_base@DV?$string_output_adapter@D@__crt_stdio_output@@@2@@__crt_stdio_output@@AEAAXI_N@Z 0000000180036c90 f i libucrt:output.obj
 0001:00035d38       ??$type_case_integer_parse_into_buffer@I$0BA@@?$output_processor@DV?$string_output_adapter@D@__crt_stdio_output@@V?$standard_base@DV?$string_output_adapter@D@__crt_stdio_output@@@2@@__crt_stdio_output@@AEAAXI_N@Z 0000000180036d38 f i libucrt:output.obj
 0001:00035de0       ??$type_case_integer_parse_into_buffer@I$0BA@@?$output_processor@_WV?$stream_output_adapter@_W@__crt_stdio_output@@V?$format_validation_base@_WV?$stream_output_adapter@_W@__crt_stdio_output@@@2@@__crt_stdio_output@@AEAAXI_N@Z 0000000180036de0 f i libucrt:output.obj
 0001:00035ea8       ??$type_case_integer_parse_into_buffer@I$0BA@@?$output_processor@_WV?$stream_output_adapter@_W@__crt_stdio_output@@V?$positional_parameter_base@_WV?$stream_output_adapter@_W@__crt_stdio_output@@@2@@__crt_stdio_output@@AEAAXI_N@Z 0000000180036ea8 f i libucrt:output.obj
 0001:00035f70       ??$type_case_integer_parse_into_buffer@I$0BA@@?$output_processor@_WV?$stream_output_adapter@_W@__crt_stdio_output@@V?$standard_base@_WV?$stream_output_adapter@_W@__crt_stdio_output@@@2@@__crt_stdio_output@@AEAAXI_N@Z 0000000180036f70 f i libucrt:output.obj
 0001:00036038       ??$type_case_integer_parse_into_buffer@I$0BA@@?$output_processor@_WV?$string_output_adapter@_W@__crt_stdio_output@@V?$format_validation_base@_WV?$string_output_adapter@_W@__crt_stdio_output@@@2@@__crt_stdio_output@@AEAAXI_N@Z 0000000180037038 f i libucrt:output.obj
 0001:00036100       ??$type_case_integer_parse_into_buffer@I$0BA@@?$output_processor@_WV?$string_output_adapter@_W@__crt_stdio_output@@V?$positional_parameter_base@_WV?$string_output_adapter@_W@__crt_stdio_output@@@2@@__crt_stdio_output@@AEAAXI_N@Z 0000000180037100 f i libucrt:output.obj
 0001:000361c8       ??$type_case_integer_parse_into_buffer@I$0BA@@?$output_processor@_WV?$string_output_adapter@_W@__crt_stdio_output@@V?$standard_base@_WV?$string_output_adapter@_W@__crt_stdio_output@@@2@@__crt_stdio_output@@AEAAXI_N@Z 00000001800371c8 f i libucrt:output.obj
 0001:00036290       ??$type_case_integer_parse_into_buffer@_K$07@?$output_processor@DV?$stream_output_adapter@D@__crt_stdio_output@@V?$format_validation_base@DV?$stream_output_adapter@D@__crt_stdio_output@@@2@@__crt_stdio_output@@AEAAX_K_N@Z 0000000180037290 f i libucrt:output.obj
 0001:00036318       ??$type_case_integer_parse_into_buffer@_K$07@?$output_processor@DV?$stream_output_adapter@D@__crt_stdio_output@@V?$positional_parameter_base@DV?$stream_output_adapter@D@__crt_stdio_output@@@2@@__crt_stdio_output@@AEAAX_K_N@Z 0000000180037318 f i libucrt:output.obj
 0001:000363a0       ??$type_case_integer_parse_into_buffer@_K$07@?$output_processor@DV?$stream_output_adapter@D@__crt_stdio_output@@V?$standard_base@DV?$stream_output_adapter@D@__crt_stdio_output@@@2@@__crt_stdio_output@@AEAAX_K_N@Z 00000001800373a0 f i libucrt:output.obj
 0001:00036428       ??$type_case_integer_parse_into_buffer@_K$07@?$output_processor@DV?$string_output_adapter@D@__crt_stdio_output@@V?$format_validation_base@DV?$string_output_adapter@D@__crt_stdio_output@@@2@@__crt_stdio_output@@AEAAX_K_N@Z 0000000180037428 f i libucrt:output.obj
 0001:000364b0       ??$type_case_integer_parse_into_buffer@_K$07@?$output_processor@DV?$string_output_adapter@D@__crt_stdio_output@@V?$positional_parameter_base@DV?$string_output_adapter@D@__crt_stdio_output@@@2@@__crt_stdio_output@@AEAAX_K_N@Z 00000001800374b0 f i libucrt:output.obj
 0001:00036538       ??$type_case_integer_parse_into_buffer@_K$07@?$output_processor@DV?$string_output_adapter@D@__crt_stdio_output@@V?$standard_base@DV?$string_output_adapter@D@__crt_stdio_output@@@2@@__crt_stdio_output@@AEAAX_K_N@Z 0000000180037538 f i libucrt:output.obj
 0001:000365c0       ??$type_case_integer_parse_into_buffer@_K$07@?$output_processor@_WV?$stream_output_adapter@_W@__crt_stdio_output@@V?$format_validation_base@_WV?$stream_output_adapter@_W@__crt_stdio_output@@@2@@__crt_stdio_output@@AEAAX_K_N@Z 00000001800375c0 f i libucrt:output.obj
 0001:00036668       ??$type_case_integer_parse_into_buffer@_K$07@?$output_processor@_WV?$stream_output_adapter@_W@__crt_stdio_output@@V?$positional_parameter_base@_WV?$stream_output_adapter@_W@__crt_stdio_output@@@2@@__crt_stdio_output@@AEAAX_K_N@Z 0000000180037668 f i libucrt:output.obj
 0001:00036710       ??$type_case_integer_parse_into_buffer@_K$07@?$output_processor@_WV?$stream_output_adapter@_W@__crt_stdio_output@@V?$standard_base@_WV?$stream_output_adapter@_W@__crt_stdio_output@@@2@@__crt_stdio_output@@AEAAX_K_N@Z 0000000180037710 f i libucrt:output.obj
 0001:000367b8       ??$type_case_integer_parse_into_buffer@_K$07@?$output_processor@_WV?$string_output_adapter@_W@__crt_stdio_output@@V?$format_validation_base@_WV?$string_output_adapter@_W@__crt_stdio_output@@@2@@__crt_stdio_output@@AEAAX_K_N@Z 00000001800377b8 f i libucrt:output.obj
 0001:00036860       ??$type_case_integer_parse_into_buffer@_K$07@?$output_processor@_WV?$string_output_adapter@_W@__crt_stdio_output@@V?$positional_parameter_base@_WV?$string_output_adapter@_W@__crt_stdio_output@@@2@@__crt_stdio_output@@AEAAX_K_N@Z 0000000180037860 f i libucrt:output.obj
 0001:00036908       ??$type_case_integer_parse_into_buffer@_K$07@?$output_processor@_WV?$string_output_adapter@_W@__crt_stdio_output@@V?$standard_base@_WV?$string_output_adapter@_W@__crt_stdio_output@@@2@@__crt_stdio_output@@AEAAX_K_N@Z 0000000180037908 f i libucrt:output.obj
 0001:000369b0       ??$type_case_integer_parse_into_buffer@_K$09@?$output_processor@DV?$stream_output_adapter@D@__crt_stdio_output@@V?$format_validation_base@DV?$stream_output_adapter@D@__crt_stdio_output@@@2@@__crt_stdio_output@@AEAAX_K_N@Z 00000001800379b0 f i libucrt:output.obj
 0001:00036a8c       ??$type_case_integer_parse_into_buffer@_K$09@?$output_processor@DV?$stream_output_adapter@D@__crt_stdio_output@@V?$positional_parameter_base@DV?$stream_output_adapter@D@__crt_stdio_output@@@2@@__crt_stdio_output@@AEAAX_K_N@Z 0000000180037a8c f i libucrt:output.obj
 0001:00036b68       ??$type_case_integer_parse_into_buffer@_K$09@?$output_processor@DV?$stream_output_adapter@D@__crt_stdio_output@@V?$standard_base@DV?$stream_output_adapter@D@__crt_stdio_output@@@2@@__crt_stdio_output@@AEAAX_K_N@Z 0000000180037b68 f i libucrt:output.obj
 0001:00036c44       ??$type_case_integer_parse_into_buffer@_K$09@?$output_processor@DV?$string_output_adapter@D@__crt_stdio_output@@V?$format_validation_base@DV?$string_output_adapter@D@__crt_stdio_output@@@2@@__crt_stdio_output@@AEAAX_K_N@Z 0000000180037c44 f i libucrt:output.obj
 0001:00036d20       ??$type_case_integer_parse_into_buffer@_K$09@?$output_processor@DV?$string_output_adapter@D@__crt_stdio_output@@V?$positional_parameter_base@DV?$string_output_adapter@D@__crt_stdio_output@@@2@@__crt_stdio_output@@AEAAX_K_N@Z 0000000180037d20 f i libucrt:output.obj
 0001:00036dfc       ??$type_case_integer_parse_into_buffer@_K$09@?$output_processor@DV?$string_output_adapter@D@__crt_stdio_output@@V?$standard_base@DV?$string_output_adapter@D@__crt_stdio_output@@@2@@__crt_stdio_output@@AEAAX_K_N@Z 0000000180037dfc f i libucrt:output.obj
 0001:00036ed8       ??$type_case_integer_parse_into_buffer@_K$09@?$output_processor@_WV?$stream_output_adapter@_W@__crt_stdio_output@@V?$format_validation_base@_WV?$stream_output_adapter@_W@__crt_stdio_output@@@2@@__crt_stdio_output@@AEAAX_K_N@Z 0000000180037ed8 f i libucrt:output.obj
 0001:00036fcc       ??$type_case_integer_parse_into_buffer@_K$09@?$output_processor@_WV?$stream_output_adapter@_W@__crt_stdio_output@@V?$positional_parameter_base@_WV?$stream_output_adapter@_W@__crt_stdio_output@@@2@@__crt_stdio_output@@AEAAX_K_N@Z 0000000180037fcc f i libucrt:output.obj
 0001:000370c0       ??$type_case_integer_parse_into_buffer@_K$09@?$output_processor@_WV?$stream_output_adapter@_W@__crt_stdio_output@@V?$standard_base@_WV?$stream_output_adapter@_W@__crt_stdio_output@@@2@@__crt_stdio_output@@AEAAX_K_N@Z 00000001800380c0 f i libucrt:output.obj
 0001:000371b4       ??$type_case_integer_parse_into_buffer@_K$09@?$output_processor@_WV?$string_output_adapter@_W@__crt_stdio_output@@V?$format_validation_base@_WV?$string_output_adapter@_W@__crt_stdio_output@@@2@@__crt_stdio_output@@AEAAX_K_N@Z 00000001800381b4 f i libucrt:output.obj
 0001:000372a8       ??$type_case_integer_parse_into_buffer@_K$09@?$output_processor@_WV?$string_output_adapter@_W@__crt_stdio_output@@V?$positional_parameter_base@_WV?$string_output_adapter@_W@__crt_stdio_output@@@2@@__crt_stdio_output@@AEAAX_K_N@Z 00000001800382a8 f i libucrt:output.obj
 0001:0003739c       ??$type_case_integer_parse_into_buffer@_K$09@?$output_processor@_WV?$string_output_adapter@_W@__crt_stdio_output@@V?$standard_base@_WV?$string_output_adapter@_W@__crt_stdio_output@@@2@@__crt_stdio_output@@AEAAX_K_N@Z 000000018003839c f i libucrt:output.obj
 0001:00037490       ??$type_case_integer_parse_into_buffer@_K$0BA@@?$output_processor@DV?$stream_output_adapter@D@__crt_stdio_output@@V?$format_validation_base@DV?$stream_output_adapter@D@__crt_stdio_output@@@2@@__crt_stdio_output@@AEAAX_K_N@Z 0000000180038490 f i libucrt:output.obj
 0001:00037538       ??$type_case_integer_parse_into_buffer@_K$0BA@@?$output_processor@DV?$stream_output_adapter@D@__crt_stdio_output@@V?$positional_parameter_base@DV?$stream_output_adapter@D@__crt_stdio_output@@@2@@__crt_stdio_output@@AEAAX_K_N@Z 0000000180038538 f i libucrt:output.obj
 0001:000375e0       ??$type_case_integer_parse_into_buffer@_K$0BA@@?$output_processor@DV?$stream_output_adapter@D@__crt_stdio_output@@V?$standard_base@DV?$stream_output_adapter@D@__crt_stdio_output@@@2@@__crt_stdio_output@@AEAAX_K_N@Z 00000001800385e0 f i libucrt:output.obj
 0001:00037688       ??$type_case_integer_parse_into_buffer@_K$0BA@@?$output_processor@DV?$string_output_adapter@D@__crt_stdio_output@@V?$format_validation_base@DV?$string_output_adapter@D@__crt_stdio_output@@@2@@__crt_stdio_output@@AEAAX_K_N@Z 0000000180038688 f i libucrt:output.obj
 0001:00037730       ??$type_case_integer_parse_into_buffer@_K$0BA@@?$output_processor@DV?$string_output_adapter@D@__crt_stdio_output@@V?$positional_parameter_base@DV?$string_output_adapter@D@__crt_stdio_output@@@2@@__crt_stdio_output@@AEAAX_K_N@Z 0000000180038730 f i libucrt:output.obj
 0001:000377d8       ??$type_case_integer_parse_into_buffer@_K$0BA@@?$output_processor@DV?$string_output_adapter@D@__crt_stdio_output@@V?$standard_base@DV?$string_output_adapter@D@__crt_stdio_output@@@2@@__crt_stdio_output@@AEAAX_K_N@Z 00000001800387d8 f i libucrt:output.obj
 0001:00037880       ??$type_case_integer_parse_into_buffer@_K$0BA@@?$output_processor@_WV?$stream_output_adapter@_W@__crt_stdio_output@@V?$format_validation_base@_WV?$stream_output_adapter@_W@__crt_stdio_output@@@2@@__crt_stdio_output@@AEAAX_K_N@Z 0000000180038880 f i libucrt:output.obj
 0001:00037948       ??$type_case_integer_parse_into_buffer@_K$0BA@@?$output_processor@_WV?$stream_output_adapter@_W@__crt_stdio_output@@V?$positional_parameter_base@_WV?$stream_output_adapter@_W@__crt_stdio_output@@@2@@__crt_stdio_output@@AEAAX_K_N@Z 0000000180038948 f i libucrt:output.obj
 0001:00037a10       ??$type_case_integer_parse_into_buffer@_K$0BA@@?$output_processor@_WV?$stream_output_adapter@_W@__crt_stdio_output@@V?$standard_base@_WV?$stream_output_adapter@_W@__crt_stdio_output@@@2@@__crt_stdio_output@@AEAAX_K_N@Z 0000000180038a10 f i libucrt:output.obj
 0001:00037ad8       ??$type_case_integer_parse_into_buffer@_K$0BA@@?$output_processor@_WV?$string_output_adapter@_W@__crt_stdio_output@@V?$format_validation_base@_WV?$string_output_adapter@_W@__crt_stdio_output@@@2@@__crt_stdio_output@@AEAAX_K_N@Z 0000000180038ad8 f i libucrt:output.obj
 0001:00037ba0       ??$type_case_integer_parse_into_buffer@_K$0BA@@?$output_processor@_WV?$string_output_adapter@_W@__crt_stdio_output@@V?$positional_parameter_base@_WV?$string_output_adapter@_W@__crt_stdio_output@@@2@@__crt_stdio_output@@AEAAX_K_N@Z 0000000180038ba0 f i libucrt:output.obj
 0001:00037c68       ??$type_case_integer_parse_into_buffer@_K$0BA@@?$output_processor@_WV?$string_output_adapter@_W@__crt_stdio_output@@V?$standard_base@_WV?$string_output_adapter@_W@__crt_stdio_output@@@2@@__crt_stdio_output@@AEAAX_K_N@Z 0000000180038c68 f i libucrt:output.obj
 0001:00037d30       ??$write_multiple_characters@V?$stream_output_adapter@D@__crt_stdio_output@@D@__crt_stdio_output@@YAXAEBV?$stream_output_adapter@D@0@DHQEAHAEAV__crt_cached_ptd_host@@@Z 0000000180038d30 f i libucrt:output.obj
 0001:00037de8       ??$write_multiple_characters@V?$stream_output_adapter@_W@__crt_stdio_output@@D@__crt_stdio_output@@YAXAEBV?$stream_output_adapter@_W@0@DHQEAHAEAV__crt_cached_ptd_host@@@Z 0000000180038de8 f i libucrt:output.obj
 0001:00037ea4       ??$write_multiple_characters@V?$string_output_adapter@D@__crt_stdio_output@@D@__crt_stdio_output@@YAXAEBV?$string_output_adapter@D@0@DHQEAHAEAV__crt_cached_ptd_host@@@Z 0000000180038ea4 f i libucrt:output.obj
 0001:00037f38       ??$write_multiple_characters@V?$string_output_adapter@_W@__crt_stdio_output@@D@__crt_stdio_output@@YAXAEBV?$string_output_adapter@_W@0@DHQEAHAEAV__crt_cached_ptd_host@@@Z 0000000180038f38 f i libucrt:output.obj
 0001:00038164       ??0?$c_string_character_source@D@__crt_strtox@@QEAA@QEBDQEAPEBD@Z 0000000180039164 f i libucrt:output.obj
 0001:0003817c       ??0?$c_string_character_source@_W@__crt_strtox@@QEAA@QEB_WQEAPEB_W@Z 000000018003917c f i libucrt:output.obj
 0001:00038194       ??0?$cached@H@__crt_cached_ptd_host@@QEAA@XZ 0000000180039194 f i libucrt:output.obj
 0001:000381a0       ??0?$cached@K@__crt_cached_ptd_host@@QEAA@XZ 00000001800391a0 f i libucrt:output.obj
 0001:000381ac       ??0?$common_data@D@__crt_stdio_output@@IEAA@AEAV__crt_cached_ptd_host@@@Z 00000001800391ac f i libucrt:output.obj
 0001:000381f4       ??0?$common_data@_W@__crt_stdio_output@@IEAA@AEAV__crt_cached_ptd_host@@@Z 00000001800391f4 f i libucrt:output.obj
 0001:00038240       ??0?$output_adapter_data@DV?$stream_output_adapter@D@__crt_stdio_output@@@__crt_stdio_output@@IEAA@AEBV?$stream_output_adapter@D@1@_KQEBDAEAV__crt_cached_ptd_host@@QEAD@Z 0000000180039240 f i libucrt:output.obj
 0001:000382b8       ??0?$output_adapter_data@DV?$string_output_adapter@D@__crt_stdio_output@@@__crt_stdio_output@@IEAA@AEBV?$string_output_adapter@D@1@_KQEBDAEAV__crt_cached_ptd_host@@QEAD@Z 00000001800392b8 f i libucrt:output.obj
 0001:00038330       ??0?$output_adapter_data@_WV?$stream_output_adapter@_W@__crt_stdio_output@@@__crt_stdio_output@@IEAA@AEBV?$stream_output_adapter@_W@1@_KQEB_WAEAV__crt_cached_ptd_host@@QEAD@Z 0000000180039330 f i libucrt:output.obj
 0001:000383b0       ??0?$output_adapter_data@_WV?$string_output_adapter@_W@__crt_stdio_output@@@__crt_stdio_output@@IEAA@AEBV?$string_output_adapter@_W@1@_KQEB_WAEAV__crt_cached_ptd_host@@QEAD@Z 00000001800393b0 f i libucrt:output.obj
 0001:00038430       ??0?$output_processor@DV?$stream_output_adapter@D@__crt_stdio_output@@V?$format_validation_base@DV?$stream_output_adapter@D@__crt_stdio_output@@@2@@__crt_stdio_output@@QEAA@AEBV?$stream_output_adapter@D@1@_KQEBDAEAV__crt_cached_ptd_host@@QEAD@Z 0000000180039430 f i libucrt:output.obj
 0001:000384b0       ??0?$output_processor@DV?$stream_output_adapter@D@__crt_stdio_output@@V?$positional_parameter_base@DV?$stream_output_adapter@D@__crt_stdio_output@@@2@@__crt_stdio_output@@QEAA@AEBV?$stream_output_adapter@D@1@_KQEBDAEAV__crt_cached_ptd_host@@QEAD@Z 00000001800394b0 f i libucrt:output.obj
 0001:00038558       ??0?$output_processor@DV?$stream_output_adapter@D@__crt_stdio_output@@V?$standard_base@DV?$stream_output_adapter@D@__crt_stdio_output@@@2@@__crt_stdio_output@@QEAA@AEBV?$stream_output_adapter@D@1@_KQEBDAEAV__crt_cached_ptd_host@@QEAD@Z 0000000180039558 f i libucrt:output.obj
 0001:000385d8       ??0?$output_processor@DV?$string_output_adapter@D@__crt_stdio_output@@V?$format_validation_base@DV?$string_output_adapter@D@__crt_stdio_output@@@2@@__crt_stdio_output@@QEAA@AEBV?$string_output_adapter@D@1@_KQEBDAEAV__crt_cached_ptd_host@@QEAD@Z 00000001800395d8 f i libucrt:output.obj
 0001:00038658       ??0?$output_processor@DV?$string_output_adapter@D@__crt_stdio_output@@V?$positional_parameter_base@DV?$string_output_adapter@D@__crt_stdio_output@@@2@@__crt_stdio_output@@QEAA@AEBV?$string_output_adapter@D@1@_KQEBDAEAV__crt_cached_ptd_host@@QEAD@Z 0000000180039658 f i libucrt:output.obj
 0001:00038700       ??0?$output_processor@DV?$string_output_adapter@D@__crt_stdio_output@@V?$standard_base@DV?$string_output_adapter@D@__crt_stdio_output@@@2@@__crt_stdio_output@@QEAA@AEBV?$string_output_adapter@D@1@_KQEBDAEAV__crt_cached_ptd_host@@QEAD@Z 0000000180039700 f i libucrt:output.obj
 0001:00038780       ??0?$output_processor@_WV?$stream_output_adapter@_W@__crt_stdio_output@@V?$format_validation_base@_WV?$stream_output_adapter@_W@__crt_stdio_output@@@2@@__crt_stdio_output@@QEAA@AEBV?$stream_output_adapter@_W@1@_KQEB_WAEAV__crt_cached_ptd_host@@QEAD@Z 0000000180039780 f i libucrt:output.obj
 0001:00038808       ??0?$output_processor@_WV?$stream_output_adapter@_W@__crt_stdio_output@@V?$positional_parameter_base@_WV?$stream_output_adapter@_W@__crt_stdio_output@@@2@@__crt_stdio_output@@QEAA@AEBV?$stream_output_adapter@_W@1@_KQEB_WAEAV__crt_cached_ptd_host@@QEAD@Z 0000000180039808 f i libucrt:output.obj
 0001:000388b4       ??0?$output_processor@_WV?$stream_output_adapter@_W@__crt_stdio_output@@V?$standard_base@_WV?$stream_output_adapter@_W@__crt_stdio_output@@@2@@__crt_stdio_output@@QEAA@AEBV?$stream_output_adapter@_W@1@_KQEB_WAEAV__crt_cached_ptd_host@@QEAD@Z 00000001800398b4 f i libucrt:output.obj
 0001:0003893c       ??0?$output_processor@_WV?$string_output_adapter@_W@__crt_stdio_output@@V?$format_validation_base@_WV?$string_output_adapter@_W@__crt_stdio_output@@@2@@__crt_stdio_output@@QEAA@AEBV?$string_output_adapter@_W@1@_KQEB_WAEAV__crt_cached_ptd_host@@QEAD@Z 000000018003993c f i libucrt:output.obj
 0001:000389c4       ??0?$output_processor@_WV?$string_output_adapter@_W@__crt_stdio_output@@V?$positional_parameter_base@_WV?$string_output_adapter@_W@__crt_stdio_output@@@2@@__crt_stdio_output@@QEAA@AEBV?$string_output_adapter@_W@1@_KQEB_WAEAV__crt_cached_ptd_host@@QEAD@Z 00000001800399c4 f i libucrt:output.obj
 0001:00038a70       ??0?$output_processor@_WV?$string_output_adapter@_W@__crt_stdio_output@@V?$standard_base@_WV?$string_output_adapter@_W@__crt_stdio_output@@@2@@__crt_stdio_output@@QEAA@AEBV?$string_output_adapter@_W@1@_KQEB_WAEAV__crt_cached_ptd_host@@QEAD@Z 0000000180039a70 f i libucrt:output.obj
 0001:00038af8       ??0?$stream_output_adapter@D@__crt_stdio_output@@QEAA@QEAU_iobuf@@@Z 0000000180039af8 f i libucrt:output.obj
 0001:00038b00       ??0?$stream_output_adapter@_W@__crt_stdio_output@@QEAA@QEAU_iobuf@@@Z 0000000180039b00 f i libucrt:output.obj
 0001:00038b08       ??0?$string_output_adapter@D@__crt_stdio_output@@QEAA@QEAU?$string_output_adapter_context@D@1@@Z 0000000180039b08 f i libucrt:output.obj
 0001:00038b10       ??0?$string_output_adapter@_W@__crt_stdio_output@@QEAA@QEAU?$string_output_adapter_context@_W@1@@Z 0000000180039b10 f i libucrt:output.obj
 0001:00038b18       ??0__acrt_stdio_temporary_buffering_guard@@QEAA@QEAU_iobuf@@AEAV__crt_cached_ptd_host@@@Z 0000000180039b18 f i libucrt:output.obj
 0001:00038b50       ??0__crt_cached_ptd_host@@QEAA@QEAU__crt_locale_pointers@@@Z 0000000180039b50 f i libucrt:output.obj
 0001:00038ba8       ??0__crt_scoped_get_last_error_reset@@QEAA@XZ 0000000180039ba8 f i libucrt:output.obj
 0001:00038bc8       ??0__crt_stdio_stream@@QEAA@QEAU_iobuf@@@Z 0000000180039bc8 f i libucrt:output.obj
 0001:00038bd0       ??0formatting_buffer@__crt_stdio_output@@QEAA@XZ 0000000180039bd0 f i libucrt:output.obj
 0001:00038bec       ??0guard@?$cached@H@__crt_cached_ptd_host@@QEAA@AEAU12@@Z 0000000180039bec f i libucrt:output.obj
 0001:00038c04       ??1?$c_string_character_source@D@__crt_strtox@@QEAA@XZ 0000000180039c04 f i libucrt:output.obj
 0001:00038c18       ??1?$c_string_character_source@_W@__crt_strtox@@QEAA@XZ 0000000180039c18 f i libucrt:output.obj
 0001:00038c2c       ??1?$common_data@D@__crt_stdio_output@@QEAA@XZ 0000000180039c2c f i libucrt:output.obj
 0001:00038c58       ??1?$common_data@_W@__crt_stdio_output@@QEAA@XZ 0000000180039c58 f i libucrt:output.obj
 0001:00038c84       ??1?$format_validation_base@DV?$stream_output_adapter@D@__crt_stdio_output@@@__crt_stdio_output@@QEAA@XZ 0000000180039c84 f i libucrt:output.obj
 0001:00038cb0       ??1?$format_validation_base@DV?$string_output_adapter@D@__crt_stdio_output@@@__crt_stdio_output@@QEAA@XZ 0000000180039cb0 f i libucrt:output.obj
 0001:00038cdc       ??1?$format_validation_base@_WV?$stream_output_adapter@_W@__crt_stdio_output@@@__crt_stdio_output@@QEAA@XZ 0000000180039cdc f i libucrt:output.obj
 0001:00038d08       ??1?$format_validation_base@_WV?$string_output_adapter@_W@__crt_stdio_output@@@__crt_stdio_output@@QEAA@XZ 0000000180039d08 f i libucrt:output.obj
 0001:00038d34       ??1?$output_adapter_data@DV?$stream_output_adapter@D@__crt_stdio_output@@@__crt_stdio_output@@QEAA@XZ 0000000180039d34 f i libucrt:output.obj
 0001:00038d60       ??1?$output_adapter_data@DV?$string_output_adapter@D@__crt_stdio_output@@@__crt_stdio_output@@QEAA@XZ 0000000180039d60 f i libucrt:output.obj
 0001:00038d8c       ??1?$output_adapter_data@_WV?$stream_output_adapter@_W@__crt_stdio_output@@@__crt_stdio_output@@QEAA@XZ 0000000180039d8c f i libucrt:output.obj
 0001:00038db8       ??1?$output_adapter_data@_WV?$string_output_adapter@_W@__crt_stdio_output@@@__crt_stdio_output@@QEAA@XZ 0000000180039db8 f i libucrt:output.obj
 0001:00038de4       ??1?$output_processor@DV?$stream_output_adapter@D@__crt_stdio_output@@V?$format_validation_base@DV?$stream_output_adapter@D@__crt_stdio_output@@@2@@__crt_stdio_output@@QEAA@XZ 0000000180039de4 f i libucrt:output.obj
 0001:00038e10       ??1?$output_processor@DV?$stream_output_adapter@D@__crt_stdio_output@@V?$positional_parameter_base@DV?$stream_output_adapter@D@__crt_stdio_output@@@2@@__crt_stdio_output@@QEAA@XZ 0000000180039e10 f i libucrt:output.obj
 0001:00038e3c       ??1?$output_processor@DV?$stream_output_adapter@D@__crt_stdio_output@@V?$standard_base@DV?$stream_output_adapter@D@__crt_stdio_output@@@2@@__crt_stdio_output@@QEAA@XZ 0000000180039e3c f i libucrt:output.obj
 0001:00038e68       ??1?$output_processor@DV?$string_output_adapter@D@__crt_stdio_output@@V?$format_validation_base@DV?$string_output_adapter@D@__crt_stdio_output@@@2@@__crt_stdio_output@@QEAA@XZ 0000000180039e68 f i libucrt:output.obj
 0001:00038e94       ??1?$output_processor@DV?$string_output_adapter@D@__crt_stdio_output@@V?$positional_parameter_base@DV?$string_output_adapter@D@__crt_stdio_output@@@2@@__crt_stdio_output@@QEAA@XZ 0000000180039e94 f i libucrt:output.obj
 0001:00038ec0       ??1?$output_processor@DV?$string_output_adapter@D@__crt_stdio_output@@V?$standard_base@DV?$string_output_adapter@D@__crt_stdio_output@@@2@@__crt_stdio_output@@QEAA@XZ 0000000180039ec0 f i libucrt:output.obj
 0001:00038eec       ??1?$output_processor@_WV?$stream_output_adapter@_W@__crt_stdio_output@@V?$format_validation_base@_WV?$stream_output_adapter@_W@__crt_stdio_output@@@2@@__crt_stdio_output@@QEAA@XZ 0000000180039eec f i libucrt:output.obj
 0001:00038f18       ??1?$output_processor@_WV?$stream_output_adapter@_W@__crt_stdio_output@@V?$positional_parameter_base@_WV?$stream_output_adapter@_W@__crt_stdio_output@@@2@@__crt_stdio_output@@QEAA@XZ 0000000180039f18 f i libucrt:output.obj
 0001:00038f44       ??1?$output_processor@_WV?$stream_output_adapter@_W@__crt_stdio_output@@V?$standard_base@_WV?$stream_output_adapter@_W@__crt_stdio_output@@@2@@__crt_stdio_output@@QEAA@XZ 0000000180039f44 f i libucrt:output.obj
 0001:00038f70       ??1?$output_processor@_WV?$string_output_adapter@_W@__crt_stdio_output@@V?$format_validation_base@_WV?$string_output_adapter@_W@__crt_stdio_output@@@2@@__crt_stdio_output@@QEAA@XZ 0000000180039f70 f i libucrt:output.obj
 0001:00038f9c       ??1?$output_processor@_WV?$string_output_adapter@_W@__crt_stdio_output@@V?$positional_parameter_base@_WV?$string_output_adapter@_W@__crt_stdio_output@@@2@@__crt_stdio_output@@QEAA@XZ 0000000180039f9c f i libucrt:output.obj
 0001:00038fc8       ??1?$output_processor@_WV?$string_output_adapter@_W@__crt_stdio_output@@V?$standard_base@_WV?$string_output_adapter@_W@__crt_stdio_output@@@2@@__crt_stdio_output@@QEAA@XZ 0000000180039fc8 f i libucrt:output.obj
 0001:00038ff4       ??1?$positional_parameter_base@DV?$stream_output_adapter@D@__crt_stdio_output@@@__crt_stdio_output@@QEAA@XZ 0000000180039ff4 f i libucrt:output.obj
 0001:00039020       ??1?$positional_parameter_base@DV?$string_output_adapter@D@__crt_stdio_output@@@__crt_stdio_output@@QEAA@XZ 000000018003a020 f i libucrt:output.obj
 0001:0003904c       ??1?$positional_parameter_base@_WV?$stream_output_adapter@_W@__crt_stdio_output@@@__crt_stdio_output@@QEAA@XZ 000000018003a04c f i libucrt:output.obj
 0001:00039078       ??1?$positional_parameter_base@_WV?$string_output_adapter@_W@__crt_stdio_output@@@__crt_stdio_output@@QEAA@XZ 000000018003a078 f i libucrt:output.obj
 0001:000390a4       ??1?$standard_base@DV?$stream_output_adapter@D@__crt_stdio_output@@@__crt_stdio_output@@QEAA@XZ 000000018003a0a4 f i libucrt:output.obj
 0001:000390d0       ??1?$standard_base@DV?$string_output_adapter@D@__crt_stdio_output@@@__crt_stdio_output@@QEAA@XZ 000000018003a0d0 f i libucrt:output.obj
 0001:000390fc       ??1?$standard_base@_WV?$stream_output_adapter@_W@__crt_stdio_output@@@__crt_stdio_output@@QEAA@XZ 000000018003a0fc f i libucrt:output.obj
 0001:00039128       ??1?$standard_base@_WV?$string_output_adapter@_W@__crt_stdio_output@@@__crt_stdio_output@@QEAA@XZ 000000018003a128 f i libucrt:output.obj
 0001:00039154       ??1__acrt_stdio_temporary_buffering_guard@@QEAA@XZ 000000018003a154 f i libucrt:output.obj
 0001:00039170       ??1__crt_cached_ptd_host@@QEAA@XZ 000000018003a170 f i libucrt:output.obj
 0001:000391d4       ??1__crt_scoped_get_last_error_reset@@QEAA@XZ 000000018003a1d4 f i libucrt:output.obj
 0001:000391e0       ??1formatting_buffer@__crt_stdio_output@@QEAA@XZ 000000018003a1e0 f i libucrt:output.obj
 0001:0003920c       ??1guard@?$cached@H@__crt_cached_ptd_host@@QEAA@XZ 000000018003a20c f i libucrt:output.obj
 0001:00039224       ??4?$__crt_unique_heap_ptr@DU__crt_internal_free_policy@@@@QEAAAEAV0@$$QEAV0@@Z 000000018003a224 f i libucrt:output.obj
 0001:00039268       ??A?$spectre_mitigated_lookup_table@Ustate_transition_pair@__crt_stdio_output@@$0IA@@__crt_stdio_output@@QEBAAEBUstate_transition_pair@1@_K@Z 000000018003a268 f i libucrt:output.obj
 0001:00039274       ??C__crt_stdio_stream@@QEBAPEAU__crt_stdio_stream_data@@XZ 000000018003a274 f i libucrt:output.obj
 0001:00039ba8       ?adjust_hexit@?$output_processor@DV?$stream_output_adapter@D@__crt_stdio_output@@V?$format_validation_base@DV?$stream_output_adapter@D@__crt_stdio_output@@@2@@__crt_stdio_output@@CADH_N@Z 000000018003aba8 f i libucrt:output.obj
 0001:00039bb8       ?adjust_hexit@?$output_processor@DV?$stream_output_adapter@D@__crt_stdio_output@@V?$positional_parameter_base@DV?$stream_output_adapter@D@__crt_stdio_output@@@2@@__crt_stdio_output@@CADH_N@Z 000000018003abb8 f i libucrt:output.obj
 0001:00039bc8       ?adjust_hexit@?$output_processor@DV?$stream_output_adapter@D@__crt_stdio_output@@V?$standard_base@DV?$stream_output_adapter@D@__crt_stdio_output@@@2@@__crt_stdio_output@@CADH_N@Z 000000018003abc8 f i libucrt:output.obj
 0001:00039bd8       ?adjust_hexit@?$output_processor@DV?$string_output_adapter@D@__crt_stdio_output@@V?$format_validation_base@DV?$string_output_adapter@D@__crt_stdio_output@@@2@@__crt_stdio_output@@CADH_N@Z 000000018003abd8 f i libucrt:output.obj
 0001:00039be8       ?adjust_hexit@?$output_processor@DV?$string_output_adapter@D@__crt_stdio_output@@V?$positional_parameter_base@DV?$string_output_adapter@D@__crt_stdio_output@@@2@@__crt_stdio_output@@CADH_N@Z 000000018003abe8 f i libucrt:output.obj
 0001:00039bf8       ?adjust_hexit@?$output_processor@DV?$string_output_adapter@D@__crt_stdio_output@@V?$standard_base@DV?$string_output_adapter@D@__crt_stdio_output@@@2@@__crt_stdio_output@@CADH_N@Z 000000018003abf8 f i libucrt:output.obj
 0001:00039c08       ?adjust_hexit@?$output_processor@_WV?$stream_output_adapter@_W@__crt_stdio_output@@V?$format_validation_base@_WV?$stream_output_adapter@_W@__crt_stdio_output@@@2@@__crt_stdio_output@@CADH_N@Z 000000018003ac08 f i libucrt:output.obj
 0001:00039c18       ?adjust_hexit@?$output_processor@_WV?$stream_output_adapter@_W@__crt_stdio_output@@V?$positional_parameter_base@_WV?$stream_output_adapter@_W@__crt_stdio_output@@@2@@__crt_stdio_output@@CADH_N@Z 000000018003ac18 f i libucrt:output.obj
 0001:00039c28       ?adjust_hexit@?$output_processor@_WV?$stream_output_adapter@_W@__crt_stdio_output@@V?$standard_base@_WV?$stream_output_adapter@_W@__crt_stdio_output@@@2@@__crt_stdio_output@@CADH_N@Z 000000018003ac28 f i libucrt:output.obj
 0001:00039c38       ?adjust_hexit@?$output_processor@_WV?$string_output_adapter@_W@__crt_stdio_output@@V?$format_validation_base@_WV?$string_output_adapter@_W@__crt_stdio_output@@@2@@__crt_stdio_output@@CADH_N@Z 000000018003ac38 f i libucrt:output.obj
 0001:00039c48       ?adjust_hexit@?$output_processor@_WV?$string_output_adapter@_W@__crt_stdio_output@@V?$positional_parameter_base@_WV?$string_output_adapter@_W@__crt_stdio_output@@@2@@__crt_stdio_output@@CADH_N@Z 000000018003ac48 f i libucrt:output.obj
 0001:00039c58       ?adjust_hexit@?$output_processor@_WV?$string_output_adapter@_W@__crt_stdio_output@@V?$standard_base@_WV?$string_output_adapter@_W@__crt_stdio_output@@@2@@__crt_stdio_output@@CADH_N@Z 000000018003ac58 f i libucrt:output.obj
 0001:00039c68       ?advance_to_next_pass@?$positional_parameter_base@DV?$stream_output_adapter@D@__crt_stdio_output@@@__crt_stdio_output@@IEAA_NXZ 000000018003ac68 f i libucrt:output.obj
 0001:00039cd0       ?advance_to_next_pass@?$positional_parameter_base@DV?$string_output_adapter@D@__crt_stdio_output@@@__crt_stdio_output@@IEAA_NXZ 000000018003acd0 f i libucrt:output.obj
 0001:00039d38       ?advance_to_next_pass@?$positional_parameter_base@_WV?$stream_output_adapter@_W@__crt_stdio_output@@@__crt_stdio_output@@IEAA_NXZ 000000018003ad38 f i libucrt:output.obj
 0001:00039da0       ?advance_to_next_pass@?$positional_parameter_base@_WV?$string_output_adapter@_W@__crt_stdio_output@@@__crt_stdio_output@@IEAA_NXZ 000000018003ada0 f i libucrt:output.obj
 0001:00039e08       ?advance_to_next_pass@?$standard_base@DV?$stream_output_adapter@D@__crt_stdio_output@@@__crt_stdio_output@@IEAA_NXZ 000000018003ae08 f i libucrt:output.obj
 0001:00039e20       ?advance_to_next_pass@?$standard_base@DV?$string_output_adapter@D@__crt_stdio_output@@@__crt_stdio_output@@IEAA_NXZ 000000018003ae20 f i libucrt:output.obj
 0001:00039e38       ?advance_to_next_pass@?$standard_base@_WV?$stream_output_adapter@_W@__crt_stdio_output@@@__crt_stdio_output@@IEAA_NXZ 000000018003ae38 f i libucrt:output.obj
 0001:00039e50       ?advance_to_next_pass@?$standard_base@_WV?$string_output_adapter@_W@__crt_stdio_output@@@__crt_stdio_output@@IEAA_NXZ 000000018003ae50 f i libucrt:output.obj
 0001:00039e68       ?check@?$cached@H@__crt_cached_ptd_host@@QEBA_NH@Z 000000018003ae68 f i libucrt:output.obj
 0001:00039e80       ?check_synchronize_global_state_index@__crt_cached_ptd_host@@AEAA_KAEBV__crt_scoped_get_last_error_reset@@@Z 000000018003ae80 f i libucrt:output.obj
 0001:00039ea0       ?check_synchronize_per_thread_data@__crt_cached_ptd_host@@AEAAPEAU__acrt_ptd@@XZ 000000018003aea0 f i libucrt:output.obj
 0001:00039f20       ?create_guard@?$cached@H@__crt_cached_ptd_host@@QEAA?AVguard@12@XZ 000000018003af20 f i libucrt:output.obj
 0001:00039f38       ?crop_zeroes@__crt_stdio_output@@YAXPEADQEAU__crt_locale_pointers@@@Z 000000018003af38 f i libucrt:output.obj
 0001:00039fbc       ?disable@guard@?$cached@H@__crt_cached_ptd_host@@QEAAXXZ 000000018003afbc f i libucrt:output.obj
 0001:00039fc4       ?enable@guard@?$cached@H@__crt_cached_ptd_host@@QEAAXXZ 000000018003afc4 f i libucrt:output.obj
 0001:00039fcc       ?find_next_state@?$output_processor@DV?$stream_output_adapter@D@__crt_stdio_output@@V?$format_validation_base@DV?$stream_output_adapter@D@__crt_stdio_output@@@2@@__crt_stdio_output@@AEBA?AW4state@2@DW432@@Z 000000018003afcc f i libucrt:output.obj
 0001:0003a010       ?find_next_state@?$output_processor@DV?$stream_output_adapter@D@__crt_stdio_output@@V?$positional_parameter_base@DV?$stream_output_adapter@D@__crt_stdio_output@@@2@@__crt_stdio_output@@AEBA?AW4state@2@DW432@@Z 000000018003b010 f i libucrt:output.obj
 0001:0003a054       ?find_next_state@?$output_processor@DV?$stream_output_adapter@D@__crt_stdio_output@@V?$standard_base@DV?$stream_output_adapter@D@__crt_stdio_output@@@2@@__crt_stdio_output@@AEBA?AW4state@2@DW432@@Z 000000018003b054 f i libucrt:output.obj
 0001:0003a098       ?find_next_state@?$output_processor@DV?$string_output_adapter@D@__crt_stdio_output@@V?$format_validation_base@DV?$string_output_adapter@D@__crt_stdio_output@@@2@@__crt_stdio_output@@AEBA?AW4state@2@DW432@@Z 000000018003b098 f i libucrt:output.obj
 0001:0003a0dc       ?find_next_state@?$output_processor@DV?$string_output_adapter@D@__crt_stdio_output@@V?$positional_parameter_base@DV?$string_output_adapter@D@__crt_stdio_output@@@2@@__crt_stdio_output@@AEBA?AW4state@2@DW432@@Z 000000018003b0dc f i libucrt:output.obj
 0001:0003a120       ?find_next_state@?$output_processor@DV?$string_output_adapter@D@__crt_stdio_output@@V?$standard_base@DV?$string_output_adapter@D@__crt_stdio_output@@@2@@__crt_stdio_output@@AEBA?AW4state@2@DW432@@Z 000000018003b120 f i libucrt:output.obj
 0001:0003a164       ?find_next_state@?$output_processor@_WV?$stream_output_adapter@_W@__crt_stdio_output@@V?$format_validation_base@_WV?$stream_output_adapter@_W@__crt_stdio_output@@@2@@__crt_stdio_output@@AEBA?AW4state@2@_WW432@@Z 000000018003b164 f i libucrt:output.obj
 0001:0003a1b4       ?find_next_state@?$output_processor@_WV?$stream_output_adapter@_W@__crt_stdio_output@@V?$positional_parameter_base@_WV?$stream_output_adapter@_W@__crt_stdio_output@@@2@@__crt_stdio_output@@AEBA?AW4state@2@_WW432@@Z 000000018003b1b4 f i libucrt:output.obj
 0001:0003a204       ?find_next_state@?$output_processor@_WV?$stream_output_adapter@_W@__crt_stdio_output@@V?$standard_base@_WV?$stream_output_adapter@_W@__crt_stdio_output@@@2@@__crt_stdio_output@@AEBA?AW4state@2@_WW432@@Z 000000018003b204 f i libucrt:output.obj
 0001:0003a250       ?find_next_state@?$output_processor@_WV?$string_output_adapter@_W@__crt_stdio_output@@V?$format_validation_base@_WV?$string_output_adapter@_W@__crt_stdio_output@@@2@@__crt_stdio_output@@AEBA?AW4state@2@_WW432@@Z 000000018003b250 f i libucrt:output.obj
 0001:0003a2a0       ?find_next_state@?$output_processor@_WV?$string_output_adapter@_W@__crt_stdio_output@@V?$positional_parameter_base@_WV?$string_output_adapter@_W@__crt_stdio_output@@@2@@__crt_stdio_output@@AEBA?AW4state@2@_WW432@@Z 000000018003b2a0 f i libucrt:output.obj
 0001:0003a2f0       ?find_next_state@?$output_processor@_WV?$string_output_adapter@_W@__crt_stdio_output@@V?$standard_base@_WV?$string_output_adapter@_W@__crt_stdio_output@@@2@@__crt_stdio_output@@AEBA?AW4state@2@_WW432@@Z 000000018003b2f0 f i libucrt:output.obj
 0001:0003a33c       ?force_decimal_point@__crt_stdio_output@@YAXPEADQEAU__crt_locale_pointers@@@Z 000000018003b33c f i libucrt:output.obj
 0001:0003a3c0       ?force_synchronize_global_state_index@__crt_cached_ptd_host@@AEAA_KAEBV__crt_scoped_get_last_error_reset@@@Z 000000018003b3c0 f i libucrt:output.obj
 0001:0003a3e0       ?force_synchronize_per_thread_data@__crt_cached_ptd_host@@AEAAPEAU__acrt_ptd@@XZ 000000018003b3e0 f i libucrt:output.obj
 0001:0003a44c       ?get@?$c_string_character_source@D@__crt_strtox@@QEAADXZ 000000018003b44c f i libucrt:output.obj
 0001:0003a45c       ?get@?$c_string_character_source@_W@__crt_strtox@@QEAA_WXZ 000000018003b45c f i libucrt:output.obj
 0001:0003a470       ?get_current_state_index@__crt_state_management@@YA_KAEBV__crt_scoped_get_last_error_reset@@@Z 000000018003b470 f i libucrt:output.obj
 0001:0003a480       ?get_errno@__crt_cached_ptd_host@@QEAA@XZ 000000018003b480 f i libucrt:output.obj
 0001:0003a488       ?get_flags@__crt_stdio_stream@@QEBAJXZ 000000018003b488 f i libucrt:output.obj
 0001:0003a4a0       ?get_locale@__crt_cached_ptd_host@@QEAAPEAU__crt_locale_pointers@@XZ 000000018003b4a0 f i libucrt:output.obj
 0001:0003a4d4       ?get_parameter_type@?$positional_parameter_base@DV?$stream_output_adapter@D@__crt_stdio_output@@@__crt_stdio_output@@CA?AW4parameter_type@12@F@Z 000000018003b4d4 f i libucrt:output.obj
 0001:0003a4dc       ?get_parameter_type@?$positional_parameter_base@DV?$stream_output_adapter@D@__crt_stdio_output@@@__crt_stdio_output@@CA?AW4parameter_type@12@G@Z 000000018003b4dc f i libucrt:output.obj
 0001:0003a4e4       ?get_parameter_type@?$positional_parameter_base@DV?$stream_output_adapter@D@__crt_stdio_output@@@__crt_stdio_output@@CA?AW4parameter_type@12@H@Z 000000018003b4e4 f i libucrt:output.obj
 0001:0003a4ec       ?get_parameter_type@?$positional_parameter_base@DV?$stream_output_adapter@D@__crt_stdio_output@@@__crt_stdio_output@@CA?AW4parameter_type@12@I@Z 000000018003b4ec f i libucrt:output.obj
 0001:0003a4f4       ?get_parameter_type@?$positional_parameter_base@DV?$stream_output_adapter@D@__crt_stdio_output@@@__crt_stdio_output@@CA?AW4parameter_type@12@U_CRT_DOUBLE@@@Z 000000018003b4f4 f i libucrt:output.obj
 0001:0003a4fc       ?get_parameter_type@?$positional_parameter_base@DV?$stream_output_adapter@D@__crt_stdio_output@@@__crt_stdio_output@@CA?AW4parameter_type@12@_J@Z 000000018003b4fc f i libucrt:output.obj
 0001:0003a504       ?get_parameter_type@?$positional_parameter_base@DV?$stream_output_adapter@D@__crt_stdio_output@@@__crt_stdio_output@@CA?AW4parameter_type@12@_K@Z 000000018003b504 f i libucrt:output.obj
 0001:0003a50c       ?get_parameter_type@?$positional_parameter_base@DV?$stream_output_adapter@D@__crt_stdio_output@@@__crt_stdio_output@@CA?AW4parameter_type@12@_W@Z 000000018003b50c f i libucrt:output.obj
 0001:0003a514       ?get_parameter_type@?$positional_parameter_base@DV?$string_output_adapter@D@__crt_stdio_output@@@__crt_stdio_output@@CA?AW4parameter_type@12@F@Z 000000018003b514 f i libucrt:output.obj
 0001:0003a51c       ?get_parameter_type@?$positional_parameter_base@DV?$string_output_adapter@D@__crt_stdio_output@@@__crt_stdio_output@@CA?AW4parameter_type@12@G@Z 000000018003b51c f i libucrt:output.obj
 0001:0003a524       ?get_parameter_type@?$positional_parameter_base@DV?$string_output_adapter@D@__crt_stdio_output@@@__crt_stdio_output@@CA?AW4parameter_type@12@H@Z 000000018003b524 f i libucrt:output.obj
 0001:0003a52c       ?get_parameter_type@?$positional_parameter_base@DV?$string_output_adapter@D@__crt_stdio_output@@@__crt_stdio_output@@CA?AW4parameter_type@12@I@Z 000000018003b52c f i libucrt:output.obj
 0001:0003a534       ?get_parameter_type@?$positional_parameter_base@DV?$string_output_adapter@D@__crt_stdio_output@@@__crt_stdio_output@@CA?AW4parameter_type@12@U_CRT_DOUBLE@@@Z 000000018003b534 f i libucrt:output.obj
 0001:0003a53c       ?get_parameter_type@?$positional_parameter_base@DV?$string_output_adapter@D@__crt_stdio_output@@@__crt_stdio_output@@CA?AW4parameter_type@12@_J@Z 000000018003b53c f i libucrt:output.obj
 0001:0003a544       ?get_parameter_type@?$positional_parameter_base@DV?$string_output_adapter@D@__crt_stdio_output@@@__crt_stdio_output@@CA?AW4parameter_type@12@_K@Z 000000018003b544 f i libucrt:output.obj
 0001:0003a54c       ?get_parameter_type@?$positional_parameter_base@DV?$string_output_adapter@D@__crt_stdio_output@@@__crt_stdio_output@@CA?AW4parameter_type@12@_W@Z 000000018003b54c f i libucrt:output.obj
 0001:0003a554       ?get_parameter_type@?$positional_parameter_base@_WV?$stream_output_adapter@_W@__crt_stdio_output@@@__crt_stdio_output@@CA?AW4parameter_type@12@F@Z 000000018003b554 f i libucrt:output.obj
 0001:0003a55c       ?get_parameter_type@?$positional_parameter_base@_WV?$stream_output_adapter@_W@__crt_stdio_output@@@__crt_stdio_output@@CA?AW4parameter_type@12@G@Z 000000018003b55c f i libucrt:output.obj
 0001:0003a564       ?get_parameter_type@?$positional_parameter_base@_WV?$stream_output_adapter@_W@__crt_stdio_output@@@__crt_stdio_output@@CA?AW4parameter_type@12@H@Z 000000018003b564 f i libucrt:output.obj
 0001:0003a56c       ?get_parameter_type@?$positional_parameter_base@_WV?$stream_output_adapter@_W@__crt_stdio_output@@@__crt_stdio_output@@CA?AW4parameter_type@12@I@Z 000000018003b56c f i libucrt:output.obj
 0001:0003a574       ?get_parameter_type@?$positional_parameter_base@_WV?$stream_output_adapter@_W@__crt_stdio_output@@@__crt_stdio_output@@CA?AW4parameter_type@12@U_CRT_DOUBLE@@@Z 000000018003b574 f i libucrt:output.obj
 0001:0003a57c       ?get_parameter_type@?$positional_parameter_base@_WV?$stream_output_adapter@_W@__crt_stdio_output@@@__crt_stdio_output@@CA?AW4parameter_type@12@_J@Z 000000018003b57c f i libucrt:output.obj
 0001:0003a584       ?get_parameter_type@?$positional_parameter_base@_WV?$stream_output_adapter@_W@__crt_stdio_output@@@__crt_stdio_output@@CA?AW4parameter_type@12@_K@Z 000000018003b584 f i libucrt:output.obj
 0001:0003a58c       ?get_parameter_type@?$positional_parameter_base@_WV?$stream_output_adapter@_W@__crt_stdio_output@@@__crt_stdio_output@@CA?AW4parameter_type@12@_W@Z 000000018003b58c f i libucrt:output.obj
 0001:0003a594       ?get_parameter_type@?$positional_parameter_base@_WV?$string_output_adapter@_W@__crt_stdio_output@@@__crt_stdio_output@@CA?AW4parameter_type@12@F@Z 000000018003b594 f i libucrt:output.obj
 0001:0003a59c       ?get_parameter_type@?$positional_parameter_base@_WV?$string_output_adapter@_W@__crt_stdio_output@@@__crt_stdio_output@@CA?AW4parameter_type@12@G@Z 000000018003b59c f i libucrt:output.obj
 0001:0003a5a4       ?get_parameter_type@?$positional_parameter_base@_WV?$string_output_adapter@_W@__crt_stdio_output@@@__crt_stdio_output@@CA?AW4parameter_type@12@H@Z 000000018003b5a4 f i libucrt:output.obj
 0001:0003a5ac       ?get_parameter_type@?$positional_parameter_base@_WV?$string_output_adapter@_W@__crt_stdio_output@@@__crt_stdio_output@@CA?AW4parameter_type@12@I@Z 000000018003b5ac f i libucrt:output.obj
 0001:0003a5b4       ?get_parameter_type@?$positional_parameter_base@_WV?$string_output_adapter@_W@__crt_stdio_output@@@__crt_stdio_output@@CA?AW4parameter_type@12@U_CRT_DOUBLE@@@Z 000000018003b5b4 f i libucrt:output.obj
 0001:0003a5bc       ?get_parameter_type@?$positional_parameter_base@_WV?$string_output_adapter@_W@__crt_stdio_output@@@__crt_stdio_output@@CA?AW4parameter_type@12@_J@Z 000000018003b5bc f i libucrt:output.obj
 0001:0003a5c4       ?get_parameter_type@?$positional_parameter_base@_WV?$string_output_adapter@_W@__crt_stdio_output@@@__crt_stdio_output@@CA?AW4parameter_type@12@_K@Z 000000018003b5c4 f i libucrt:output.obj
 0001:0003a5cc       ?get_parameter_type@?$positional_parameter_base@_WV?$string_output_adapter@_W@__crt_stdio_output@@@__crt_stdio_output@@CA?AW4parameter_type@12@_W@Z 000000018003b5cc f i libucrt:output.obj
 0001:0003a5e0       ?get_raw_ptd@__crt_cached_ptd_host@@QEAAPEAU__acrt_ptd@@XZ 000000018003b5e0 f i libucrt:output.obj
 0001:0003a660       ?has_flag@?$output_processor@DV?$stream_output_adapter@D@__crt_stdio_output@@V?$format_validation_base@DV?$stream_output_adapter@D@__crt_stdio_output@@@2@@__crt_stdio_output@@AEBA_NI@Z 000000018003b660 f i libucrt:output.obj
 0001:0003a668       ?has_flag@?$output_processor@DV?$stream_output_adapter@D@__crt_stdio_output@@V?$positional_parameter_base@DV?$stream_output_adapter@D@__crt_stdio_output@@@2@@__crt_stdio_output@@AEBA_NI@Z 000000018003b668 f i libucrt:output.obj
 0001:0003a670       ?has_flag@?$output_processor@DV?$stream_output_adapter@D@__crt_stdio_output@@V?$standard_base@DV?$stream_output_adapter@D@__crt_stdio_output@@@2@@__crt_stdio_output@@AEBA_NI@Z 000000018003b670 f i libucrt:output.obj
 0001:0003a678       ?has_flag@?$output_processor@DV?$string_output_adapter@D@__crt_stdio_output@@V?$format_validation_base@DV?$string_output_adapter@D@__crt_stdio_output@@@2@@__crt_stdio_output@@AEBA_NI@Z 000000018003b678 f i libucrt:output.obj
 0001:0003a680       ?has_flag@?$output_processor@DV?$string_output_adapter@D@__crt_stdio_output@@V?$positional_parameter_base@DV?$string_output_adapter@D@__crt_stdio_output@@@2@@__crt_stdio_output@@AEBA_NI@Z 000000018003b680 f i libucrt:output.obj
 0001:0003a688       ?has_flag@?$output_processor@DV?$string_output_adapter@D@__crt_stdio_output@@V?$standard_base@DV?$string_output_adapter@D@__crt_stdio_output@@@2@@__crt_stdio_output@@AEBA_NI@Z 000000018003b688 f i libucrt:output.obj
 0001:0003a690       ?has_flag@?$output_processor@_WV?$stream_output_adapter@_W@__crt_stdio_output@@V?$format_validation_base@_WV?$stream_output_adapter@_W@__crt_stdio_output@@@2@@__crt_stdio_output@@AEBA_NI@Z 000000018003b690 f i libucrt:output.obj
 0001:0003a698       ?has_flag@?$output_processor@_WV?$stream_output_adapter@_W@__crt_stdio_output@@V?$positional_parameter_base@_WV?$stream_output_adapter@_W@__crt_stdio_output@@@2@@__crt_stdio_output@@AEBA_NI@Z 000000018003b698 f i libucrt:output.obj
 0001:0003a6a0       ?has_flag@?$output_processor@_WV?$stream_output_adapter@_W@__crt_stdio_output@@V?$standard_base@_WV?$stream_output_adapter@_W@__crt_stdio_output@@@2@@__crt_stdio_output@@AEBA_NI@Z 000000018003b6a0 f i libucrt:output.obj
 0001:0003a6a8       ?has_flag@?$output_processor@_WV?$string_output_adapter@_W@__crt_stdio_output@@V?$format_validation_base@_WV?$string_output_adapter@_W@__crt_stdio_output@@@2@@__crt_stdio_output@@AEBA_NI@Z 000000018003b6a8 f i libucrt:output.obj
 0001:0003a6b0       ?has_flag@?$output_processor@_WV?$string_output_adapter@_W@__crt_stdio_output@@V?$positional_parameter_base@_WV?$string_output_adapter@_W@__crt_stdio_output@@@2@@__crt_stdio_output@@AEBA_NI@Z 000000018003b6b0 f i libucrt:output.obj
 0001:0003a6b8       ?has_flag@?$output_processor@_WV?$string_output_adapter@_W@__crt_stdio_output@@V?$standard_base@_WV?$string_output_adapter@_W@__crt_stdio_output@@@2@@__crt_stdio_output@@AEBA_NI@Z 000000018003b6b8 f i libucrt:output.obj
 0001:0003a6c0       ?is_positional_parameter_reappearance_consistent@?$positional_parameter_base@DV?$stream_output_adapter@D@__crt_stdio_output@@@__crt_stdio_output@@AEAA_NAEBUparameter_data@12@W4parameter_type@12@DW4length_modifier@2@@Z 000000018003b6c0 f i libucrt:output.obj
 0001:0003a984       ?is_positional_parameter_reappearance_consistent@?$positional_parameter_base@DV?$string_output_adapter@D@__crt_stdio_output@@@__crt_stdio_output@@AEAA_NAEBUparameter_data@12@W4parameter_type@12@DW4length_modifier@2@@Z 000000018003b984 f i libucrt:output.obj
 0001:0003ac48       ?is_positional_parameter_reappearance_consistent@?$positional_parameter_base@_WV?$stream_output_adapter@_W@__crt_stdio_output@@@__crt_stdio_output@@AEAA_NAEBUparameter_data@12@W4parameter_type@12@_WW4length_modifier@2@@Z 000000018003bc48 f i libucrt:output.obj
 0001:0003aecc       ?is_positional_parameter_reappearance_consistent@?$positional_parameter_base@_WV?$string_output_adapter@_W@__crt_stdio_output@@@__crt_stdio_output@@AEAA_NAEBUparameter_data@12@W4parameter_type@12@_WW4length_modifier@2@@Z 000000018003becc f i libucrt:output.obj
 0001:0003b150       ?is_string_backed@__crt_stdio_stream@@QEBA_NXZ 000000018003c150 f i libucrt:output.obj
 0001:0003b160       ?maximum_signed_value@__crt_strtox@@YAJK@Z 000000018003c160 f i libucrt:output.obj
 0001:0003b168       ?minimum_signed_value@__crt_strtox@@YAJK@Z 000000018003c168 f i libucrt:output.obj
 0001:0003b170       ?narrow_null_string@?$output_processor@DV?$stream_output_adapter@D@__crt_stdio_output@@V?$format_validation_base@DV?$stream_output_adapter@D@__crt_stdio_output@@@2@@__crt_stdio_output@@CAPEADXZ 000000018003c170 f i libucrt:output.obj
 0001:0003b17c       ?narrow_null_string@?$output_processor@DV?$stream_output_adapter@D@__crt_stdio_output@@V?$positional_parameter_base@DV?$stream_output_adapter@D@__crt_stdio_output@@@2@@__crt_stdio_output@@CAPEADXZ 000000018003c17c f i libucrt:output.obj
 0001:0003b188       ?narrow_null_string@?$output_processor@DV?$stream_output_adapter@D@__crt_stdio_output@@V?$standard_base@DV?$stream_output_adapter@D@__crt_stdio_output@@@2@@__crt_stdio_output@@CAPEADXZ 000000018003c188 f i libucrt:output.obj
 0001:0003b194       ?narrow_null_string@?$output_processor@DV?$string_output_adapter@D@__crt_stdio_output@@V?$format_validation_base@DV?$string_output_adapter@D@__crt_stdio_output@@@2@@__crt_stdio_output@@CAPEADXZ 000000018003c194 f i libucrt:output.obj
 0001:0003b1a0       ?narrow_null_string@?$output_processor@DV?$string_output_adapter@D@__crt_stdio_output@@V?$positional_parameter_base@DV?$string_output_adapter@D@__crt_stdio_output@@@2@@__crt_stdio_output@@CAPEADXZ 000000018003c1a0 f i libucrt:output.obj
 0001:0003b1ac       ?narrow_null_string@?$output_processor@DV?$string_output_adapter@D@__crt_stdio_output@@V?$standard_base@DV?$string_output_adapter@D@__crt_stdio_output@@@2@@__crt_stdio_output@@CAPEADXZ 000000018003c1ac f i libucrt:output.obj
 0001:0003b1b8       ?narrow_null_string@?$output_processor@_WV?$stream_output_adapter@_W@__crt_stdio_output@@V?$format_validation_base@_WV?$stream_output_adapter@_W@__crt_stdio_output@@@2@@__crt_stdio_output@@CAPEADXZ 000000018003c1b8 f i libucrt:output.obj
 0001:0003b1c4       ?narrow_null_string@?$output_processor@_WV?$stream_output_adapter@_W@__crt_stdio_output@@V?$positional_parameter_base@_WV?$stream_output_adapter@_W@__crt_stdio_output@@@2@@__crt_stdio_output@@CAPEADXZ 000000018003c1c4 f i libucrt:output.obj
 0001:0003b1d0       ?narrow_null_string@?$output_processor@_WV?$stream_output_adapter@_W@__crt_stdio_output@@V?$standard_base@_WV?$stream_output_adapter@_W@__crt_stdio_output@@@2@@__crt_stdio_output@@CAPEADXZ 000000018003c1d0 f i libucrt:output.obj
 0001:0003b1dc       ?narrow_null_string@?$output_processor@_WV?$string_output_adapter@_W@__crt_stdio_output@@V?$format_validation_base@_WV?$string_output_adapter@_W@__crt_stdio_output@@@2@@__crt_stdio_output@@CAPEADXZ 000000018003c1dc f i libucrt:output.obj
 0001:0003b1e8       ?narrow_null_string@?$output_processor@_WV?$string_output_adapter@_W@__crt_stdio_output@@V?$positional_parameter_base@_WV?$string_output_adapter@_W@__crt_stdio_output@@@2@@__crt_stdio_output@@CAPEADXZ 000000018003c1e8 f i libucrt:output.obj
 0001:0003b1f4       ?narrow_null_string@?$output_processor@_WV?$string_output_adapter@_W@__crt_stdio_output@@V?$standard_base@_WV?$string_output_adapter@_W@__crt_stdio_output@@@2@@__crt_stdio_output@@CAPEADXZ 000000018003c1f4 f i libucrt:output.obj
 0001:0003b200       ?parse_digit@__crt_strtox@@YAID@Z 000000018003c200 f i libucrt:output.obj
 0001:0003b23c       ?parse_digit@__crt_strtox@@YAI_W@Z 000000018003c23c f i libucrt:output.obj
 0001:0003b464       ?parse_int_from_format_string@?$output_processor@DV?$stream_output_adapter@D@__crt_stdio_output@@V?$format_validation_base@DV?$stream_output_adapter@D@__crt_stdio_output@@@2@@__crt_stdio_output@@AEAA_NQEAH@Z 000000018003c464 f i libucrt:output.obj
 0001:0003b514       ?parse_int_from_format_string@?$output_processor@DV?$stream_output_adapter@D@__crt_stdio_output@@V?$positional_parameter_base@DV?$stream_output_adapter@D@__crt_stdio_output@@@2@@__crt_stdio_output@@AEAA_NQEAH@Z 000000018003c514 f i libucrt:output.obj
 0001:0003b5c4       ?parse_int_from_format_string@?$output_processor@DV?$stream_output_adapter@D@__crt_stdio_output@@V?$standard_base@DV?$stream_output_adapter@D@__crt_stdio_output@@@2@@__crt_stdio_output@@AEAA_NQEAH@Z 000000018003c5c4 f i libucrt:output.obj
 0001:0003b674       ?parse_int_from_format_string@?$output_processor@DV?$string_output_adapter@D@__crt_stdio_output@@V?$format_validation_base@DV?$string_output_adapter@D@__crt_stdio_output@@@2@@__crt_stdio_output@@AEAA_NQEAH@Z 000000018003c674 f i libucrt:output.obj
 0001:0003b724       ?parse_int_from_format_string@?$output_processor@DV?$string_output_adapter@D@__crt_stdio_output@@V?$positional_parameter_base@DV?$string_output_adapter@D@__crt_stdio_output@@@2@@__crt_stdio_output@@AEAA_NQEAH@Z 000000018003c724 f i libucrt:output.obj
 0001:0003b7d4       ?parse_int_from_format_string@?$output_processor@DV?$string_output_adapter@D@__crt_stdio_output@@V?$standard_base@DV?$string_output_adapter@D@__crt_stdio_output@@@2@@__crt_stdio_output@@AEAA_NQEAH@Z 000000018003c7d4 f i libucrt:output.obj
 0001:0003b884       ?parse_int_from_format_string@?$output_processor@_WV?$stream_output_adapter@_W@__crt_stdio_output@@V?$format_validation_base@_WV?$stream_output_adapter@_W@__crt_stdio_output@@@2@@__crt_stdio_output@@AEAA_NQEAH@Z 000000018003c884 f i libucrt:output.obj
 0001:0003b938       ?parse_int_from_format_string@?$output_processor@_WV?$stream_output_adapter@_W@__crt_stdio_output@@V?$positional_parameter_base@_WV?$stream_output_adapter@_W@__crt_stdio_output@@@2@@__crt_stdio_output@@AEAA_NQEAH@Z 000000018003c938 f i libucrt:output.obj
 0001:0003b9ec       ?parse_int_from_format_string@?$output_processor@_WV?$stream_output_adapter@_W@__crt_stdio_output@@V?$standard_base@_WV?$stream_output_adapter@_W@__crt_stdio_output@@@2@@__crt_stdio_output@@AEAA_NQEAH@Z 000000018003c9ec f i libucrt:output.obj
 0001:0003baa0       ?parse_int_from_format_string@?$output_processor@_WV?$string_output_adapter@_W@__crt_stdio_output@@V?$format_validation_base@_WV?$string_output_adapter@_W@__crt_stdio_output@@@2@@__crt_stdio_output@@AEAA_NQEAH@Z 000000018003caa0 f i libucrt:output.obj
 0001:0003bb54       ?parse_int_from_format_string@?$output_processor@_WV?$string_output_adapter@_W@__crt_stdio_output@@V?$positional_parameter_base@_WV?$string_output_adapter@_W@__crt_stdio_output@@@2@@__crt_stdio_output@@AEAA_NQEAH@Z 000000018003cb54 f i libucrt:output.obj
 0001:0003bc08       ?parse_int_from_format_string@?$output_processor@_WV?$string_output_adapter@_W@__crt_stdio_output@@V?$standard_base@_WV?$string_output_adapter@_W@__crt_stdio_output@@@2@@__crt_stdio_output@@AEAA_NQEAH@Z 000000018003cc08 f i libucrt:output.obj
 0001:0003bcbc       ?process@?$output_processor@DV?$stream_output_adapter@D@__crt_stdio_output@@V?$format_validation_base@DV?$stream_output_adapter@D@__crt_stdio_output@@@2@@__crt_stdio_output@@QEAAHXZ 000000018003ccbc f i libucrt:output.obj
 0001:0003c11c       ?process@?$output_processor@DV?$stream_output_adapter@D@__crt_stdio_output@@V?$positional_parameter_base@DV?$stream_output_adapter@D@__crt_stdio_output@@@2@@__crt_stdio_output@@QEAAHXZ 000000018003d11c f i libucrt:output.obj
 0001:0003c638       ?process@?$output_processor@DV?$stream_output_adapter@D@__crt_stdio_output@@V?$standard_base@DV?$stream_output_adapter@D@__crt_stdio_output@@@2@@__crt_stdio_output@@QEAAHXZ 000000018003d638 f i libucrt:output.obj
 0001:0003ca9c       ?process@?$output_processor@DV?$string_output_adapter@D@__crt_stdio_output@@V?$format_validation_base@DV?$string_output_adapter@D@__crt_stdio_output@@@2@@__crt_stdio_output@@QEAAHXZ 000000018003da9c f i libucrt:output.obj
 0001:0003cedc       ?process@?$output_processor@DV?$string_output_adapter@D@__crt_stdio_output@@V?$positional_parameter_base@DV?$string_output_adapter@D@__crt_stdio_output@@@2@@__crt_stdio_output@@QEAAHXZ 000000018003dedc f i libucrt:output.obj
 0001:0003d3dc       ?process@?$output_processor@DV?$string_output_adapter@D@__crt_stdio_output@@V?$standard_base@DV?$string_output_adapter@D@__crt_stdio_output@@@2@@__crt_stdio_output@@QEAAHXZ 000000018003e3dc f i libucrt:output.obj
 0001:0003d828       ?process@?$output_processor@_WV?$stream_output_adapter@_W@__crt_stdio_output@@V?$format_validation_base@_WV?$stream_output_adapter@_W@__crt_stdio_output@@@2@@__crt_stdio_output@@QEAAHXZ 000000018003e828 f i libucrt:output.obj
 0001:0003db98       ?process@?$output_processor@_WV?$stream_output_adapter@_W@__crt_stdio_output@@V?$positional_parameter_base@_WV?$stream_output_adapter@_W@__crt_stdio_output@@@2@@__crt_stdio_output@@QEAAHXZ 000000018003eb98 f i libucrt:output.obj
 0001:0003dfd0       ?process@?$output_processor@_WV?$stream_output_adapter@_W@__crt_stdio_output@@V?$standard_base@_WV?$stream_output_adapter@_W@__crt_stdio_output@@@2@@__crt_stdio_output@@QEAAHXZ 000000018003efd0 f i libucrt:output.obj
 0001:0003e33c       ?process@?$output_processor@_WV?$string_output_adapter@_W@__crt_stdio_output@@V?$format_validation_base@_WV?$string_output_adapter@_W@__crt_stdio_output@@@2@@__crt_stdio_output@@QEAAHXZ 000000018003f33c f i libucrt:output.obj
 0001:0003e6a4       ?process@?$output_processor@_WV?$string_output_adapter@_W@__crt_stdio_output@@V?$positional_parameter_base@_WV?$string_output_adapter@_W@__crt_stdio_output@@@2@@__crt_stdio_output@@QEAAHXZ 000000018003f6a4 f i libucrt:output.obj
 0001:0003eadc       ?process@?$output_processor@_WV?$string_output_adapter@_W@__crt_stdio_output@@V?$standard_base@_WV?$string_output_adapter@_W@__crt_stdio_output@@@2@@__crt_stdio_output@@QEAAHXZ 000000018003fadc f i libucrt:output.obj
 0001:0003ee54       ?public_stream@__crt_stdio_stream@@QEBAPEAU_iobuf@@XZ 000000018003fe54 f i libucrt:output.obj
 0001:0003ee58       ?restore_state@?$c_string_character_source@D@__crt_strtox@@QEAA_NQEBD@Z 000000018003fe58 f i libucrt:output.obj
 0001:0003ee60       ?restore_state@?$c_string_character_source@_W@__crt_strtox@@QEAA_NQEB_W@Z 000000018003fe60 f i libucrt:output.obj
 0001:0003ee68       ?save_state@?$c_string_character_source@D@__crt_strtox@@QEBAPEBDXZ 000000018003fe68 f i libucrt:output.obj
 0001:0003ee6c       ?save_state@?$c_string_character_source@_W@__crt_strtox@@QEBAPEB_WXZ 000000018003fe6c f i libucrt:output.obj
 0001:0003ee70       ?set@?$cached@H@__crt_cached_ptd_host@@QEAAHH@Z 000000018003fe70 f i libucrt:output.obj
 0001:0003ee7c       ?set_flag@?$output_processor@DV?$stream_output_adapter@D@__crt_stdio_output@@V?$format_validation_base@DV?$stream_output_adapter@D@__crt_stdio_output@@@2@@__crt_stdio_output@@AEAAXI@Z 000000018003fe7c f i libucrt:output.obj
 0001:0003ee80       ?set_flag@?$output_processor@DV?$stream_output_adapter@D@__crt_stdio_output@@V?$positional_parameter_base@DV?$stream_output_adapter@D@__crt_stdio_output@@@2@@__crt_stdio_output@@AEAAXI@Z 000000018003fe80 f i libucrt:output.obj
 0001:0003ee84       ?set_flag@?$output_processor@DV?$stream_output_adapter@D@__crt_stdio_output@@V?$standard_base@DV?$stream_output_adapter@D@__crt_stdio_output@@@2@@__crt_stdio_output@@AEAAXI@Z 000000018003fe84 f i libucrt:output.obj
 0001:0003ee88       ?set_flag@?$output_processor@DV?$string_output_adapter@D@__crt_stdio_output@@V?$format_validation_base@DV?$string_output_adapter@D@__crt_stdio_output@@@2@@__crt_stdio_output@@AEAAXI@Z 000000018003fe88 f i libucrt:output.obj
 0001:0003ee8c       ?set_flag@?$output_processor@DV?$string_output_adapter@D@__crt_stdio_output@@V?$positional_parameter_base@DV?$string_output_adapter@D@__crt_stdio_output@@@2@@__crt_stdio_output@@AEAAXI@Z 000000018003fe8c f i libucrt:output.obj
 0001:0003ee90       ?set_flag@?$output_processor@DV?$string_output_adapter@D@__crt_stdio_output@@V?$standard_base@DV?$string_output_adapter@D@__crt_stdio_output@@@2@@__crt_stdio_output@@AEAAXI@Z 000000018003fe90 f i libucrt:output.obj
 0001:0003ee94       ?set_flag@?$output_processor@_WV?$stream_output_adapter@_W@__crt_stdio_output@@V?$format_validation_base@_WV?$stream_output_adapter@_W@__crt_stdio_output@@@2@@__crt_stdio_output@@AEAAXI@Z 000000018003fe94 f i libucrt:output.obj
 0001:0003ee98       ?set_flag@?$output_processor@_WV?$stream_output_adapter@_W@__crt_stdio_output@@V?$positional_parameter_base@_WV?$stream_output_adapter@_W@__crt_stdio_output@@@2@@__crt_stdio_output@@AEAAXI@Z 000000018003fe98 f i libucrt:output.obj
 0001:0003ee9c       ?set_flag@?$output_processor@_WV?$stream_output_adapter@_W@__crt_stdio_output@@V?$standard_base@_WV?$stream_output_adapter@_W@__crt_stdio_output@@@2@@__crt_stdio_output@@AEAAXI@Z 000000018003fe9c f i libucrt:output.obj
 0001:0003eea0       ?set_flag@?$output_processor@_WV?$string_output_adapter@_W@__crt_stdio_output@@V?$format_validation_base@_WV?$string_output_adapter@_W@__crt_stdio_output@@@2@@__crt_stdio_output@@AEAAXI@Z 000000018003fea0 f i libucrt:output.obj
 0001:0003eea4       ?set_flag@?$output_processor@_WV?$string_output_adapter@_W@__crt_stdio_output@@V?$positional_parameter_base@_WV?$string_output_adapter@_W@__crt_stdio_output@@@2@@__crt_stdio_output@@AEAAXI@Z 000000018003fea4 f i libucrt:output.obj
 0001:0003eea8       ?set_flag@?$output_processor@_WV?$string_output_adapter@_W@__crt_stdio_output@@V?$standard_base@_WV?$string_output_adapter@_W@__crt_stdio_output@@@2@@__crt_stdio_output@@AEAAXI@Z 000000018003fea8 f i libucrt:output.obj
 0001:0003eeac       ?should_format@?$positional_parameter_base@DV?$stream_output_adapter@D@__crt_stdio_output@@@__crt_stdio_output@@IEAA_NXZ 000000018003feac f i libucrt:output.obj
 0001:0003eecc       ?should_format@?$positional_parameter_base@DV?$string_output_adapter@D@__crt_stdio_output@@@__crt_stdio_output@@IEAA_NXZ 000000018003fecc f i libucrt:output.obj
 0001:0003eeec       ?should_format@?$positional_parameter_base@_WV?$stream_output_adapter@_W@__crt_stdio_output@@@__crt_stdio_output@@IEAA_NXZ 000000018003feec f i libucrt:output.obj
 0001:0003ef0c       ?should_format@?$positional_parameter_base@_WV?$string_output_adapter@_W@__crt_stdio_output@@@__crt_stdio_output@@IEAA_NXZ 000000018003ff0c f i libucrt:output.obj
 0001:0003ef2c       ?should_format@?$standard_base@DV?$stream_output_adapter@D@__crt_stdio_output@@@__crt_stdio_output@@IEAA_NXZ 000000018003ff2c f i libucrt:output.obj
 0001:0003ef30       ?should_format@?$standard_base@DV?$string_output_adapter@D@__crt_stdio_output@@@__crt_stdio_output@@IEAA_NXZ 000000018003ff30 f i libucrt:output.obj
 0001:0003ef34       ?should_format@?$standard_base@_WV?$stream_output_adapter@_W@__crt_stdio_output@@@__crt_stdio_output@@IEAA_NXZ 000000018003ff34 f i libucrt:output.obj
 0001:0003ef38       ?should_format@?$standard_base@_WV?$string_output_adapter@_W@__crt_stdio_output@@@__crt_stdio_output@@IEAA_NXZ 000000018003ff38 f i libucrt:output.obj
 0001:0003ef3c       ?should_skip_normal_state_processing@?$positional_parameter_base@DV?$stream_output_adapter@D@__crt_stdio_output@@@__crt_stdio_output@@IEAA_NXZ 000000018003ff3c f i libucrt:output.obj
 0001:0003ef70       ?should_skip_normal_state_processing@?$positional_parameter_base@DV?$string_output_adapter@D@__crt_stdio_output@@@__crt_stdio_output@@IEAA_NXZ 000000018003ff70 f i libucrt:output.obj
 0001:0003efa4       ?should_skip_normal_state_processing@?$positional_parameter_base@_WV?$stream_output_adapter@_W@__crt_stdio_output@@@__crt_stdio_output@@IEAA_NXZ 000000018003ffa4 f i libucrt:output.obj
 0001:0003efd8       ?should_skip_normal_state_processing@?$positional_parameter_base@_WV?$string_output_adapter@_W@__crt_stdio_output@@@__crt_stdio_output@@IEAA_NXZ 000000018003ffd8 f i libucrt:output.obj
 0001:0003f00c       ?should_skip_normal_state_processing@?$standard_base@DV?$stream_output_adapter@D@__crt_stdio_output@@@__crt_stdio_output@@IEAA_NXZ 000000018004000c f i libucrt:output.obj
 0001:0003f010       ?should_skip_normal_state_processing@?$standard_base@DV?$string_output_adapter@D@__crt_stdio_output@@@__crt_stdio_output@@IEAA_NXZ 0000000180040010 f i libucrt:output.obj
 0001:0003f014       ?should_skip_normal_state_processing@?$standard_base@_WV?$stream_output_adapter@_W@__crt_stdio_output@@@__crt_stdio_output@@IEAA_NXZ 0000000180040014 f i libucrt:output.obj
 0001:0003f018       ?should_skip_normal_state_processing@?$standard_base@_WV?$string_output_adapter@_W@__crt_stdio_output@@@__crt_stdio_output@@IEAA_NXZ 0000000180040018 f i libucrt:output.obj
 0001:0003f01c       ?should_skip_type_state_output@?$positional_parameter_base@DV?$stream_output_adapter@D@__crt_stdio_output@@@__crt_stdio_output@@IEBA_NXZ 000000018004001c f i libucrt:output.obj
 0001:0003f03c       ?should_skip_type_state_output@?$positional_parameter_base@DV?$string_output_adapter@D@__crt_stdio_output@@@__crt_stdio_output@@IEBA_NXZ 000000018004003c f i libucrt:output.obj
 0001:0003f05c       ?should_skip_type_state_output@?$positional_parameter_base@_WV?$stream_output_adapter@_W@__crt_stdio_output@@@__crt_stdio_output@@IEBA_NXZ 000000018004005c f i libucrt:output.obj
 0001:0003f07c       ?should_skip_type_state_output@?$positional_parameter_base@_WV?$string_output_adapter@_W@__crt_stdio_output@@@__crt_stdio_output@@IEBA_NXZ 000000018004007c f i libucrt:output.obj
 0001:0003f09c       ?should_skip_type_state_output@?$standard_base@DV?$stream_output_adapter@D@__crt_stdio_output@@@__crt_stdio_output@@IEBA_NXZ 000000018004009c f i libucrt:output.obj
 0001:0003f0a0       ?should_skip_type_state_output@?$standard_base@DV?$string_output_adapter@D@__crt_stdio_output@@@__crt_stdio_output@@IEBA_NXZ 00000001800400a0 f i libucrt:output.obj
 0001:0003f0a4       ?should_skip_type_state_output@?$standard_base@_WV?$stream_output_adapter@_W@__crt_stdio_output@@@__crt_stdio_output@@IEBA_NXZ 00000001800400a4 f i libucrt:output.obj
 0001:0003f0a8       ?should_skip_type_state_output@?$standard_base@_WV?$string_output_adapter@_W@__crt_stdio_output@@@__crt_stdio_output@@IEBA_NXZ 00000001800400a8 f i libucrt:output.obj
 0001:0003f0ac       ?state_case_dot@?$output_processor@DV?$stream_output_adapter@D@__crt_stdio_output@@V?$format_validation_base@DV?$stream_output_adapter@D@__crt_stdio_output@@@2@@__crt_stdio_output@@AEAA_NXZ 00000001800400ac f i libucrt:output.obj
 0001:0003f0b4       ?state_case_dot@?$output_processor@DV?$stream_output_adapter@D@__crt_stdio_output@@V?$positional_parameter_base@DV?$stream_output_adapter@D@__crt_stdio_output@@@2@@__crt_stdio_output@@AEAA_NXZ 00000001800400b4 f i libucrt:output.obj
 0001:0003f0bc       ?state_case_dot@?$output_processor@DV?$stream_output_adapter@D@__crt_stdio_output@@V?$standard_base@DV?$stream_output_adapter@D@__crt_stdio_output@@@2@@__crt_stdio_output@@AEAA_NXZ 00000001800400bc f i libucrt:output.obj
 0001:0003f0c4       ?state_case_dot@?$output_processor@DV?$string_output_adapter@D@__crt_stdio_output@@V?$format_validation_base@DV?$string_output_adapter@D@__crt_stdio_output@@@2@@__crt_stdio_output@@AEAA_NXZ 00000001800400c4 f i libucrt:output.obj
 0001:0003f0cc       ?state_case_dot@?$output_processor@DV?$string_output_adapter@D@__crt_stdio_output@@V?$positional_parameter_base@DV?$string_output_adapter@D@__crt_stdio_output@@@2@@__crt_stdio_output@@AEAA_NXZ 00000001800400cc f i libucrt:output.obj
 0001:0003f0d4       ?state_case_dot@?$output_processor@DV?$string_output_adapter@D@__crt_stdio_output@@V?$standard_base@DV?$string_output_adapter@D@__crt_stdio_output@@@2@@__crt_stdio_output@@AEAA_NXZ 00000001800400d4 f i libucrt:output.obj
 0001:0003f0dc       ?state_case_dot@?$output_processor@_WV?$stream_output_adapter@_W@__crt_stdio_output@@V?$format_validation_base@_WV?$stream_output_adapter@_W@__crt_stdio_output@@@2@@__crt_stdio_output@@AEAA_NXZ 00000001800400dc f i libucrt:output.obj
 0001:0003f0e4       ?state_case_dot@?$output_processor@_WV?$stream_output_adapter@_W@__crt_stdio_output@@V?$positional_parameter_base@_WV?$stream_output_adapter@_W@__crt_stdio_output@@@2@@__crt_stdio_output@@AEAA_NXZ 00000001800400e4 f i libucrt:output.obj
 0001:0003f0ec       ?state_case_dot@?$output_processor@_WV?$stream_output_adapter@_W@__crt_stdio_output@@V?$standard_base@_WV?$stream_output_adapter@_W@__crt_stdio_output@@@2@@__crt_stdio_output@@AEAA_NXZ 00000001800400ec f i libucrt:output.obj
 0001:0003f0f4       ?state_case_dot@?$output_processor@_WV?$string_output_adapter@_W@__crt_stdio_output@@V?$format_validation_base@_WV?$string_output_adapter@_W@__crt_stdio_output@@@2@@__crt_stdio_output@@AEAA_NXZ 00000001800400f4 f i libucrt:output.obj
 0001:0003f0fc       ?state_case_dot@?$output_processor@_WV?$string_output_adapter@_W@__crt_stdio_output@@V?$positional_parameter_base@_WV?$string_output_adapter@_W@__crt_stdio_output@@@2@@__crt_stdio_output@@AEAA_NXZ 00000001800400fc f i libucrt:output.obj
 0001:0003f104       ?state_case_dot@?$output_processor@_WV?$string_output_adapter@_W@__crt_stdio_output@@V?$standard_base@_WV?$string_output_adapter@_W@__crt_stdio_output@@@2@@__crt_stdio_output@@AEAA_NXZ 0000000180040104 f i libucrt:output.obj
 0001:0003f10c       ?state_case_flag@?$output_processor@DV?$stream_output_adapter@D@__crt_stdio_output@@V?$format_validation_base@DV?$stream_output_adapter@D@__crt_stdio_output@@@2@@__crt_stdio_output@@AEAA_NXZ 000000018004010c f i libucrt:output.obj
 0001:0003f150       ?state_case_flag@?$output_processor@DV?$stream_output_adapter@D@__crt_stdio_output@@V?$positional_parameter_base@DV?$stream_output_adapter@D@__crt_stdio_output@@@2@@__crt_stdio_output@@AEAA_NXZ 0000000180040150 f i libucrt:output.obj
 0001:0003f194       ?state_case_flag@?$output_processor@DV?$stream_output_adapter@D@__crt_stdio_output@@V?$standard_base@DV?$stream_output_adapter@D@__crt_stdio_output@@@2@@__crt_stdio_output@@AEAA_NXZ 0000000180040194 f i libucrt:output.obj
 0001:0003f1d8       ?state_case_flag@?$output_processor@DV?$string_output_adapter@D@__crt_stdio_output@@V?$format_validation_base@DV?$string_output_adapter@D@__crt_stdio_output@@@2@@__crt_stdio_output@@AEAA_NXZ 00000001800401d8 f i libucrt:output.obj
 0001:0003f21c       ?state_case_flag@?$output_processor@DV?$string_output_adapter@D@__crt_stdio_output@@V?$positional_parameter_base@DV?$string_output_adapter@D@__crt_stdio_output@@@2@@__crt_stdio_output@@AEAA_NXZ 000000018004021c f i libucrt:output.obj
 0001:0003f260       ?state_case_flag@?$output_processor@DV?$string_output_adapter@D@__crt_stdio_output@@V?$standard_base@DV?$string_output_adapter@D@__crt_stdio_output@@@2@@__crt_stdio_output@@AEAA_NXZ 0000000180040260 f i libucrt:output.obj
 0001:0003f2a4       ?state_case_flag@?$output_processor@_WV?$stream_output_adapter@_W@__crt_stdio_output@@V?$format_validation_base@_WV?$stream_output_adapter@_W@__crt_stdio_output@@@2@@__crt_stdio_output@@AEAA_NXZ 00000001800402a4 f i libucrt:output.obj
 0001:0003f2fc       ?state_case_flag@?$output_processor@_WV?$stream_output_adapter@_W@__crt_stdio_output@@V?$positional_parameter_base@_WV?$stream_output_adapter@_W@__crt_stdio_output@@@2@@__crt_stdio_output@@AEAA_NXZ 00000001800402fc f i libucrt:output.obj
 0001:0003f354       ?state_case_flag@?$output_processor@_WV?$stream_output_adapter@_W@__crt_stdio_output@@V?$standard_base@_WV?$stream_output_adapter@_W@__crt_stdio_output@@@2@@__crt_stdio_output@@AEAA_NXZ 0000000180040354 f i libucrt:output.obj
 0001:0003f3ac       ?state_case_flag@?$output_processor@_WV?$string_output_adapter@_W@__crt_stdio_output@@V?$format_validation_base@_WV?$string_output_adapter@_W@__crt_stdio_output@@@2@@__crt_stdio_output@@AEAA_NXZ 00000001800403ac f i libucrt:output.obj
 0001:0003f404       ?state_case_flag@?$output_processor@_WV?$string_output_adapter@_W@__crt_stdio_output@@V?$positional_parameter_base@_WV?$string_output_adapter@_W@__crt_stdio_output@@@2@@__crt_stdio_output@@AEAA_NXZ 0000000180040404 f i libucrt:output.obj
 0001:0003f45c       ?state_case_flag@?$output_processor@_WV?$string_output_adapter@_W@__crt_stdio_output@@V?$standard_base@_WV?$string_output_adapter@_W@__crt_stdio_output@@@2@@__crt_stdio_output@@AEAA_NXZ 000000018004045c f i libucrt:output.obj
 0001:0003f4b4       ?state_case_normal@?$output_processor@DV?$stream_output_adapter@D@__crt_stdio_output@@V?$format_validation_base@DV?$stream_output_adapter@D@__crt_stdio_output@@@2@@__crt_stdio_output@@AEAA_NXZ 00000001800404b4 f i libucrt:output.obj
 0001:0003f65c       ?state_case_normal@?$output_processor@DV?$stream_output_adapter@D@__crt_stdio_output@@V?$positional_parameter_base@DV?$stream_output_adapter@D@__crt_stdio_output@@@2@@__crt_stdio_output@@AEAA_NXZ 000000018004065c f i libucrt:output.obj
 0001:0003f83c       ?state_case_normal@?$output_processor@DV?$stream_output_adapter@D@__crt_stdio_output@@V?$standard_base@DV?$stream_output_adapter@D@__crt_stdio_output@@@2@@__crt_stdio_output@@AEAA_NXZ 000000018004083c f i libucrt:output.obj
 0001:0003f9e4       ?state_case_normal@?$output_processor@DV?$string_output_adapter@D@__crt_stdio_output@@V?$format_validation_base@DV?$string_output_adapter@D@__crt_stdio_output@@@2@@__crt_stdio_output@@AEAA_NXZ 00000001800409e4 f i libucrt:output.obj
 0001:0003fb84       ?state_case_normal@?$output_processor@DV?$string_output_adapter@D@__crt_stdio_output@@V?$positional_parameter_base@DV?$string_output_adapter@D@__crt_stdio_output@@@2@@__crt_stdio_output@@AEAA_NXZ 0000000180040b84 f i libucrt:output.obj
 0001:0003fd58       ?state_case_normal@?$output_processor@DV?$string_output_adapter@D@__crt_stdio_output@@V?$standard_base@DV?$string_output_adapter@D@__crt_stdio_output@@@2@@__crt_stdio_output@@AEAA_NXZ 0000000180040d58 f i libucrt:output.obj
 0001:0003fef8       ?state_case_normal@?$output_processor@_WV?$stream_output_adapter@_W@__crt_stdio_output@@V?$format_validation_base@_WV?$stream_output_adapter@_W@__crt_stdio_output@@@2@@__crt_stdio_output@@AEAA_NXZ 0000000180040ef8 f i libucrt:output.obj
 0001:0003ff6c       ?state_case_normal@?$output_processor@_WV?$stream_output_adapter@_W@__crt_stdio_output@@V?$positional_parameter_base@_WV?$stream_output_adapter@_W@__crt_stdio_output@@@2@@__crt_stdio_output@@AEAA_NXZ 0000000180040f6c f i libucrt:output.obj
 0001:00040010       ?state_case_normal@?$output_processor@_WV?$stream_output_adapter@_W@__crt_stdio_output@@V?$standard_base@_WV?$stream_output_adapter@_W@__crt_stdio_output@@@2@@__crt_stdio_output@@AEAA_NXZ 0000000180041010 f i libucrt:output.obj
 0001:00040084       ?state_case_normal@?$output_processor@_WV?$string_output_adapter@_W@__crt_stdio_output@@V?$format_validation_base@_WV?$string_output_adapter@_W@__crt_stdio_output@@@2@@__crt_stdio_output@@AEAA_NXZ 0000000180041084 f i libucrt:output.obj
 0001:000400f0       ?state_case_normal@?$output_processor@_WV?$string_output_adapter@_W@__crt_stdio_output@@V?$positional_parameter_base@_WV?$string_output_adapter@_W@__crt_stdio_output@@@2@@__crt_stdio_output@@AEAA_NXZ 00000001800410f0 f i libucrt:output.obj
 0001:00040188       ?state_case_normal@?$output_processor@_WV?$string_output_adapter@_W@__crt_stdio_output@@V?$standard_base@_WV?$string_output_adapter@_W@__crt_stdio_output@@@2@@__crt_stdio_output@@AEAA_NXZ 0000000180041188 f i libucrt:output.obj
 0001:000401f4       ?state_case_normal_common@?$output_processor@DV?$stream_output_adapter@D@__crt_stdio_output@@V?$format_validation_base@DV?$stream_output_adapter@D@__crt_stdio_output@@@2@@__crt_stdio_output@@AEAA_NXZ 00000001800411f4 f i libucrt:output.obj
 0001:00040368       ?state_case_normal_common@?$output_processor@DV?$stream_output_adapter@D@__crt_stdio_output@@V?$positional_parameter_base@DV?$stream_output_adapter@D@__crt_stdio_output@@@2@@__crt_stdio_output@@AEAA_NXZ 0000000180041368 f i libucrt:output.obj
 0001:000404dc       ?state_case_normal_common@?$output_processor@DV?$stream_output_adapter@D@__crt_stdio_output@@V?$standard_base@DV?$stream_output_adapter@D@__crt_stdio_output@@@2@@__crt_stdio_output@@AEAA_NXZ 00000001800414dc f i libucrt:output.obj
 0001:00040650       ?state_case_normal_common@?$output_processor@DV?$string_output_adapter@D@__crt_stdio_output@@V?$format_validation_base@DV?$string_output_adapter@D@__crt_stdio_output@@@2@@__crt_stdio_output@@AEAA_NXZ 0000000180041650 f i libucrt:output.obj
 0001:000407bc       ?state_case_normal_common@?$output_processor@DV?$string_output_adapter@D@__crt_stdio_output@@V?$positional_parameter_base@DV?$string_output_adapter@D@__crt_stdio_output@@@2@@__crt_stdio_output@@AEAA_NXZ 00000001800417bc f i libucrt:output.obj
 0001:00040928       ?state_case_normal_common@?$output_processor@DV?$string_output_adapter@D@__crt_stdio_output@@V?$standard_base@DV?$string_output_adapter@D@__crt_stdio_output@@@2@@__crt_stdio_output@@AEAA_NXZ 0000000180041928 f i libucrt:output.obj
 0001:00040a94       ?state_case_normal_common@?$output_processor@_WV?$stream_output_adapter@_W@__crt_stdio_output@@V?$format_validation_base@_WV?$stream_output_adapter@_W@__crt_stdio_output@@@2@@__crt_stdio_output@@AEAA_NXZ 0000000180041a94 f i libucrt:output.obj
 0001:00040b08       ?state_case_normal_common@?$output_processor@_WV?$stream_output_adapter@_W@__crt_stdio_output@@V?$positional_parameter_base@_WV?$stream_output_adapter@_W@__crt_stdio_output@@@2@@__crt_stdio_output@@AEAA_NXZ 0000000180041b08 f i libucrt:output.obj
 0001:00040b7c       ?state_case_normal_common@?$output_processor@_WV?$stream_output_adapter@_W@__crt_stdio_output@@V?$standard_base@_WV?$stream_output_adapter@_W@__crt_stdio_output@@@2@@__crt_stdio_output@@AEAA_NXZ 0000000180041b7c f i libucrt:output.obj
 0001:00040bf0       ?state_case_normal_common@?$output_processor@_WV?$string_output_adapter@_W@__crt_stdio_output@@V?$format_validation_base@_WV?$string_output_adapter@_W@__crt_stdio_output@@@2@@__crt_stdio_output@@AEAA_NXZ 0000000180041bf0 f i libucrt:output.obj
 0001:00040c5c       ?state_case_normal_common@?$output_processor@_WV?$string_output_adapter@_W@__crt_stdio_output@@V?$positional_parameter_base@_WV?$string_output_adapter@_W@__crt_stdio_output@@@2@@__crt_stdio_output@@AEAA_NXZ 0000000180041c5c f i libucrt:output.obj
 0001:00040cc8       ?state_case_normal_common@?$output_processor@_WV?$string_output_adapter@_W@__crt_stdio_output@@V?$standard_base@_WV?$string_output_adapter@_W@__crt_stdio_output@@@2@@__crt_stdio_output@@AEAA_NXZ 0000000180041cc8 f i libucrt:output.obj
 0001:00040d34       ?state_case_normal_tchar@?$output_processor@DV?$stream_output_adapter@D@__crt_stdio_output@@V?$format_validation_base@DV?$stream_output_adapter@D@__crt_stdio_output@@@2@@__crt_stdio_output@@AEAA_ND@Z 0000000180041d34 f i libucrt:output.obj
 0001:00040e48       ?state_case_normal_tchar@?$output_processor@DV?$stream_output_adapter@D@__crt_stdio_output@@V?$positional_parameter_base@DV?$stream_output_adapter@D@__crt_stdio_output@@@2@@__crt_stdio_output@@AEAA_ND@Z 0000000180041e48 f i libucrt:output.obj
 0001:00040f5c       ?state_case_normal_tchar@?$output_processor@DV?$stream_output_adapter@D@__crt_stdio_output@@V?$standard_base@DV?$stream_output_adapter@D@__crt_stdio_output@@@2@@__crt_stdio_output@@AEAA_ND@Z 0000000180041f5c f i libucrt:output.obj
 0001:00041070       ?state_case_normal_tchar@?$output_processor@DV?$string_output_adapter@D@__crt_stdio_output@@V?$format_validation_base@DV?$string_output_adapter@D@__crt_stdio_output@@@2@@__crt_stdio_output@@AEAA_ND@Z 0000000180042070 f i libucrt:output.obj
 0001:00041184       ?state_case_normal_tchar@?$output_processor@DV?$string_output_adapter@D@__crt_stdio_output@@V?$positional_parameter_base@DV?$string_output_adapter@D@__crt_stdio_output@@@2@@__crt_stdio_output@@AEAA_ND@Z 0000000180042184 f i libucrt:output.obj
 0001:00041298       ?state_case_normal_tchar@?$output_processor@DV?$string_output_adapter@D@__crt_stdio_output@@V?$standard_base@DV?$string_output_adapter@D@__crt_stdio_output@@@2@@__crt_stdio_output@@AEAA_ND@Z 0000000180042298 f i libucrt:output.obj
 0001:000413ac       ?state_case_normal_tchar@?$output_processor@_WV?$stream_output_adapter@_W@__crt_stdio_output@@V?$format_validation_base@_WV?$stream_output_adapter@_W@__crt_stdio_output@@@2@@__crt_stdio_output@@AEAA_N_W@Z 00000001800423ac f i libucrt:output.obj
 0001:000413b4       ?state_case_normal_tchar@?$output_processor@_WV?$stream_output_adapter@_W@__crt_stdio_output@@V?$positional_parameter_base@_WV?$stream_output_adapter@_W@__crt_stdio_output@@@2@@__crt_stdio_output@@AEAA_N_W@Z 00000001800423b4 f i libucrt:output.obj
 0001:000413bc       ?state_case_normal_tchar@?$output_processor@_WV?$stream_output_adapter@_W@__crt_stdio_output@@V?$standard_base@_WV?$stream_output_adapter@_W@__crt_stdio_output@@@2@@__crt_stdio_output@@AEAA_N_W@Z 00000001800423bc f i libucrt:output.obj
 0001:000413c4       ?state_case_normal_tchar@?$output_processor@_WV?$string_output_adapter@_W@__crt_stdio_output@@V?$format_validation_base@_WV?$string_output_adapter@_W@__crt_stdio_output@@@2@@__crt_stdio_output@@AEAA_N_W@Z 00000001800423c4 f i libucrt:output.obj
 0001:000413cc       ?state_case_normal_tchar@?$output_processor@_WV?$string_output_adapter@_W@__crt_stdio_output@@V?$positional_parameter_base@_WV?$string_output_adapter@_W@__crt_stdio_output@@@2@@__crt_stdio_output@@AEAA_N_W@Z 00000001800423cc f i libucrt:output.obj
 0001:000413d4       ?state_case_normal_tchar@?$output_processor@_WV?$string_output_adapter@_W@__crt_stdio_output@@V?$standard_base@_WV?$string_output_adapter@_W@__crt_stdio_output@@@2@@__crt_stdio_output@@AEAA_N_W@Z 00000001800423d4 f i libucrt:output.obj
 0001:000413dc       ?state_case_percent@?$output_processor@DV?$stream_output_adapter@D@__crt_stdio_output@@V?$format_validation_base@DV?$stream_output_adapter@D@__crt_stdio_output@@@2@@__crt_stdio_output@@AEAA_NXZ 00000001800423dc f i libucrt:output.obj
 0001:000413f8       ?state_case_percent@?$output_processor@DV?$stream_output_adapter@D@__crt_stdio_output@@V?$positional_parameter_base@DV?$stream_output_adapter@D@__crt_stdio_output@@@2@@__crt_stdio_output@@AEAA_NXZ 00000001800423f8 f i libucrt:output.obj
 0001:00041414       ?state_case_percent@?$output_processor@DV?$stream_output_adapter@D@__crt_stdio_output@@V?$standard_base@DV?$stream_output_adapter@D@__crt_stdio_output@@@2@@__crt_stdio_output@@AEAA_NXZ 0000000180042414 f i libucrt:output.obj
 0001:00041430       ?state_case_percent@?$output_processor@DV?$string_output_adapter@D@__crt_stdio_output@@V?$format_validation_base@DV?$string_output_adapter@D@__crt_stdio_output@@@2@@__crt_stdio_output@@AEAA_NXZ 0000000180042430 f i libucrt:output.obj
 0001:0004144c       ?state_case_percent@?$output_processor@DV?$string_output_adapter@D@__crt_stdio_output@@V?$positional_parameter_base@DV?$string_output_adapter@D@__crt_stdio_output@@@2@@__crt_stdio_output@@AEAA_NXZ 000000018004244c f i libucrt:output.obj
 0001:00041468       ?state_case_percent@?$output_processor@DV?$string_output_adapter@D@__crt_stdio_output@@V?$standard_base@DV?$string_output_adapter@D@__crt_stdio_output@@@2@@__crt_stdio_output@@AEAA_NXZ 0000000180042468 f i libucrt:output.obj
 0001:00041484       ?state_case_percent@?$output_processor@_WV?$stream_output_adapter@_W@__crt_stdio_output@@V?$format_validation_base@_WV?$stream_output_adapter@_W@__crt_stdio_output@@@2@@__crt_stdio_output@@AEAA_NXZ 0000000180042484 f i libucrt:output.obj
 0001:000414a0       ?state_case_percent@?$output_processor@_WV?$stream_output_adapter@_W@__crt_stdio_output@@V?$positional_parameter_base@_WV?$stream_output_adapter@_W@__crt_stdio_output@@@2@@__crt_stdio_output@@AEAA_NXZ 00000001800424a0 f i libucrt:output.obj
 0001:000414bc       ?state_case_percent@?$output_processor@_WV?$stream_output_adapter@_W@__crt_stdio_output@@V?$standard_base@_WV?$stream_output_adapter@_W@__crt_stdio_output@@@2@@__crt_stdio_output@@AEAA_NXZ 00000001800424bc f i libucrt:output.obj
 0001:000414d8       ?state_case_percent@?$output_processor@_WV?$string_output_adapter@_W@__crt_stdio_output@@V?$format_validation_base@_WV?$string_output_adapter@_W@__crt_stdio_output@@@2@@__crt_stdio_output@@AEAA_NXZ 00000001800424d8 f i libucrt:output.obj
 0001:000414f4       ?state_case_percent@?$output_processor@_WV?$string_output_adapter@_W@__crt_stdio_output@@V?$positional_parameter_base@_WV?$string_output_adapter@_W@__crt_stdio_output@@@2@@__crt_stdio_output@@AEAA_NXZ 00000001800424f4 f i libucrt:output.obj
 0001:00041510       ?state_case_percent@?$output_processor@_WV?$string_output_adapter@_W@__crt_stdio_output@@V?$standard_base@_WV?$string_output_adapter@_W@__crt_stdio_output@@@2@@__crt_stdio_output@@AEAA_NXZ 0000000180042510 f i libucrt:output.obj
 0001:0004152c       ?state_case_precision@?$output_processor@DV?$stream_output_adapter@D@__crt_stdio_output@@V?$format_validation_base@DV?$stream_output_adapter@D@__crt_stdio_output@@@2@@__crt_stdio_output@@AEAA_NXZ 000000018004252c f i libucrt:output.obj
 0001:00041564       ?state_case_precision@?$output_processor@DV?$stream_output_adapter@D@__crt_stdio_output@@V?$positional_parameter_base@DV?$stream_output_adapter@D@__crt_stdio_output@@@2@@__crt_stdio_output@@AEAA_NXZ 0000000180042564 f i libucrt:output.obj
 0001:000415c0       ?state_case_precision@?$output_processor@DV?$stream_output_adapter@D@__crt_stdio_output@@V?$standard_base@DV?$stream_output_adapter@D@__crt_stdio_output@@@2@@__crt_stdio_output@@AEAA_NXZ 00000001800425c0 f i libucrt:output.obj
 0001:000415f8       ?state_case_precision@?$output_processor@DV?$string_output_adapter@D@__crt_stdio_output@@V?$format_validation_base@DV?$string_output_adapter@D@__crt_stdio_output@@@2@@__crt_stdio_output@@AEAA_NXZ 00000001800425f8 f i libucrt:output.obj
 0001:00041630       ?state_case_precision@?$output_processor@DV?$string_output_adapter@D@__crt_stdio_output@@V?$positional_parameter_base@DV?$string_output_adapter@D@__crt_stdio_output@@@2@@__crt_stdio_output@@AEAA_NXZ 0000000180042630 f i libucrt:output.obj
 0001:0004168c       ?state_case_precision@?$output_processor@DV?$string_output_adapter@D@__crt_stdio_output@@V?$standard_base@DV?$string_output_adapter@D@__crt_stdio_output@@@2@@__crt_stdio_output@@AEAA_NXZ 000000018004268c f i libucrt:output.obj
 0001:000416c4       ?state_case_precision@?$output_processor@_WV?$stream_output_adapter@_W@__crt_stdio_output@@V?$format_validation_base@_WV?$stream_output_adapter@_W@__crt_stdio_output@@@2@@__crt_stdio_output@@AEAA_NXZ 00000001800426c4 f i libucrt:output.obj
 0001:000416fc       ?state_case_precision@?$output_processor@_WV?$stream_output_adapter@_W@__crt_stdio_output@@V?$positional_parameter_base@_WV?$stream_output_adapter@_W@__crt_stdio_output@@@2@@__crt_stdio_output@@AEAA_NXZ 00000001800426fc f i libucrt:output.obj
 0001:0004175c       ?state_case_precision@?$output_processor@_WV?$stream_output_adapter@_W@__crt_stdio_output@@V?$standard_base@_WV?$stream_output_adapter@_W@__crt_stdio_output@@@2@@__crt_stdio_output@@AEAA_NXZ 000000018004275c f i libucrt:output.obj
 0001:00041794       ?state_case_precision@?$output_processor@_WV?$string_output_adapter@_W@__crt_stdio_output@@V?$format_validation_base@_WV?$string_output_adapter@_W@__crt_stdio_output@@@2@@__crt_stdio_output@@AEAA_NXZ 0000000180042794 f i libucrt:output.obj
 0001:000417cc       ?state_case_precision@?$output_processor@_WV?$string_output_adapter@_W@__crt_stdio_output@@V?$positional_parameter_base@_WV?$string_output_adapter@_W@__crt_stdio_output@@@2@@__crt_stdio_output@@AEAA_NXZ 00000001800427cc f i libucrt:output.obj
 0001:0004182c       ?state_case_precision@?$output_processor@_WV?$string_output_adapter@_W@__crt_stdio_output@@V?$standard_base@_WV?$string_output_adapter@_W@__crt_stdio_output@@@2@@__crt_stdio_output@@AEAA_NXZ 000000018004282c f i libucrt:output.obj
 0001:00041864       ?state_case_size@?$output_processor@DV?$stream_output_adapter@D@__crt_stdio_output@@V?$format_validation_base@DV?$stream_output_adapter@D@__crt_stdio_output@@@2@@__crt_stdio_output@@AEAA_NXZ 0000000180042864 f i libucrt:output.obj
 0001:00041a4c       ?state_case_size@?$output_processor@DV?$stream_output_adapter@D@__crt_stdio_output@@V?$positional_parameter_base@DV?$stream_output_adapter@D@__crt_stdio_output@@@2@@__crt_stdio_output@@AEAA_NXZ 0000000180042a4c f i libucrt:output.obj
 0001:00041c34       ?state_case_size@?$output_processor@DV?$stream_output_adapter@D@__crt_stdio_output@@V?$standard_base@DV?$stream_output_adapter@D@__crt_stdio_output@@@2@@__crt_stdio_output@@AEAA_NXZ 0000000180042c34 f i libucrt:output.obj
 0001:00041e1c       ?state_case_size@?$output_processor@DV?$string_output_adapter@D@__crt_stdio_output@@V?$format_validation_base@DV?$string_output_adapter@D@__crt_stdio_output@@@2@@__crt_stdio_output@@AEAA_NXZ 0000000180042e1c f i libucrt:output.obj
 0001:00042004       ?state_case_size@?$output_processor@DV?$string_output_adapter@D@__crt_stdio_output@@V?$positional_parameter_base@DV?$string_output_adapter@D@__crt_stdio_output@@@2@@__crt_stdio_output@@AEAA_NXZ 0000000180043004 f i libucrt:output.obj
 0001:000421ec       ?state_case_size@?$output_processor@DV?$string_output_adapter@D@__crt_stdio_output@@V?$standard_base@DV?$string_output_adapter@D@__crt_stdio_output@@@2@@__crt_stdio_output@@AEAA_NXZ 00000001800431ec f i libucrt:output.obj
 0001:000423d4       ?state_case_size@?$output_processor@_WV?$stream_output_adapter@_W@__crt_stdio_output@@V?$format_validation_base@_WV?$stream_output_adapter@_W@__crt_stdio_output@@@2@@__crt_stdio_output@@AEAA_NXZ 00000001800433d4 f i libucrt:output.obj
 0001:000425ec       ?state_case_size@?$output_processor@_WV?$stream_output_adapter@_W@__crt_stdio_output@@V?$positional_parameter_base@_WV?$stream_output_adapter@_W@__crt_stdio_output@@@2@@__crt_stdio_output@@AEAA_NXZ 00000001800435ec f i libucrt:output.obj
 0001:00042804       ?state_case_size@?$output_processor@_WV?$stream_output_adapter@_W@__crt_stdio_output@@V?$standard_base@_WV?$stream_output_adapter@_W@__crt_stdio_output@@@2@@__crt_stdio_output@@AEAA_NXZ 0000000180043804 f i libucrt:output.obj
 0001:00042a1c       ?state_case_size@?$output_processor@_WV?$string_output_adapter@_W@__crt_stdio_output@@V?$format_validation_base@_WV?$string_output_adapter@_W@__crt_stdio_output@@@2@@__crt_stdio_output@@AEAA_NXZ 0000000180043a1c f i libucrt:output.obj
 0001:00042c34       ?state_case_size@?$output_processor@_WV?$string_output_adapter@_W@__crt_stdio_output@@V?$positional_parameter_base@_WV?$string_output_adapter@_W@__crt_stdio_output@@@2@@__crt_stdio_output@@AEAA_NXZ 0000000180043c34 f i libucrt:output.obj
 0001:00042e4c       ?state_case_size@?$output_processor@_WV?$string_output_adapter@_W@__crt_stdio_output@@V?$standard_base@_WV?$string_output_adapter@_W@__crt_stdio_output@@@2@@__crt_stdio_output@@AEAA_NXZ 0000000180043e4c f i libucrt:output.obj
 0001:00043064       ?state_case_type@?$output_processor@DV?$stream_output_adapter@D@__crt_stdio_output@@V?$format_validation_base@DV?$stream_output_adapter@D@__crt_stdio_output@@@2@@__crt_stdio_output@@AEAA_NXZ 0000000180044064 f i libucrt:output.obj
 0001:000436ec       ?state_case_type@?$output_processor@DV?$stream_output_adapter@D@__crt_stdio_output@@V?$positional_parameter_base@DV?$stream_output_adapter@D@__crt_stdio_output@@@2@@__crt_stdio_output@@AEAA_NXZ 00000001800446ec f i libucrt:output.obj
 0001:00043d90       ?state_case_type@?$output_processor@DV?$stream_output_adapter@D@__crt_stdio_output@@V?$standard_base@DV?$stream_output_adapter@D@__crt_stdio_output@@@2@@__crt_stdio_output@@AEAA_NXZ 0000000180044d90 f i libucrt:output.obj
 0001:00044418       ?state_case_type@?$output_processor@DV?$string_output_adapter@D@__crt_stdio_output@@V?$format_validation_base@DV?$string_output_adapter@D@__crt_stdio_output@@@2@@__crt_stdio_output@@AEAA_NXZ 0000000180045418 f i libucrt:output.obj
 0001:000449a0       ?state_case_type@?$output_processor@DV?$string_output_adapter@D@__crt_stdio_output@@V?$positional_parameter_base@DV?$string_output_adapter@D@__crt_stdio_output@@@2@@__crt_stdio_output@@AEAA_NXZ 00000001800459a0 f i libucrt:output.obj
 0001:00044f7c       ?state_case_type@?$output_processor@DV?$string_output_adapter@D@__crt_stdio_output@@V?$standard_base@DV?$string_output_adapter@D@__crt_stdio_output@@@2@@__crt_stdio_output@@AEAA_NXZ 0000000180045f7c f i libucrt:output.obj
 0001:00045504       ?state_case_type@?$output_processor@_WV?$stream_output_adapter@_W@__crt_stdio_output@@V?$format_validation_base@_WV?$stream_output_adapter@_W@__crt_stdio_output@@@2@@__crt_stdio_output@@AEAA_NXZ 0000000180046504 f i libucrt:output.obj
 0001:00045c80       ?state_case_type@?$output_processor@_WV?$stream_output_adapter@_W@__crt_stdio_output@@V?$positional_parameter_base@_WV?$stream_output_adapter@_W@__crt_stdio_output@@@2@@__crt_stdio_output@@AEAA_NXZ 0000000180046c80 f i libucrt:output.obj
 0001:00046448       ?state_case_type@?$output_processor@_WV?$stream_output_adapter@_W@__crt_stdio_output@@V?$standard_base@_WV?$stream_output_adapter@_W@__crt_stdio_output@@@2@@__crt_stdio_output@@AEAA_NXZ 0000000180047448 f i libucrt:output.obj
 0001:00046bc4       ?state_case_type@?$output_processor@_WV?$string_output_adapter@_W@__crt_stdio_output@@V?$format_validation_base@_WV?$string_output_adapter@_W@__crt_stdio_output@@@2@@__crt_stdio_output@@AEAA_NXZ 0000000180047bc4 f i libucrt:output.obj
 0001:00047298       ?state_case_type@?$output_processor@_WV?$string_output_adapter@_W@__crt_stdio_output@@V?$positional_parameter_base@_WV?$string_output_adapter@_W@__crt_stdio_output@@@2@@__crt_stdio_output@@AEAA_NXZ 0000000180048298 f i libucrt:output.obj
 0001:00047988       ?state_case_type@?$output_processor@_WV?$string_output_adapter@_W@__crt_stdio_output@@V?$standard_base@_WV?$string_output_adapter@_W@__crt_stdio_output@@@2@@__crt_stdio_output@@AEAA_NXZ 0000000180048988 f i libucrt:output.obj
 0001:0004805c       ?state_case_width@?$output_processor@DV?$stream_output_adapter@D@__crt_stdio_output@@V?$format_validation_base@DV?$stream_output_adapter@D@__crt_stdio_output@@@2@@__crt_stdio_output@@AEAA_NXZ 000000018004905c f i libucrt:output.obj
 0001:0004809c       ?state_case_width@?$output_processor@DV?$stream_output_adapter@D@__crt_stdio_output@@V?$positional_parameter_base@DV?$stream_output_adapter@D@__crt_stdio_output@@@2@@__crt_stdio_output@@AEAA_NXZ 000000018004909c f i libucrt:output.obj
 0001:00048100       ?state_case_width@?$output_processor@DV?$stream_output_adapter@D@__crt_stdio_output@@V?$standard_base@DV?$stream_output_adapter@D@__crt_stdio_output@@@2@@__crt_stdio_output@@AEAA_NXZ 0000000180049100 f i libucrt:output.obj
 0001:00048140       ?state_case_width@?$output_processor@DV?$string_output_adapter@D@__crt_stdio_output@@V?$format_validation_base@DV?$string_output_adapter@D@__crt_stdio_output@@@2@@__crt_stdio_output@@AEAA_NXZ 0000000180049140 f i libucrt:output.obj
 0001:00048180       ?state_case_width@?$output_processor@DV?$string_output_adapter@D@__crt_stdio_output@@V?$positional_parameter_base@DV?$string_output_adapter@D@__crt_stdio_output@@@2@@__crt_stdio_output@@AEAA_NXZ 0000000180049180 f i libucrt:output.obj
 0001:000481e4       ?state_case_width@?$output_processor@DV?$string_output_adapter@D@__crt_stdio_output@@V?$standard_base@DV?$string_output_adapter@D@__crt_stdio_output@@@2@@__crt_stdio_output@@AEAA_NXZ 00000001800491e4 f i libucrt:output.obj
 0001:00048224       ?state_case_width@?$output_processor@_WV?$stream_output_adapter@_W@__crt_stdio_output@@V?$format_validation_base@_WV?$stream_output_adapter@_W@__crt_stdio_output@@@2@@__crt_stdio_output@@AEAA_NXZ 0000000180049224 f i libucrt:output.obj
 0001:00048264       ?state_case_width@?$output_processor@_WV?$stream_output_adapter@_W@__crt_stdio_output@@V?$positional_parameter_base@_WV?$stream_output_adapter@_W@__crt_stdio_output@@@2@@__crt_stdio_output@@AEAA_NXZ 0000000180049264 f i libucrt:output.obj
 0001:000482cc       ?state_case_width@?$output_processor@_WV?$stream_output_adapter@_W@__crt_stdio_output@@V?$standard_base@_WV?$stream_output_adapter@_W@__crt_stdio_output@@@2@@__crt_stdio_output@@AEAA_NXZ 00000001800492cc f i libucrt:output.obj
 0001:0004830c       ?state_case_width@?$output_processor@_WV?$string_output_adapter@_W@__crt_stdio_output@@V?$format_validation_base@_WV?$string_output_adapter@_W@__crt_stdio_output@@@2@@__crt_stdio_output@@AEAA_NXZ 000000018004930c f i libucrt:output.obj
 0001:0004834c       ?state_case_width@?$output_processor@_WV?$string_output_adapter@_W@__crt_stdio_output@@V?$positional_parameter_base@_WV?$string_output_adapter@_W@__crt_stdio_output@@@2@@__crt_stdio_output@@AEAA_NXZ 000000018004934c f i libucrt:output.obj
 0001:000483b4       ?state_case_width@?$output_processor@_WV?$string_output_adapter@_W@__crt_stdio_output@@V?$standard_base@_WV?$string_output_adapter@_W@__crt_stdio_output@@@2@@__crt_stdio_output@@AEAA_NXZ 00000001800493b4 f i libucrt:output.obj
 0001:000483f4       ?state_count@?$format_validation_base@DV?$stream_output_adapter@D@__crt_stdio_output@@@__crt_stdio_output@@KAIXZ 00000001800493f4 f i libucrt:output.obj
 0001:000483fc       ?state_count@?$format_validation_base@DV?$string_output_adapter@D@__crt_stdio_output@@@__crt_stdio_output@@KAIXZ 00000001800493fc f i libucrt:output.obj
 0001:00048404       ?state_count@?$format_validation_base@_WV?$stream_output_adapter@_W@__crt_stdio_output@@@__crt_stdio_output@@KAIXZ 0000000180049404 f i libucrt:output.obj
 0001:0004840c       ?state_count@?$format_validation_base@_WV?$string_output_adapter@_W@__crt_stdio_output@@@__crt_stdio_output@@KAIXZ 000000018004940c f i libucrt:output.obj
 0001:00048414       ?state_count@?$standard_base@DV?$stream_output_adapter@D@__crt_stdio_output@@@__crt_stdio_output@@KAIXZ 0000000180049414 f i libucrt:output.obj
 0001:0004841c       ?state_count@?$standard_base@DV?$string_output_adapter@D@__crt_stdio_output@@@__crt_stdio_output@@KAIXZ 000000018004941c f i libucrt:output.obj
 0001:00048424       ?state_count@?$standard_base@_WV?$stream_output_adapter@_W@__crt_stdio_output@@@__crt_stdio_output@@KAIXZ 0000000180049424 f i libucrt:output.obj
 0001:0004842c       ?state_count@?$standard_base@_WV?$string_output_adapter@_W@__crt_stdio_output@@@__crt_stdio_output@@KAIXZ 000000018004942c f i libucrt:output.obj
 0001:00048434       ?state_transition_table@?$format_validation_base@DV?$stream_output_adapter@D@__crt_stdio_output@@@__crt_stdio_output@@KAAEBV?$spectre_mitigated_lookup_table@Ustate_transition_pair@__crt_stdio_output@@$0IA@@2@XZ 0000000180049434 f i libucrt:output.obj
 0001:00048440       ?state_transition_table@?$format_validation_base@DV?$string_output_adapter@D@__crt_stdio_output@@@__crt_stdio_output@@KAAEBV?$spectre_mitigated_lookup_table@Ustate_transition_pair@__crt_stdio_output@@$0IA@@2@XZ 0000000180049440 f i libucrt:output.obj
 0001:0004844c       ?state_transition_table@?$format_validation_base@_WV?$stream_output_adapter@_W@__crt_stdio_output@@@__crt_stdio_output@@KAAEBV?$spectre_mitigated_lookup_table@Ustate_transition_pair@__crt_stdio_output@@$0IA@@2@XZ 000000018004944c f i libucrt:output.obj
 0001:00048458       ?state_transition_table@?$format_validation_base@_WV?$string_output_adapter@_W@__crt_stdio_output@@@__crt_stdio_output@@KAAEBV?$spectre_mitigated_lookup_table@Ustate_transition_pair@__crt_stdio_output@@$0IA@@2@XZ 0000000180049458 f i libucrt:output.obj
 0001:00048464       ?state_transition_table@?$standard_base@DV?$stream_output_adapter@D@__crt_stdio_output@@@__crt_stdio_output@@KAAEBV?$spectre_mitigated_lookup_table@Ustate_transition_pair@__crt_stdio_output@@$0IA@@2@XZ 0000000180049464 f i libucrt:output.obj
 0001:00048470       ?state_transition_table@?$standard_base@DV?$string_output_adapter@D@__crt_stdio_output@@@__crt_stdio_output@@KAAEBV?$spectre_mitigated_lookup_table@Ustate_transition_pair@__crt_stdio_output@@$0IA@@2@XZ 0000000180049470 f i libucrt:output.obj
 0001:0004847c       ?state_transition_table@?$standard_base@_WV?$stream_output_adapter@_W@__crt_stdio_output@@@__crt_stdio_output@@KAAEBV?$spectre_mitigated_lookup_table@Ustate_transition_pair@__crt_stdio_output@@$0IA@@2@XZ 000000018004947c f i libucrt:output.obj
 0001:00048488       ?state_transition_table@?$standard_base@_WV?$string_output_adapter@_W@__crt_stdio_output@@@__crt_stdio_output@@KAAEBV?$spectre_mitigated_lookup_table@Ustate_transition_pair@__crt_stdio_output@@$0IA@@2@XZ 0000000180049488 f i libucrt:output.obj
 0001:00048494       ?tchar_string@?$common_data@D@__crt_stdio_output@@IEAAAEAPEADD@Z 0000000180049494 f i libucrt:output.obj
 0001:0004849c       ?tchar_string@?$common_data@D@__crt_stdio_output@@IEAAAEAPEADXZ 000000018004949c f i libucrt:output.obj
 0001:000484a4       ?tchar_string@?$common_data@_W@__crt_stdio_output@@IEAAAEAPEA_WXZ 00000001800494a4 f i libucrt:output.obj
 0001:000484ac       ?tchar_string@?$common_data@_W@__crt_stdio_output@@IEAAAEAPEA_W_W@Z 00000001800494ac f i libucrt:output.obj
 0001:000484b4       ?to_integer_size@__crt_stdio_output@@YA_KW4length_modifier@1@@Z 00000001800494b4 f i libucrt:output.obj
 0001:0004850c       ?type_case_X@?$output_processor@DV?$stream_output_adapter@D@__crt_stdio_output@@V?$format_validation_base@DV?$stream_output_adapter@D@__crt_stdio_output@@@2@@__crt_stdio_output@@AEAA_NXZ 000000018004950c f i libucrt:output.obj
 0001:00048514       ?type_case_X@?$output_processor@DV?$stream_output_adapter@D@__crt_stdio_output@@V?$positional_parameter_base@DV?$stream_output_adapter@D@__crt_stdio_output@@@2@@__crt_stdio_output@@AEAA_NXZ 0000000180049514 f i libucrt:output.obj
 0001:0004851c       ?type_case_X@?$output_processor@DV?$stream_output_adapter@D@__crt_stdio_output@@V?$standard_base@DV?$stream_output_adapter@D@__crt_stdio_output@@@2@@__crt_stdio_output@@AEAA_NXZ 000000018004951c f i libucrt:output.obj
 0001:00048524       ?type_case_X@?$output_processor@DV?$string_output_adapter@D@__crt_stdio_output@@V?$format_validation_base@DV?$string_output_adapter@D@__crt_stdio_output@@@2@@__crt_stdio_output@@AEAA_NXZ 0000000180049524 f i libucrt:output.obj
 0001:0004852c       ?type_case_X@?$output_processor@DV?$string_output_adapter@D@__crt_stdio_output@@V?$positional_parameter_base@DV?$string_output_adapter@D@__crt_stdio_output@@@2@@__crt_stdio_output@@AEAA_NXZ 000000018004952c f i libucrt:output.obj
 0001:00048534       ?type_case_X@?$output_processor@DV?$string_output_adapter@D@__crt_stdio_output@@V?$standard_base@DV?$string_output_adapter@D@__crt_stdio_output@@@2@@__crt_stdio_output@@AEAA_NXZ 0000000180049534 f i libucrt:output.obj
 0001:0004853c       ?type_case_X@?$output_processor@_WV?$stream_output_adapter@_W@__crt_stdio_output@@V?$format_validation_base@_WV?$stream_output_adapter@_W@__crt_stdio_output@@@2@@__crt_stdio_output@@AEAA_NXZ 000000018004953c f i libucrt:output.obj
 0001:00048544       ?type_case_X@?$output_processor@_WV?$stream_output_adapter@_W@__crt_stdio_output@@V?$positional_parameter_base@_WV?$stream_output_adapter@_W@__crt_stdio_output@@@2@@__crt_stdio_output@@AEAA_NXZ 0000000180049544 f i libucrt:output.obj
 0001:0004854c       ?type_case_X@?$output_processor@_WV?$stream_output_adapter@_W@__crt_stdio_output@@V?$standard_base@_WV?$stream_output_adapter@_W@__crt_stdio_output@@@2@@__crt_stdio_output@@AEAA_NXZ 000000018004954c f i libucrt:output.obj
 0001:00048554       ?type_case_X@?$output_processor@_WV?$string_output_adapter@_W@__crt_stdio_output@@V?$format_validation_base@_WV?$string_output_adapter@_W@__crt_stdio_output@@@2@@__crt_stdio_output@@AEAA_NXZ 0000000180049554 f i libucrt:output.obj
 0001:0004855c       ?type_case_X@?$output_processor@_WV?$string_output_adapter@_W@__crt_stdio_output@@V?$positional_parameter_base@_WV?$string_output_adapter@_W@__crt_stdio_output@@@2@@__crt_stdio_output@@AEAA_NXZ 000000018004955c f i libucrt:output.obj
 0001:00048564       ?type_case_X@?$output_processor@_WV?$string_output_adapter@_W@__crt_stdio_output@@V?$standard_base@_WV?$string_output_adapter@_W@__crt_stdio_output@@@2@@__crt_stdio_output@@AEAA_NXZ 0000000180049564 f i libucrt:output.obj
 0001:0004856c       ?type_case_Z@?$output_processor@DV?$stream_output_adapter@D@__crt_stdio_output@@V?$format_validation_base@DV?$stream_output_adapter@D@__crt_stdio_output@@@2@@__crt_stdio_output@@AEAA_NXZ 000000018004956c f i libucrt:output.obj
 0001:00048608       ?type_case_Z@?$output_processor@DV?$stream_output_adapter@D@__crt_stdio_output@@V?$positional_parameter_base@DV?$stream_output_adapter@D@__crt_stdio_output@@@2@@__crt_stdio_output@@AEAA_NXZ 0000000180049608 f i libucrt:output.obj
 0001:000486d8       ?type_case_Z@?$output_processor@DV?$stream_output_adapter@D@__crt_stdio_output@@V?$standard_base@DV?$stream_output_adapter@D@__crt_stdio_output@@@2@@__crt_stdio_output@@AEAA_NXZ 00000001800496d8 f i libucrt:output.obj
 0001:00048774       ?type_case_Z@?$output_processor@DV?$string_output_adapter@D@__crt_stdio_output@@V?$format_validation_base@DV?$string_output_adapter@D@__crt_stdio_output@@@2@@__crt_stdio_output@@AEAA_NXZ 0000000180049774 f i libucrt:output.obj
 0001:00048810       ?type_case_Z@?$output_processor@DV?$string_output_adapter@D@__crt_stdio_output@@V?$positional_parameter_base@DV?$string_output_adapter@D@__crt_stdio_output@@@2@@__crt_stdio_output@@AEAA_NXZ 0000000180049810 f i libucrt:output.obj
 0001:000488e0       ?type_case_Z@?$output_processor@DV?$string_output_adapter@D@__crt_stdio_output@@V?$standard_base@DV?$string_output_adapter@D@__crt_stdio_output@@@2@@__crt_stdio_output@@AEAA_NXZ 00000001800498e0 f i libucrt:output.obj
 0001:0004897c       ?type_case_Z@?$output_processor@_WV?$stream_output_adapter@_W@__crt_stdio_output@@V?$format_validation_base@_WV?$stream_output_adapter@_W@__crt_stdio_output@@@2@@__crt_stdio_output@@AEAA_NXZ 000000018004997c f i libucrt:output.obj
 0001:00048a0c       ?type_case_Z@?$output_processor@_WV?$stream_output_adapter@_W@__crt_stdio_output@@V?$positional_parameter_base@_WV?$stream_output_adapter@_W@__crt_stdio_output@@@2@@__crt_stdio_output@@AEAA_NXZ 0000000180049a0c f i libucrt:output.obj
 0001:00048abc       ?type_case_Z@?$output_processor@_WV?$stream_output_adapter@_W@__crt_stdio_output@@V?$standard_base@_WV?$stream_output_adapter@_W@__crt_stdio_output@@@2@@__crt_stdio_output@@AEAA_NXZ 0000000180049abc f i libucrt:output.obj
 0001:00048b4c       ?type_case_Z@?$output_processor@_WV?$string_output_adapter@_W@__crt_stdio_output@@V?$format_validation_base@_WV?$string_output_adapter@_W@__crt_stdio_output@@@2@@__crt_stdio_output@@AEAA_NXZ 0000000180049b4c f i libucrt:output.obj
 0001:00048bdc       ?type_case_Z@?$output_processor@_WV?$string_output_adapter@_W@__crt_stdio_output@@V?$positional_parameter_base@_WV?$string_output_adapter@_W@__crt_stdio_output@@@2@@__crt_stdio_output@@AEAA_NXZ 0000000180049bdc f i libucrt:output.obj
 0001:00048c8c       ?type_case_Z@?$output_processor@_WV?$string_output_adapter@_W@__crt_stdio_output@@V?$standard_base@_WV?$string_output_adapter@_W@__crt_stdio_output@@@2@@__crt_stdio_output@@AEAA_NXZ 0000000180049c8c f i libucrt:output.obj
 0001:00048d1c       ?type_case_a@?$output_processor@DV?$stream_output_adapter@D@__crt_stdio_output@@V?$format_validation_base@DV?$stream_output_adapter@D@__crt_stdio_output@@@2@@__crt_stdio_output@@AEAA_NXZ 0000000180049d1c f i libucrt:output.obj
 0001:0004900c       ?type_case_a@?$output_processor@DV?$stream_output_adapter@D@__crt_stdio_output@@V?$positional_parameter_base@DV?$stream_output_adapter@D@__crt_stdio_output@@@2@@__crt_stdio_output@@AEAA_NXZ 000000018004a00c f i libucrt:output.obj
 0001:00049324       ?type_case_a@?$output_processor@DV?$stream_output_adapter@D@__crt_stdio_output@@V?$standard_base@DV?$stream_output_adapter@D@__crt_stdio_output@@@2@@__crt_stdio_output@@AEAA_NXZ 000000018004a324 f i libucrt:output.obj
 0001:00049614       ?type_case_a@?$output_processor@DV?$string_output_adapter@D@__crt_stdio_output@@V?$format_validation_base@DV?$string_output_adapter@D@__crt_stdio_output@@@2@@__crt_stdio_output@@AEAA_NXZ 000000018004a614 f i libucrt:output.obj
 0001:00049904       ?type_case_a@?$output_processor@DV?$string_output_adapter@D@__crt_stdio_output@@V?$positional_parameter_base@DV?$string_output_adapter@D@__crt_stdio_output@@@2@@__crt_stdio_output@@AEAA_NXZ 000000018004a904 f i libucrt:output.obj
 0001:00049c1c       ?type_case_a@?$output_processor@DV?$string_output_adapter@D@__crt_stdio_output@@V?$standard_base@DV?$string_output_adapter@D@__crt_stdio_output@@@2@@__crt_stdio_output@@AEAA_NXZ 000000018004ac1c f i libucrt:output.obj
 0001:00049f0c       ?type_case_a@?$output_processor@_WV?$stream_output_adapter@_W@__crt_stdio_output@@V?$format_validation_base@_WV?$stream_output_adapter@_W@__crt_stdio_output@@@2@@__crt_stdio_output@@AEAA_NXZ 000000018004af0c f i libucrt:output.obj
 0001:0004a224       ?type_case_a@?$output_processor@_WV?$stream_output_adapter@_W@__crt_stdio_output@@V?$positional_parameter_base@_WV?$stream_output_adapter@_W@__crt_stdio_output@@@2@@__crt_stdio_output@@AEAA_NXZ 000000018004b224 f i libucrt:output.obj
 0001:0004a568       ?type_case_a@?$output_processor@_WV?$stream_output_adapter@_W@__crt_stdio_output@@V?$standard_base@_WV?$stream_output_adapter@_W@__crt_stdio_output@@@2@@__crt_stdio_output@@AEAA_NXZ 000000018004b568 f i libucrt:output.obj
 0001:0004a880       ?type_case_a@?$output_processor@_WV?$string_output_adapter@_W@__crt_stdio_output@@V?$format_validation_base@_WV?$string_output_adapter@_W@__crt_stdio_output@@@2@@__crt_stdio_output@@AEAA_NXZ 000000018004b880 f i libucrt:output.obj
 0001:0004ab98       ?type_case_a@?$output_processor@_WV?$string_output_adapter@_W@__crt_stdio_output@@V?$positional_parameter_base@_WV?$string_output_adapter@_W@__crt_stdio_output@@@2@@__crt_stdio_output@@AEAA_NXZ 000000018004bb98 f i libucrt:output.obj
 0001:0004aedc       ?type_case_a@?$output_processor@_WV?$string_output_adapter@_W@__crt_stdio_output@@V?$standard_base@_WV?$string_output_adapter@_W@__crt_stdio_output@@@2@@__crt_stdio_output@@AEAA_NXZ 000000018004bedc f i libucrt:output.obj
 0001:0004b1f4       ?type_case_c@?$output_processor@DV?$stream_output_adapter@D@__crt_stdio_output@@V?$format_validation_base@DV?$stream_output_adapter@D@__crt_stdio_output@@@2@@__crt_stdio_output@@AEAA_NXZ 000000018004c1f4 f i libucrt:output.obj
 0001:0004b1fc       ?type_case_c@?$output_processor@DV?$stream_output_adapter@D@__crt_stdio_output@@V?$positional_parameter_base@DV?$stream_output_adapter@D@__crt_stdio_output@@@2@@__crt_stdio_output@@AEAA_NXZ 000000018004c1fc f i libucrt:output.obj
 0001:0004b204       ?type_case_c@?$output_processor@DV?$stream_output_adapter@D@__crt_stdio_output@@V?$standard_base@DV?$stream_output_adapter@D@__crt_stdio_output@@@2@@__crt_stdio_output@@AEAA_NXZ 000000018004c204 f i libucrt:output.obj
 0001:0004b20c       ?type_case_c@?$output_processor@DV?$string_output_adapter@D@__crt_stdio_output@@V?$format_validation_base@DV?$string_output_adapter@D@__crt_stdio_output@@@2@@__crt_stdio_output@@AEAA_NXZ 000000018004c20c f i libucrt:output.obj
 0001:0004b214       ?type_case_c@?$output_processor@DV?$string_output_adapter@D@__crt_stdio_output@@V?$positional_parameter_base@DV?$string_output_adapter@D@__crt_stdio_output@@@2@@__crt_stdio_output@@AEAA_NXZ 000000018004c214 f i libucrt:output.obj
 0001:0004b21c       ?type_case_c@?$output_processor@DV?$string_output_adapter@D@__crt_stdio_output@@V?$standard_base@DV?$string_output_adapter@D@__crt_stdio_output@@@2@@__crt_stdio_output@@AEAA_NXZ 000000018004c21c f i libucrt:output.obj
 0001:0004b224       ?type_case_c@?$output_processor@_WV?$stream_output_adapter@_W@__crt_stdio_output@@V?$format_validation_base@_WV?$stream_output_adapter@_W@__crt_stdio_output@@@2@@__crt_stdio_output@@AEAA_NXZ 000000018004c224 f i libucrt:output.obj
 0001:0004b22c       ?type_case_c@?$output_processor@_WV?$stream_output_adapter@_W@__crt_stdio_output@@V?$positional_parameter_base@_WV?$stream_output_adapter@_W@__crt_stdio_output@@@2@@__crt_stdio_output@@AEAA_NXZ 000000018004c22c f i libucrt:output.obj
 0001:0004b234       ?type_case_c@?$output_processor@_WV?$stream_output_adapter@_W@__crt_stdio_output@@V?$standard_base@_WV?$stream_output_adapter@_W@__crt_stdio_output@@@2@@__crt_stdio_output@@AEAA_NXZ 000000018004c234 f i libucrt:output.obj
 0001:0004b23c       ?type_case_c@?$output_processor@_WV?$string_output_adapter@_W@__crt_stdio_output@@V?$format_validation_base@_WV?$string_output_adapter@_W@__crt_stdio_output@@@2@@__crt_stdio_output@@AEAA_NXZ 000000018004c23c f i libucrt:output.obj
 0001:0004b244       ?type_case_c@?$output_processor@_WV?$string_output_adapter@_W@__crt_stdio_output@@V?$positional_parameter_base@_WV?$string_output_adapter@_W@__crt_stdio_output@@@2@@__crt_stdio_output@@AEAA_NXZ 000000018004c244 f i libucrt:output.obj
 0001:0004b24c       ?type_case_c@?$output_processor@_WV?$string_output_adapter@_W@__crt_stdio_output@@V?$standard_base@_WV?$string_output_adapter@_W@__crt_stdio_output@@@2@@__crt_stdio_output@@AEAA_NXZ 000000018004c24c f i libucrt:output.obj
 0001:0004b254       ?type_case_c_tchar@?$output_processor@DV?$stream_output_adapter@D@__crt_stdio_output@@V?$format_validation_base@DV?$stream_output_adapter@D@__crt_stdio_output@@@2@@__crt_stdio_output@@AEAA_ND@Z 000000018004c254 f i libucrt:output.obj
 0001:0004b35c       ?type_case_c_tchar@?$output_processor@DV?$stream_output_adapter@D@__crt_stdio_output@@V?$positional_parameter_base@DV?$stream_output_adapter@D@__crt_stdio_output@@@2@@__crt_stdio_output@@AEAA_ND@Z 000000018004c35c f i libucrt:output.obj
 0001:0004b4bc       ?type_case_c_tchar@?$output_processor@DV?$stream_output_adapter@D@__crt_stdio_output@@V?$standard_base@DV?$stream_output_adapter@D@__crt_stdio_output@@@2@@__crt_stdio_output@@AEAA_ND@Z 000000018004c4bc f i libucrt:output.obj
 0001:0004b5c4       ?type_case_c_tchar@?$output_processor@DV?$string_output_adapter@D@__crt_stdio_output@@V?$format_validation_base@DV?$string_output_adapter@D@__crt_stdio_output@@@2@@__crt_stdio_output@@AEAA_ND@Z 000000018004c5c4 f i libucrt:output.obj
 0001:0004b6cc       ?type_case_c_tchar@?$output_processor@DV?$string_output_adapter@D@__crt_stdio_output@@V?$positional_parameter_base@DV?$string_output_adapter@D@__crt_stdio_output@@@2@@__crt_stdio_output@@AEAA_ND@Z 000000018004c6cc f i libucrt:output.obj
 0001:0004b82c       ?type_case_c_tchar@?$output_processor@DV?$string_output_adapter@D@__crt_stdio_output@@V?$standard_base@DV?$string_output_adapter@D@__crt_stdio_output@@@2@@__crt_stdio_output@@AEAA_ND@Z 000000018004c82c f i libucrt:output.obj
 0001:0004b934       ?type_case_c_tchar@?$output_processor@_WV?$stream_output_adapter@_W@__crt_stdio_output@@V?$format_validation_base@_WV?$stream_output_adapter@_W@__crt_stdio_output@@@2@@__crt_stdio_output@@AEAA_N_W@Z 000000018004c934 f i libucrt:output.obj
 0001:0004ba2c       ?type_case_c_tchar@?$output_processor@_WV?$stream_output_adapter@_W@__crt_stdio_output@@V?$positional_parameter_base@_WV?$stream_output_adapter@_W@__crt_stdio_output@@@2@@__crt_stdio_output@@AEAA_N_W@Z 000000018004ca2c f i libucrt:output.obj
 0001:0004bb60       ?type_case_c_tchar@?$output_processor@_WV?$stream_output_adapter@_W@__crt_stdio_output@@V?$standard_base@_WV?$stream_output_adapter@_W@__crt_stdio_output@@@2@@__crt_stdio_output@@AEAA_N_W@Z 000000018004cb60 f i libucrt:output.obj
 0001:0004bc58       ?type_case_c_tchar@?$output_processor@_WV?$string_output_adapter@_W@__crt_stdio_output@@V?$format_validation_base@_WV?$string_output_adapter@_W@__crt_stdio_output@@@2@@__crt_stdio_output@@AEAA_N_W@Z 000000018004cc58 f i libucrt:output.obj
 0001:0004bd50       ?type_case_c_tchar@?$output_processor@_WV?$string_output_adapter@_W@__crt_stdio_output@@V?$positional_parameter_base@_WV?$string_output_adapter@_W@__crt_stdio_output@@@2@@__crt_stdio_output@@AEAA_N_W@Z 000000018004cd50 f i libucrt:output.obj
 0001:0004be84       ?type_case_c_tchar@?$output_processor@_WV?$string_output_adapter@_W@__crt_stdio_output@@V?$standard_base@_WV?$string_output_adapter@_W@__crt_stdio_output@@@2@@__crt_stdio_output@@AEAA_N_W@Z 000000018004ce84 f i libucrt:output.obj
 0001:0004bf7c       ?type_case_d@?$output_processor@DV?$stream_output_adapter@D@__crt_stdio_output@@V?$format_validation_base@DV?$stream_output_adapter@D@__crt_stdio_output@@@2@@__crt_stdio_output@@AEAA_NXZ 000000018004cf7c f i libucrt:output.obj
 0001:0004bf8c       ?type_case_d@?$output_processor@DV?$stream_output_adapter@D@__crt_stdio_output@@V?$positional_parameter_base@DV?$stream_output_adapter@D@__crt_stdio_output@@@2@@__crt_stdio_output@@AEAA_NXZ 000000018004cf8c f i libucrt:output.obj
 0001:0004bf9c       ?type_case_d@?$output_processor@DV?$stream_output_adapter@D@__crt_stdio_output@@V?$standard_base@DV?$stream_output_adapter@D@__crt_stdio_output@@@2@@__crt_stdio_output@@AEAA_NXZ 000000018004cf9c f i libucrt:output.obj
 0001:0004bfac       ?type_case_d@?$output_processor@DV?$string_output_adapter@D@__crt_stdio_output@@V?$format_validation_base@DV?$string_output_adapter@D@__crt_stdio_output@@@2@@__crt_stdio_output@@AEAA_NXZ 000000018004cfac f i libucrt:output.obj
 0001:0004bfbc       ?type_case_d@?$output_processor@DV?$string_output_adapter@D@__crt_stdio_output@@V?$positional_parameter_base@DV?$string_output_adapter@D@__crt_stdio_output@@@2@@__crt_stdio_output@@AEAA_NXZ 000000018004cfbc f i libucrt:output.obj
 0001:0004bfcc       ?type_case_d@?$output_processor@DV?$string_output_adapter@D@__crt_stdio_output@@V?$standard_base@DV?$string_output_adapter@D@__crt_stdio_output@@@2@@__crt_stdio_output@@AEAA_NXZ 000000018004cfcc f i libucrt:output.obj
 0001:0004bfdc       ?type_case_d@?$output_processor@_WV?$stream_output_adapter@_W@__crt_stdio_output@@V?$format_validation_base@_WV?$stream_output_adapter@_W@__crt_stdio_output@@@2@@__crt_stdio_output@@AEAA_NXZ 000000018004cfdc f i libucrt:output.obj
 0001:0004bfec       ?type_case_d@?$output_processor@_WV?$stream_output_adapter@_W@__crt_stdio_output@@V?$positional_parameter_base@_WV?$stream_output_adapter@_W@__crt_stdio_output@@@2@@__crt_stdio_output@@AEAA_NXZ 000000018004cfec f i libucrt:output.obj
 0001:0004bffc       ?type_case_d@?$output_processor@_WV?$stream_output_adapter@_W@__crt_stdio_output@@V?$standard_base@_WV?$stream_output_adapter@_W@__crt_stdio_output@@@2@@__crt_stdio_output@@AEAA_NXZ 000000018004cffc f i libucrt:output.obj
 0001:0004c00c       ?type_case_d@?$output_processor@_WV?$string_output_adapter@_W@__crt_stdio_output@@V?$format_validation_base@_WV?$string_output_adapter@_W@__crt_stdio_output@@@2@@__crt_stdio_output@@AEAA_NXZ 000000018004d00c f i libucrt:output.obj
 0001:0004c01c       ?type_case_d@?$output_processor@_WV?$string_output_adapter@_W@__crt_stdio_output@@V?$positional_parameter_base@_WV?$string_output_adapter@_W@__crt_stdio_output@@@2@@__crt_stdio_output@@AEAA_NXZ 000000018004d01c f i libucrt:output.obj
 0001:0004c02c       ?type_case_d@?$output_processor@_WV?$string_output_adapter@_W@__crt_stdio_output@@V?$standard_base@_WV?$string_output_adapter@_W@__crt_stdio_output@@@2@@__crt_stdio_output@@AEAA_NXZ 000000018004d02c f i libucrt:output.obj
 0001:0004c03c       ?type_case_n@?$output_processor@DV?$stream_output_adapter@D@__crt_stdio_output@@V?$format_validation_base@DV?$stream_output_adapter@D@__crt_stdio_output@@@2@@__crt_stdio_output@@AEAA_NXZ 000000018004d03c f i libucrt:output.obj
 0001:0004c120       ?type_case_n@?$output_processor@DV?$stream_output_adapter@D@__crt_stdio_output@@V?$positional_parameter_base@DV?$stream_output_adapter@D@__crt_stdio_output@@@2@@__crt_stdio_output@@AEAA_NXZ 000000018004d120 f i libucrt:output.obj
 0001:0004c23c       ?type_case_n@?$output_processor@DV?$stream_output_adapter@D@__crt_stdio_output@@V?$standard_base@DV?$stream_output_adapter@D@__crt_stdio_output@@@2@@__crt_stdio_output@@AEAA_NXZ 000000018004d23c f i libucrt:output.obj
 0001:0004c320       ?type_case_n@?$output_processor@DV?$string_output_adapter@D@__crt_stdio_output@@V?$format_validation_base@DV?$string_output_adapter@D@__crt_stdio_output@@@2@@__crt_stdio_output@@AEAA_NXZ 000000018004d320 f i libucrt:output.obj
 0001:0004c404       ?type_case_n@?$output_processor@DV?$string_output_adapter@D@__crt_stdio_output@@V?$positional_parameter_base@DV?$string_output_adapter@D@__crt_stdio_output@@@2@@__crt_stdio_output@@AEAA_NXZ 000000018004d404 f i libucrt:output.obj
 0001:0004c520       ?type_case_n@?$output_processor@DV?$string_output_adapter@D@__crt_stdio_output@@V?$standard_base@DV?$string_output_adapter@D@__crt_stdio_output@@@2@@__crt_stdio_output@@AEAA_NXZ 000000018004d520 f i libucrt:output.obj
 0001:0004c604       ?type_case_n@?$output_processor@_WV?$stream_output_adapter@_W@__crt_stdio_output@@V?$format_validation_base@_WV?$stream_output_adapter@_W@__crt_stdio_output@@@2@@__crt_stdio_output@@AEAA_NXZ 000000018004d604 f i libucrt:output.obj
 0001:0004c6e8       ?type_case_n@?$output_processor@_WV?$stream_output_adapter@_W@__crt_stdio_output@@V?$positional_parameter_base@_WV?$stream_output_adapter@_W@__crt_stdio_output@@@2@@__crt_stdio_output@@AEAA_NXZ 000000018004d6e8 f i libucrt:output.obj
 0001:0004c804       ?type_case_n@?$output_processor@_WV?$stream_output_adapter@_W@__crt_stdio_output@@V?$standard_base@_WV?$stream_output_adapter@_W@__crt_stdio_output@@@2@@__crt_stdio_output@@AEAA_NXZ 000000018004d804 f i libucrt:output.obj
 0001:0004c8e8       ?type_case_n@?$output_processor@_WV?$string_output_adapter@_W@__crt_stdio_output@@V?$format_validation_base@_WV?$string_output_adapter@_W@__crt_stdio_output@@@2@@__crt_stdio_output@@AEAA_NXZ 000000018004d8e8 f i libucrt:output.obj
 0001:0004c9cc       ?type_case_n@?$output_processor@_WV?$string_output_adapter@_W@__crt_stdio_output@@V?$positional_parameter_base@_WV?$string_output_adapter@_W@__crt_stdio_output@@@2@@__crt_stdio_output@@AEAA_NXZ 000000018004d9cc f i libucrt:output.obj
 0001:0004cae8       ?type_case_n@?$output_processor@_WV?$string_output_adapter@_W@__crt_stdio_output@@V?$standard_base@_WV?$string_output_adapter@_W@__crt_stdio_output@@@2@@__crt_stdio_output@@AEAA_NXZ 000000018004dae8 f i libucrt:output.obj
 0001:0004cbcc       ?type_case_o@?$output_processor@DV?$stream_output_adapter@D@__crt_stdio_output@@V?$format_validation_base@DV?$stream_output_adapter@D@__crt_stdio_output@@@2@@__crt_stdio_output@@AEAA_NXZ 000000018004dbcc f i libucrt:output.obj
 0001:0004cbec       ?type_case_o@?$output_processor@DV?$stream_output_adapter@D@__crt_stdio_output@@V?$positional_parameter_base@DV?$stream_output_adapter@D@__crt_stdio_output@@@2@@__crt_stdio_output@@AEAA_NXZ 000000018004dbec f i libucrt:output.obj
 0001:0004cc0c       ?type_case_o@?$output_processor@DV?$stream_output_adapter@D@__crt_stdio_output@@V?$standard_base@DV?$stream_output_adapter@D@__crt_stdio_output@@@2@@__crt_stdio_output@@AEAA_NXZ 000000018004dc0c f i libucrt:output.obj
 0001:0004cc2c       ?type_case_o@?$output_processor@DV?$string_output_adapter@D@__crt_stdio_output@@V?$format_validation_base@DV?$string_output_adapter@D@__crt_stdio_output@@@2@@__crt_stdio_output@@AEAA_NXZ 000000018004dc2c f i libucrt:output.obj
 0001:0004cc4c       ?type_case_o@?$output_processor@DV?$string_output_adapter@D@__crt_stdio_output@@V?$positional_parameter_base@DV?$string_output_adapter@D@__crt_stdio_output@@@2@@__crt_stdio_output@@AEAA_NXZ 000000018004dc4c f i libucrt:output.obj
 0001:0004cc6c       ?type_case_o@?$output_processor@DV?$string_output_adapter@D@__crt_stdio_output@@V?$standard_base@DV?$string_output_adapter@D@__crt_stdio_output@@@2@@__crt_stdio_output@@AEAA_NXZ 000000018004dc6c f i libucrt:output.obj
 0001:0004cc8c       ?type_case_o@?$output_processor@_WV?$stream_output_adapter@_W@__crt_stdio_output@@V?$format_validation_base@_WV?$stream_output_adapter@_W@__crt_stdio_output@@@2@@__crt_stdio_output@@AEAA_NXZ 000000018004dc8c f i libucrt:output.obj
 0001:0004ccac       ?type_case_o@?$output_processor@_WV?$stream_output_adapter@_W@__crt_stdio_output@@V?$positional_parameter_base@_WV?$stream_output_adapter@_W@__crt_stdio_output@@@2@@__crt_stdio_output@@AEAA_NXZ 000000018004dcac f i libucrt:output.obj
 0001:0004cccc       ?type_case_o@?$output_processor@_WV?$stream_output_adapter@_W@__crt_stdio_output@@V?$standard_base@_WV?$stream_output_adapter@_W@__crt_stdio_output@@@2@@__crt_stdio_output@@AEAA_NXZ 000000018004dccc f i libucrt:output.obj
 0001:0004ccec       ?type_case_o@?$output_processor@_WV?$string_output_adapter@_W@__crt_stdio_output@@V?$format_validation_base@_WV?$string_output_adapter@_W@__crt_stdio_output@@@2@@__crt_stdio_output@@AEAA_NXZ 000000018004dcec f i libucrt:output.obj
 0001:0004cd0c       ?type_case_o@?$output_processor@_WV?$string_output_adapter@_W@__crt_stdio_output@@V?$positional_parameter_base@_WV?$string_output_adapter@_W@__crt_stdio_output@@@2@@__crt_stdio_output@@AEAA_NXZ 000000018004dd0c f i libucrt:output.obj
 0001:0004cd2c       ?type_case_o@?$output_processor@_WV?$string_output_adapter@_W@__crt_stdio_output@@V?$standard_base@_WV?$string_output_adapter@_W@__crt_stdio_output@@@2@@__crt_stdio_output@@AEAA_NXZ 000000018004dd2c f i libucrt:output.obj
 0001:0004cd4c       ?type_case_p@?$output_processor@DV?$stream_output_adapter@D@__crt_stdio_output@@V?$format_validation_base@DV?$stream_output_adapter@D@__crt_stdio_output@@@2@@__crt_stdio_output@@AEAA_NXZ 000000018004dd4c f i libucrt:output.obj
 0001:0004cd68       ?type_case_p@?$output_processor@DV?$stream_output_adapter@D@__crt_stdio_output@@V?$positional_parameter_base@DV?$stream_output_adapter@D@__crt_stdio_output@@@2@@__crt_stdio_output@@AEAA_NXZ 000000018004dd68 f i libucrt:output.obj
 0001:0004cd84       ?type_case_p@?$output_processor@DV?$stream_output_adapter@D@__crt_stdio_output@@V?$standard_base@DV?$stream_output_adapter@D@__crt_stdio_output@@@2@@__crt_stdio_output@@AEAA_NXZ 000000018004dd84 f i libucrt:output.obj
 0001:0004cda0       ?type_case_p@?$output_processor@DV?$string_output_adapter@D@__crt_stdio_output@@V?$format_validation_base@DV?$string_output_adapter@D@__crt_stdio_output@@@2@@__crt_stdio_output@@AEAA_NXZ 000000018004dda0 f i libucrt:output.obj
 0001:0004cdbc       ?type_case_p@?$output_processor@DV?$string_output_adapter@D@__crt_stdio_output@@V?$positional_parameter_base@DV?$string_output_adapter@D@__crt_stdio_output@@@2@@__crt_stdio_output@@AEAA_NXZ 000000018004ddbc f i libucrt:output.obj
 0001:0004cdd8       ?type_case_p@?$output_processor@DV?$string_output_adapter@D@__crt_stdio_output@@V?$standard_base@DV?$string_output_adapter@D@__crt_stdio_output@@@2@@__crt_stdio_output@@AEAA_NXZ 000000018004ddd8 f i libucrt:output.obj
 0001:0004cdf4       ?type_case_p@?$output_processor@_WV?$stream_output_adapter@_W@__crt_stdio_output@@V?$format_validation_base@_WV?$stream_output_adapter@_W@__crt_stdio_output@@@2@@__crt_stdio_output@@AEAA_NXZ 000000018004ddf4 f i libucrt:output.obj
 0001:0004ce10       ?type_case_p@?$output_processor@_WV?$stream_output_adapter@_W@__crt_stdio_output@@V?$positional_parameter_base@_WV?$stream_output_adapter@_W@__crt_stdio_output@@@2@@__crt_stdio_output@@AEAA_NXZ 000000018004de10 f i libucrt:output.obj
 0001:0004ce2c       ?type_case_p@?$output_processor@_WV?$stream_output_adapter@_W@__crt_stdio_output@@V?$standard_base@_WV?$stream_output_adapter@_W@__crt_stdio_output@@@2@@__crt_stdio_output@@AEAA_NXZ 000000018004de2c f i libucrt:output.obj
 0001:0004ce48       ?type_case_p@?$output_processor@_WV?$string_output_adapter@_W@__crt_stdio_output@@V?$format_validation_base@_WV?$string_output_adapter@_W@__crt_stdio_output@@@2@@__crt_stdio_output@@AEAA_NXZ 000000018004de48 f i libucrt:output.obj
 0001:0004ce64       ?type_case_p@?$output_processor@_WV?$string_output_adapter@_W@__crt_stdio_output@@V?$positional_parameter_base@_WV?$string_output_adapter@_W@__crt_stdio_output@@@2@@__crt_stdio_output@@AEAA_NXZ 000000018004de64 f i libucrt:output.obj
 0001:0004ce80       ?type_case_p@?$output_processor@_WV?$string_output_adapter@_W@__crt_stdio_output@@V?$standard_base@_WV?$string_output_adapter@_W@__crt_stdio_output@@@2@@__crt_stdio_output@@AEAA_NXZ 000000018004de80 f i libucrt:output.obj
 0001:0004ce9c       ?type_case_s@?$output_processor@DV?$stream_output_adapter@D@__crt_stdio_output@@V?$format_validation_base@DV?$stream_output_adapter@D@__crt_stdio_output@@@2@@__crt_stdio_output@@AEAA_NXZ 000000018004de9c f i libucrt:output.obj
 0001:0004cf5c       ?type_case_s@?$output_processor@DV?$stream_output_adapter@D@__crt_stdio_output@@V?$positional_parameter_base@DV?$stream_output_adapter@D@__crt_stdio_output@@@2@@__crt_stdio_output@@AEAA_NXZ 000000018004df5c f i libucrt:output.obj
 0001:0004d048       ?type_case_s@?$output_processor@DV?$stream_output_adapter@D@__crt_stdio_output@@V?$standard_base@DV?$stream_output_adapter@D@__crt_stdio_output@@@2@@__crt_stdio_output@@AEAA_NXZ 000000018004e048 f i libucrt:output.obj
 0001:0004d108       ?type_case_s@?$output_processor@DV?$string_output_adapter@D@__crt_stdio_output@@V?$format_validation_base@DV?$string_output_adapter@D@__crt_stdio_output@@@2@@__crt_stdio_output@@AEAA_NXZ 000000018004e108 f i libucrt:output.obj
 0001:0004d1c8       ?type_case_s@?$output_processor@DV?$string_output_adapter@D@__crt_stdio_output@@V?$positional_parameter_base@DV?$string_output_adapter@D@__crt_stdio_output@@@2@@__crt_stdio_output@@AEAA_NXZ 000000018004e1c8 f i libucrt:output.obj
 0001:0004d2b4       ?type_case_s@?$output_processor@DV?$string_output_adapter@D@__crt_stdio_output@@V?$standard_base@DV?$string_output_adapter@D@__crt_stdio_output@@@2@@__crt_stdio_output@@AEAA_NXZ 000000018004e2b4 f i libucrt:output.obj
 0001:0004d374       ?type_case_s@?$output_processor@_WV?$stream_output_adapter@_W@__crt_stdio_output@@V?$format_validation_base@_WV?$stream_output_adapter@_W@__crt_stdio_output@@@2@@__crt_stdio_output@@AEAA_NXZ 000000018004e374 f i libucrt:output.obj
 0001:0004d434       ?type_case_s@?$output_processor@_WV?$stream_output_adapter@_W@__crt_stdio_output@@V?$positional_parameter_base@_WV?$stream_output_adapter@_W@__crt_stdio_output@@@2@@__crt_stdio_output@@AEAA_NXZ 000000018004e434 f i libucrt:output.obj
 0001:0004d518       ?type_case_s@?$output_processor@_WV?$stream_output_adapter@_W@__crt_stdio_output@@V?$standard_base@_WV?$stream_output_adapter@_W@__crt_stdio_output@@@2@@__crt_stdio_output@@AEAA_NXZ 000000018004e518 f i libucrt:output.obj
 0001:0004d5d8       ?type_case_s@?$output_processor@_WV?$string_output_adapter@_W@__crt_stdio_output@@V?$format_validation_base@_WV?$string_output_adapter@_W@__crt_stdio_output@@@2@@__crt_stdio_output@@AEAA_NXZ 000000018004e5d8 f i libucrt:output.obj
 0001:0004d698       ?type_case_s@?$output_processor@_WV?$string_output_adapter@_W@__crt_stdio_output@@V?$positional_parameter_base@_WV?$string_output_adapter@_W@__crt_stdio_output@@@2@@__crt_stdio_output@@AEAA_NXZ 000000018004e698 f i libucrt:output.obj
 0001:0004d77c       ?type_case_s@?$output_processor@_WV?$string_output_adapter@_W@__crt_stdio_output@@V?$standard_base@_WV?$string_output_adapter@_W@__crt_stdio_output@@@2@@__crt_stdio_output@@AEAA_NXZ 000000018004e77c f i libucrt:output.obj
 0001:0004d83c       ?type_case_s_compute_narrow_string_length@?$output_processor@DV?$stream_output_adapter@D@__crt_stdio_output@@V?$format_validation_base@DV?$stream_output_adapter@D@__crt_stdio_output@@@2@@__crt_stdio_output@@AEAAHHD@Z 000000018004e83c f i libucrt:output.obj
 0001:0004d84c       ?type_case_s_compute_narrow_string_length@?$output_processor@DV?$stream_output_adapter@D@__crt_stdio_output@@V?$positional_parameter_base@DV?$stream_output_adapter@D@__crt_stdio_output@@@2@@__crt_stdio_output@@AEAAHHD@Z 000000018004e84c f i libucrt:output.obj
 0001:0004d85c       ?type_case_s_compute_narrow_string_length@?$output_processor@DV?$stream_output_adapter@D@__crt_stdio_output@@V?$standard_base@DV?$stream_output_adapter@D@__crt_stdio_output@@@2@@__crt_stdio_output@@AEAAHHD@Z 000000018004e85c f i libucrt:output.obj
 0001:0004d86c       ?type_case_s_compute_narrow_string_length@?$output_processor@DV?$string_output_adapter@D@__crt_stdio_output@@V?$format_validation_base@DV?$string_output_adapter@D@__crt_stdio_output@@@2@@__crt_stdio_output@@AEAAHHD@Z 000000018004e86c f i libucrt:output.obj
 0001:0004d87c       ?type_case_s_compute_narrow_string_length@?$output_processor@DV?$string_output_adapter@D@__crt_stdio_output@@V?$positional_parameter_base@DV?$string_output_adapter@D@__crt_stdio_output@@@2@@__crt_stdio_output@@AEAAHHD@Z 000000018004e87c f i libucrt:output.obj
 0001:0004d88c       ?type_case_s_compute_narrow_string_length@?$output_processor@DV?$string_output_adapter@D@__crt_stdio_output@@V?$standard_base@DV?$string_output_adapter@D@__crt_stdio_output@@@2@@__crt_stdio_output@@AEAAHHD@Z 000000018004e88c f i libucrt:output.obj
 0001:0004d89c       ?type_case_s_compute_narrow_string_length@?$output_processor@_WV?$stream_output_adapter@_W@__crt_stdio_output@@V?$format_validation_base@_WV?$stream_output_adapter@_W@__crt_stdio_output@@@2@@__crt_stdio_output@@AEAAHH_W@Z 000000018004e89c f i libucrt:output.obj
 0001:0004d98c       ?type_case_s_compute_narrow_string_length@?$output_processor@_WV?$stream_output_adapter@_W@__crt_stdio_output@@V?$positional_parameter_base@_WV?$stream_output_adapter@_W@__crt_stdio_output@@@2@@__crt_stdio_output@@AEAAHH_W@Z 000000018004e98c f i libucrt:output.obj
 0001:0004da7c       ?type_case_s_compute_narrow_string_length@?$output_processor@_WV?$stream_output_adapter@_W@__crt_stdio_output@@V?$standard_base@_WV?$stream_output_adapter@_W@__crt_stdio_output@@@2@@__crt_stdio_output@@AEAAHH_W@Z 000000018004ea7c f i libucrt:output.obj
 0001:0004db6c       ?type_case_s_compute_narrow_string_length@?$output_processor@_WV?$string_output_adapter@_W@__crt_stdio_output@@V?$format_validation_base@_WV?$string_output_adapter@_W@__crt_stdio_output@@@2@@__crt_stdio_output@@AEAAHH_W@Z 000000018004eb6c f i libucrt:output.obj
 0001:0004dc5c       ?type_case_s_compute_narrow_string_length@?$output_processor@_WV?$string_output_adapter@_W@__crt_stdio_output@@V?$positional_parameter_base@_WV?$string_output_adapter@_W@__crt_stdio_output@@@2@@__crt_stdio_output@@AEAAHH_W@Z 000000018004ec5c f i libucrt:output.obj
 0001:0004dd4c       ?type_case_s_compute_narrow_string_length@?$output_processor@_WV?$string_output_adapter@_W@__crt_stdio_output@@V?$standard_base@_WV?$string_output_adapter@_W@__crt_stdio_output@@@2@@__crt_stdio_output@@AEAAHH_W@Z 000000018004ed4c f i libucrt:output.obj
 0001:0004de3c       ?type_case_u@?$output_processor@DV?$stream_output_adapter@D@__crt_stdio_output@@V?$format_validation_base@DV?$stream_output_adapter@D@__crt_stdio_output@@@2@@__crt_stdio_output@@AEAA_NXZ 000000018004ee3c f i libucrt:output.obj
 0001:0004de44       ?type_case_u@?$output_processor@DV?$stream_output_adapter@D@__crt_stdio_output@@V?$positional_parameter_base@DV?$stream_output_adapter@D@__crt_stdio_output@@@2@@__crt_stdio_output@@AEAA_NXZ 000000018004ee44 f i libucrt:output.obj
 0001:0004de4c       ?type_case_u@?$output_processor@DV?$stream_output_adapter@D@__crt_stdio_output@@V?$standard_base@DV?$stream_output_adapter@D@__crt_stdio_output@@@2@@__crt_stdio_output@@AEAA_NXZ 000000018004ee4c f i libucrt:output.obj
 0001:0004de54       ?type_case_u@?$output_processor@DV?$string_output_adapter@D@__crt_stdio_output@@V?$format_validation_base@DV?$string_output_adapter@D@__crt_stdio_output@@@2@@__crt_stdio_output@@AEAA_NXZ 000000018004ee54 f i libucrt:output.obj
 0001:0004de5c       ?type_case_u@?$output_processor@DV?$string_output_adapter@D@__crt_stdio_output@@V?$positional_parameter_base@DV?$string_output_adapter@D@__crt_stdio_output@@@2@@__crt_stdio_output@@AEAA_NXZ 000000018004ee5c f i libucrt:output.obj
 0001:0004de64       ?type_case_u@?$output_processor@DV?$string_output_adapter@D@__crt_stdio_output@@V?$standard_base@DV?$string_output_adapter@D@__crt_stdio_output@@@2@@__crt_stdio_output@@AEAA_NXZ 000000018004ee64 f i libucrt:output.obj
 0001:0004de6c       ?type_case_u@?$output_processor@_WV?$stream_output_adapter@_W@__crt_stdio_output@@V?$format_validation_base@_WV?$stream_output_adapter@_W@__crt_stdio_output@@@2@@__crt_stdio_output@@AEAA_NXZ 000000018004ee6c f i libucrt:output.obj
 0001:0004de74       ?type_case_u@?$output_processor@_WV?$stream_output_adapter@_W@__crt_stdio_output@@V?$positional_parameter_base@_WV?$stream_output_adapter@_W@__crt_stdio_output@@@2@@__crt_stdio_output@@AEAA_NXZ 000000018004ee74 f i libucrt:output.obj
 0001:0004de7c       ?type_case_u@?$output_processor@_WV?$stream_output_adapter@_W@__crt_stdio_output@@V?$standard_base@_WV?$stream_output_adapter@_W@__crt_stdio_output@@@2@@__crt_stdio_output@@AEAA_NXZ 000000018004ee7c f i libucrt:output.obj
 0001:0004de84       ?type_case_u@?$output_processor@_WV?$string_output_adapter@_W@__crt_stdio_output@@V?$format_validation_base@_WV?$string_output_adapter@_W@__crt_stdio_output@@@2@@__crt_stdio_output@@AEAA_NXZ 000000018004ee84 f i libucrt:output.obj
 0001:0004de8c       ?type_case_u@?$output_processor@_WV?$string_output_adapter@_W@__crt_stdio_output@@V?$positional_parameter_base@_WV?$string_output_adapter@_W@__crt_stdio_output@@@2@@__crt_stdio_output@@AEAA_NXZ 000000018004ee8c f i libucrt:output.obj
 0001:0004de94       ?type_case_u@?$output_processor@_WV?$string_output_adapter@_W@__crt_stdio_output@@V?$standard_base@_WV?$string_output_adapter@_W@__crt_stdio_output@@@2@@__crt_stdio_output@@AEAA_NXZ 000000018004ee94 f i libucrt:output.obj
 0001:0004de9c       ?type_case_x@?$output_processor@DV?$stream_output_adapter@D@__crt_stdio_output@@V?$format_validation_base@DV?$stream_output_adapter@D@__crt_stdio_output@@@2@@__crt_stdio_output@@AEAA_NXZ 000000018004ee9c f i libucrt:output.obj
 0001:0004dea4       ?type_case_x@?$output_processor@DV?$stream_output_adapter@D@__crt_stdio_output@@V?$positional_parameter_base@DV?$stream_output_adapter@D@__crt_stdio_output@@@2@@__crt_stdio_output@@AEAA_NXZ 000000018004eea4 f i libucrt:output.obj
 0001:0004deac       ?type_case_x@?$output_processor@DV?$stream_output_adapter@D@__crt_stdio_output@@V?$standard_base@DV?$stream_output_adapter@D@__crt_stdio_output@@@2@@__crt_stdio_output@@AEAA_NXZ 000000018004eeac f i libucrt:output.obj
 0001:0004deb4       ?type_case_x@?$output_processor@DV?$string_output_adapter@D@__crt_stdio_output@@V?$format_validation_base@DV?$string_output_adapter@D@__crt_stdio_output@@@2@@__crt_stdio_output@@AEAA_NXZ 000000018004eeb4 f i libucrt:output.obj
 0001:0004debc       ?type_case_x@?$output_processor@DV?$string_output_adapter@D@__crt_stdio_output@@V?$positional_parameter_base@DV?$string_output_adapter@D@__crt_stdio_output@@@2@@__crt_stdio_output@@AEAA_NXZ 000000018004eebc f i libucrt:output.obj
 0001:0004dec4       ?type_case_x@?$output_processor@DV?$string_output_adapter@D@__crt_stdio_output@@V?$standard_base@DV?$string_output_adapter@D@__crt_stdio_output@@@2@@__crt_stdio_output@@AEAA_NXZ 000000018004eec4 f i libucrt:output.obj
 0001:0004decc       ?type_case_x@?$output_processor@_WV?$stream_output_adapter@_W@__crt_stdio_output@@V?$format_validation_base@_WV?$stream_output_adapter@_W@__crt_stdio_output@@@2@@__crt_stdio_output@@AEAA_NXZ 000000018004eecc f i libucrt:output.obj
 0001:0004ded4       ?type_case_x@?$output_processor@_WV?$stream_output_adapter@_W@__crt_stdio_output@@V?$positional_parameter_base@_WV?$stream_output_adapter@_W@__crt_stdio_output@@@2@@__crt_stdio_output@@AEAA_NXZ 000000018004eed4 f i libucrt:output.obj
 0001:0004dedc       ?type_case_x@?$output_processor@_WV?$stream_output_adapter@_W@__crt_stdio_output@@V?$standard_base@_WV?$stream_output_adapter@_W@__crt_stdio_output@@@2@@__crt_stdio_output@@AEAA_NXZ 000000018004eedc f i libucrt:output.obj
 0001:0004dee4       ?type_case_x@?$output_processor@_WV?$string_output_adapter@_W@__crt_stdio_output@@V?$format_validation_base@_WV?$string_output_adapter@_W@__crt_stdio_output@@@2@@__crt_stdio_output@@AEAA_NXZ 000000018004eee4 f i libucrt:output.obj
 0001:0004deec       ?type_case_x@?$output_processor@_WV?$string_output_adapter@_W@__crt_stdio_output@@V?$positional_parameter_base@_WV?$string_output_adapter@_W@__crt_stdio_output@@@2@@__crt_stdio_output@@AEAA_NXZ 000000018004eeec f i libucrt:output.obj
 0001:0004def4       ?type_case_x@?$output_processor@_WV?$string_output_adapter@_W@__crt_stdio_output@@V?$standard_base@_WV?$string_output_adapter@_W@__crt_stdio_output@@@2@@__crt_stdio_output@@AEAA_NXZ 000000018004eef4 f i libucrt:output.obj
 0001:0004defc       ?unget@?$c_string_character_source@D@__crt_strtox@@QEAAXD@Z 000000018004eefc f i libucrt:output.obj
 0001:0004df30       ?unget@?$c_string_character_source@_W@__crt_strtox@@QEAAX_W@Z 000000018004ef30 f i libucrt:output.obj
 0001:0004df68       ?unsafe_value@?$cached@H@__crt_cached_ptd_host@@QEAAHXZ 000000018004ef68 f i libucrt:output.obj
 0001:0004df6c       ?unsafe_value@?$cached@K@__crt_cached_ptd_host@@QEAAKXZ 000000018004ef6c f i libucrt:output.obj
 0001:0004df70       ?unset_flag@?$output_processor@DV?$stream_output_adapter@D@__crt_stdio_output@@V?$format_validation_base@DV?$stream_output_adapter@D@__crt_stdio_output@@@2@@__crt_stdio_output@@AEAAXI@Z 000000018004ef70 f i libucrt:output.obj
 0001:0004df78       ?unset_flag@?$output_processor@DV?$stream_output_adapter@D@__crt_stdio_output@@V?$positional_parameter_base@DV?$stream_output_adapter@D@__crt_stdio_output@@@2@@__crt_stdio_output@@AEAAXI@Z 000000018004ef78 f i libucrt:output.obj
 0001:0004df80       ?unset_flag@?$output_processor@DV?$stream_output_adapter@D@__crt_stdio_output@@V?$standard_base@DV?$stream_output_adapter@D@__crt_stdio_output@@@2@@__crt_stdio_output@@AEAAXI@Z 000000018004ef80 f i libucrt:output.obj
 0001:0004df88       ?unset_flag@?$output_processor@DV?$string_output_adapter@D@__crt_stdio_output@@V?$format_validation_base@DV?$string_output_adapter@D@__crt_stdio_output@@@2@@__crt_stdio_output@@AEAAXI@Z 000000018004ef88 f i libucrt:output.obj
 0001:0004df90       ?unset_flag@?$output_processor@DV?$string_output_adapter@D@__crt_stdio_output@@V?$positional_parameter_base@DV?$string_output_adapter@D@__crt_stdio_output@@@2@@__crt_stdio_output@@AEAAXI@Z 000000018004ef90 f i libucrt:output.obj
 0001:0004df98       ?unset_flag@?$output_processor@DV?$string_output_adapter@D@__crt_stdio_output@@V?$standard_base@DV?$string_output_adapter@D@__crt_stdio_output@@@2@@__crt_stdio_output@@AEAAXI@Z 000000018004ef98 f i libucrt:output.obj
 0001:0004dfa0       ?unset_flag@?$output_processor@_WV?$stream_output_adapter@_W@__crt_stdio_output@@V?$format_validation_base@_WV?$stream_output_adapter@_W@__crt_stdio_output@@@2@@__crt_stdio_output@@AEAAXI@Z 000000018004efa0 f i libucrt:output.obj
 0001:0004dfa8       ?unset_flag@?$output_processor@_WV?$stream_output_adapter@_W@__crt_stdio_output@@V?$positional_parameter_base@_WV?$stream_output_adapter@_W@__crt_stdio_output@@@2@@__crt_stdio_output@@AEAAXI@Z 000000018004efa8 f i libucrt:output.obj
 0001:0004dfb0       ?unset_flag@?$output_processor@_WV?$stream_output_adapter@_W@__crt_stdio_output@@V?$standard_base@_WV?$stream_output_adapter@_W@__crt_stdio_output@@@2@@__crt_stdio_output@@AEAAXI@Z 000000018004efb0 f i libucrt:output.obj
 0001:0004dfb8       ?unset_flag@?$output_processor@_WV?$string_output_adapter@_W@__crt_stdio_output@@V?$format_validation_base@_WV?$string_output_adapter@_W@__crt_stdio_output@@@2@@__crt_stdio_output@@AEAAXI@Z 000000018004efb8 f i libucrt:output.obj
 0001:0004dfc0       ?unset_flag@?$output_processor@_WV?$string_output_adapter@_W@__crt_stdio_output@@V?$positional_parameter_base@_WV?$string_output_adapter@_W@__crt_stdio_output@@@2@@__crt_stdio_output@@AEAAXI@Z 000000018004efc0 f i libucrt:output.obj
 0001:0004dfc8       ?unset_flag@?$output_processor@_WV?$string_output_adapter@_W@__crt_stdio_output@@V?$standard_base@_WV?$string_output_adapter@_W@__crt_stdio_output@@@2@@__crt_stdio_output@@AEAAXI@Z 000000018004efc8 f i libucrt:output.obj
 0001:0004dfd0       ?update_field_width@?$positional_parameter_base@DV?$stream_output_adapter@D@__crt_stdio_output@@@__crt_stdio_output@@IEAA_NXZ 000000018004efd0 f i libucrt:output.obj
 0001:0004e198       ?update_field_width@?$positional_parameter_base@DV?$string_output_adapter@D@__crt_stdio_output@@@__crt_stdio_output@@IEAA_NXZ 000000018004f198 f i libucrt:output.obj
 0001:0004e360       ?update_field_width@?$positional_parameter_base@_WV?$stream_output_adapter@_W@__crt_stdio_output@@@__crt_stdio_output@@IEAA_NXZ 000000018004f360 f i libucrt:output.obj
 0001:0004e52c       ?update_field_width@?$positional_parameter_base@_WV?$string_output_adapter@_W@__crt_stdio_output@@@__crt_stdio_output@@IEAA_NXZ 000000018004f52c f i libucrt:output.obj
 0001:0004e6f8       ?update_field_width@?$standard_base@DV?$stream_output_adapter@D@__crt_stdio_output@@@__crt_stdio_output@@IEAA_NXZ 000000018004f6f8 f i libucrt:output.obj
 0001:0004e714       ?update_field_width@?$standard_base@DV?$string_output_adapter@D@__crt_stdio_output@@@__crt_stdio_output@@IEAA_NXZ 000000018004f714 f i libucrt:output.obj
 0001:0004e730       ?update_field_width@?$standard_base@_WV?$stream_output_adapter@_W@__crt_stdio_output@@@__crt_stdio_output@@IEAA_NXZ 000000018004f730 f i libucrt:output.obj
 0001:0004e74c       ?update_field_width@?$standard_base@_WV?$string_output_adapter@_W@__crt_stdio_output@@@__crt_stdio_output@@IEAA_NXZ 000000018004f74c f i libucrt:output.obj
 0001:0004e770       ?update_locale@__crt_cached_ptd_host@@AEAAXXZ 000000018004f770 f i libucrt:output.obj
 0001:0004e780       ?update_locale_slow@__crt_cached_ptd_host@@AEAAXXZ 000000018004f780 f i libucrt:output.obj
 0001:0004e814       ?update_precision@?$positional_parameter_base@DV?$stream_output_adapter@D@__crt_stdio_output@@@__crt_stdio_output@@IEAA_NXZ 000000018004f814 f i libucrt:output.obj
 0001:0004e9dc       ?update_precision@?$positional_parameter_base@DV?$string_output_adapter@D@__crt_stdio_output@@@__crt_stdio_output@@IEAA_NXZ 000000018004f9dc f i libucrt:output.obj
 0001:0004eba4       ?update_precision@?$positional_parameter_base@_WV?$stream_output_adapter@_W@__crt_stdio_output@@@__crt_stdio_output@@IEAA_NXZ 000000018004fba4 f i libucrt:output.obj
 0001:0004ed70       ?update_precision@?$positional_parameter_base@_WV?$string_output_adapter@_W@__crt_stdio_output@@@__crt_stdio_output@@IEAA_NXZ 000000018004fd70 f i libucrt:output.obj
 0001:0004ef3c       ?update_precision@?$standard_base@DV?$stream_output_adapter@D@__crt_stdio_output@@@__crt_stdio_output@@IEAA_NXZ 000000018004ff3c f i libucrt:output.obj
 0001:0004ef58       ?update_precision@?$standard_base@DV?$string_output_adapter@D@__crt_stdio_output@@@__crt_stdio_output@@IEAA_NXZ 000000018004ff58 f i libucrt:output.obj
 0001:0004ef74       ?update_precision@?$standard_base@_WV?$stream_output_adapter@_W@__crt_stdio_output@@@__crt_stdio_output@@IEAA_NXZ 000000018004ff74 f i libucrt:output.obj
 0001:0004ef90       ?update_precision@?$standard_base@_WV?$string_output_adapter@_W@__crt_stdio_output@@@__crt_stdio_output@@IEAA_NXZ 000000018004ff90 f i libucrt:output.obj
 0001:0004efac       ?valid@?$cached@H@__crt_cached_ptd_host@@QEBA_NXZ 000000018004ffac f i libucrt:output.obj
 0001:0004efb0       ?valid@?$cached@K@__crt_cached_ptd_host@@QEBA_NXZ 000000018004ffb0 f i libucrt:output.obj
 0001:0004efb4       ?valid@__crt_stdio_stream@@QEBA_NXZ 000000018004ffb4 f i libucrt:output.obj
 0001:0004efc0       ?validate@?$c_string_character_source@D@__crt_strtox@@QEBA_NXZ 000000018004ffc0 f i libucrt:output.obj
 0001:0004eff0       ?validate@?$c_string_character_source@_W@__crt_strtox@@QEBA_NXZ 000000018004fff0 f i libucrt:output.obj
 0001:0004f020       ?validate@?$stream_output_adapter@D@__crt_stdio_output@@QEBA_NAEAV__crt_cached_ptd_host@@@Z 0000000180050020 f i libucrt:output.obj
 0001:0004f070       ?validate@?$stream_output_adapter@_W@__crt_stdio_output@@QEBA_NAEAV__crt_cached_ptd_host@@@Z 0000000180050070 f i libucrt:output.obj
 0001:0004f0b8       ?validate@?$string_output_adapter@D@__crt_stdio_output@@QEBA_NAEAV__crt_cached_ptd_host@@@Z 00000001800500b8 f i libucrt:output.obj
 0001:0004f100       ?validate@?$string_output_adapter@_W@__crt_stdio_output@@QEBA_NAEAV__crt_cached_ptd_host@@@Z 0000000180050100 f i libucrt:output.obj
 0001:0004f148       ?validate_and_store_parameter_data@?$positional_parameter_base@DV?$stream_output_adapter@D@__crt_stdio_output@@@__crt_stdio_output@@AEAA_NAEAUparameter_data@12@W4parameter_type@12@DW4length_modifier@2@@Z 0000000180050148 f i libucrt:output.obj
 0001:0004f1c4       ?validate_and_store_parameter_data@?$positional_parameter_base@DV?$string_output_adapter@D@__crt_stdio_output@@@__crt_stdio_output@@AEAA_NAEAUparameter_data@12@W4parameter_type@12@DW4length_modifier@2@@Z 00000001800501c4 f i libucrt:output.obj
 0001:0004f240       ?validate_and_store_parameter_data@?$positional_parameter_base@_WV?$stream_output_adapter@_W@__crt_stdio_output@@@__crt_stdio_output@@AEAA_NAEAUparameter_data@12@W4parameter_type@12@_WW4length_modifier@2@@Z 0000000180050240 f i libucrt:output.obj
 0001:0004f2bc       ?validate_and_store_parameter_data@?$positional_parameter_base@_WV?$string_output_adapter@_W@__crt_stdio_output@@@__crt_stdio_output@@AEAA_NAEAUparameter_data@12@W4parameter_type@12@_WW4length_modifier@2@@Z 00000001800502bc f i libucrt:output.obj
 0001:0004f338       ?validate_and_update_state_at_beginning_of_format_character@?$positional_parameter_base@DV?$stream_output_adapter@D@__crt_stdio_output@@@__crt_stdio_output@@IEAA_NXZ 0000000180050338 f i libucrt:output.obj
 0001:0004f4cc       ?validate_and_update_state_at_beginning_of_format_character@?$positional_parameter_base@DV?$string_output_adapter@D@__crt_stdio_output@@@__crt_stdio_output@@IEAA_NXZ 00000001800504cc f i libucrt:output.obj
 0001:0004f660       ?validate_and_update_state_at_beginning_of_format_character@?$positional_parameter_base@_WV?$stream_output_adapter@_W@__crt_stdio_output@@@__crt_stdio_output@@IEAA_NXZ 0000000180050660 f i libucrt:output.obj
 0001:0004f804       ?validate_and_update_state_at_beginning_of_format_character@?$positional_parameter_base@_WV?$string_output_adapter@_W@__crt_stdio_output@@@__crt_stdio_output@@IEAA_NXZ 0000000180050804 f i libucrt:output.obj
 0001:0004f9a8       ?validate_and_update_state_at_beginning_of_format_character@?$standard_base@DV?$stream_output_adapter@D@__crt_stdio_output@@@__crt_stdio_output@@IEAA_NXZ 00000001800509a8 f i libucrt:output.obj
 0001:0004f9ac       ?validate_and_update_state_at_beginning_of_format_character@?$standard_base@DV?$string_output_adapter@D@__crt_stdio_output@@@__crt_stdio_output@@IEAA_NXZ 00000001800509ac f i libucrt:output.obj
 0001:0004f9b0       ?validate_and_update_state_at_beginning_of_format_character@?$standard_base@_WV?$stream_output_adapter@_W@__crt_stdio_output@@@__crt_stdio_output@@IEAA_NXZ 00000001800509b0 f i libucrt:output.obj
 0001:0004f9b4       ?validate_and_update_state_at_beginning_of_format_character@?$standard_base@_WV?$string_output_adapter@_W@__crt_stdio_output@@@__crt_stdio_output@@IEAA_NXZ 00000001800509b4 f i libucrt:output.obj
 0001:0004f9b8       ?validate_and_update_state_at_end_of_format_string@?$format_validation_base@DV?$stream_output_adapter@D@__crt_stdio_output@@@__crt_stdio_output@@IEAA_NXZ 00000001800509b8 f i libucrt:output.obj
 0001:0004fa10       ?validate_and_update_state_at_end_of_format_string@?$format_validation_base@DV?$string_output_adapter@D@__crt_stdio_output@@@__crt_stdio_output@@IEAA_NXZ 0000000180050a10 f i libucrt:output.obj
 0001:0004fa68       ?validate_and_update_state_at_end_of_format_string@?$format_validation_base@_WV?$stream_output_adapter@_W@__crt_stdio_output@@@__crt_stdio_output@@IEAA_NXZ 0000000180050a68 f i libucrt:output.obj
 0001:0004fac0       ?validate_and_update_state_at_end_of_format_string@?$format_validation_base@_WV?$string_output_adapter@_W@__crt_stdio_output@@@__crt_stdio_output@@IEAA_NXZ 0000000180050ac0 f i libucrt:output.obj
 0001:0004fb18       ?validate_and_update_state_at_end_of_format_string@?$positional_parameter_base@DV?$stream_output_adapter@D@__crt_stdio_output@@@__crt_stdio_output@@IEAA_NXZ 0000000180050b18 f i libucrt:output.obj
 0001:0004fbfc       ?validate_and_update_state_at_end_of_format_string@?$positional_parameter_base@DV?$string_output_adapter@D@__crt_stdio_output@@@__crt_stdio_output@@IEAA_NXZ 0000000180050bfc f i libucrt:output.obj
 0001:0004fce0       ?validate_and_update_state_at_end_of_format_string@?$positional_parameter_base@_WV?$stream_output_adapter@_W@__crt_stdio_output@@@__crt_stdio_output@@IEAA_NXZ 0000000180050ce0 f i libucrt:output.obj
 0001:0004fdc4       ?validate_and_update_state_at_end_of_format_string@?$positional_parameter_base@_WV?$string_output_adapter@_W@__crt_stdio_output@@@__crt_stdio_output@@IEAA_NXZ 0000000180050dc4 f i libucrt:output.obj
 0001:0004fea8       ?validate_and_update_state_at_end_of_format_string@?$standard_base@DV?$stream_output_adapter@D@__crt_stdio_output@@@__crt_stdio_output@@IEBA_NXZ 0000000180050ea8 f i libucrt:output.obj
 0001:0004feac       ?validate_and_update_state_at_end_of_format_string@?$standard_base@DV?$string_output_adapter@D@__crt_stdio_output@@@__crt_stdio_output@@IEBA_NXZ 0000000180050eac f i libucrt:output.obj
 0001:0004feb0       ?validate_and_update_state_at_end_of_format_string@?$standard_base@_WV?$stream_output_adapter@_W@__crt_stdio_output@@@__crt_stdio_output@@IEBA_NXZ 0000000180050eb0 f i libucrt:output.obj
 0001:0004feb4       ?validate_and_update_state_at_end_of_format_string@?$standard_base@_WV?$string_output_adapter@_W@__crt_stdio_output@@@__crt_stdio_output@@IEBA_NXZ 0000000180050eb4 f i libucrt:output.obj
 0001:0004feb8       ?validate_state_for_type_case_a@?$positional_parameter_base@DV?$stream_output_adapter@D@__crt_stdio_output@@@__crt_stdio_output@@IEAA_NXZ 0000000180050eb8 f i libucrt:output.obj
 0001:0004ffd4       ?validate_state_for_type_case_a@?$positional_parameter_base@DV?$string_output_adapter@D@__crt_stdio_output@@@__crt_stdio_output@@IEAA_NXZ 0000000180050fd4 f i libucrt:output.obj
 0001:000500f0       ?validate_state_for_type_case_a@?$positional_parameter_base@_WV?$stream_output_adapter@_W@__crt_stdio_output@@@__crt_stdio_output@@IEAA_NXZ 00000001800510f0 f i libucrt:output.obj
 0001:00050210       ?validate_state_for_type_case_a@?$positional_parameter_base@_WV?$string_output_adapter@_W@__crt_stdio_output@@@__crt_stdio_output@@IEAA_NXZ 0000000180051210 f i libucrt:output.obj
 0001:00050330       ?validate_state_for_type_case_a@?$standard_base@DV?$stream_output_adapter@D@__crt_stdio_output@@@__crt_stdio_output@@IEBA_NXZ 0000000180051330 f i libucrt:output.obj
 0001:00050334       ?validate_state_for_type_case_a@?$standard_base@DV?$string_output_adapter@D@__crt_stdio_output@@@__crt_stdio_output@@IEBA_NXZ 0000000180051334 f i libucrt:output.obj
 0001:00050338       ?validate_state_for_type_case_a@?$standard_base@_WV?$stream_output_adapter@_W@__crt_stdio_output@@@__crt_stdio_output@@IEBA_NXZ 0000000180051338 f i libucrt:output.obj
 0001:0005033c       ?validate_state_for_type_case_a@?$standard_base@_WV?$string_output_adapter@_W@__crt_stdio_output@@@__crt_stdio_output@@IEBA_NXZ 000000018005133c f i libucrt:output.obj
 0001:00050340       ?validate_stream_is_ansi_if_required@?$__acrt_stdio_char_traits@D@@SA_NQEAU_iobuf@@@Z 0000000180051340 f i libucrt:output.obj
 0001:00050404       ?validate_stream_is_ansi_if_required@?$__acrt_stdio_char_traits@_W@@SA_NQEAU_iobuf@@@Z 0000000180051404 f i libucrt:output.obj
 0001:00050408       ?wide_character_to_digit@__crt_strtox@@YAH_W@Z 0000000180051408 f i libucrt:output.obj
 0001:00050610       ?wide_null_string@?$output_processor@DV?$stream_output_adapter@D@__crt_stdio_output@@V?$format_validation_base@DV?$stream_output_adapter@D@__crt_stdio_output@@@2@@__crt_stdio_output@@CAPEA_WXZ 0000000180051610 f i libucrt:output.obj
 0001:0005061c       ?wide_null_string@?$output_processor@DV?$stream_output_adapter@D@__crt_stdio_output@@V?$positional_parameter_base@DV?$stream_output_adapter@D@__crt_stdio_output@@@2@@__crt_stdio_output@@CAPEA_WXZ 000000018005161c f i libucrt:output.obj
 0001:00050628       ?wide_null_string@?$output_processor@DV?$stream_output_adapter@D@__crt_stdio_output@@V?$standard_base@DV?$stream_output_adapter@D@__crt_stdio_output@@@2@@__crt_stdio_output@@CAPEA_WXZ 0000000180051628 f i libucrt:output.obj
 0001:00050634       ?wide_null_string@?$output_processor@DV?$string_output_adapter@D@__crt_stdio_output@@V?$format_validation_base@DV?$string_output_adapter@D@__crt_stdio_output@@@2@@__crt_stdio_output@@CAPEA_WXZ 0000000180051634 f i libucrt:output.obj
 0001:00050640       ?wide_null_string@?$output_processor@DV?$string_output_adapter@D@__crt_stdio_output@@V?$positional_parameter_base@DV?$string_output_adapter@D@__crt_stdio_output@@@2@@__crt_stdio_output@@CAPEA_WXZ 0000000180051640 f i libucrt:output.obj
 0001:0005064c       ?wide_null_string@?$output_processor@DV?$string_output_adapter@D@__crt_stdio_output@@V?$standard_base@DV?$string_output_adapter@D@__crt_stdio_output@@@2@@__crt_stdio_output@@CAPEA_WXZ 000000018005164c f i libucrt:output.obj
 0001:00050658       ?wide_null_string@?$output_processor@_WV?$stream_output_adapter@_W@__crt_stdio_output@@V?$format_validation_base@_WV?$stream_output_adapter@_W@__crt_stdio_output@@@2@@__crt_stdio_output@@CAPEA_WXZ 0000000180051658 f i libucrt:output.obj
 0001:00050664       ?wide_null_string@?$output_processor@_WV?$stream_output_adapter@_W@__crt_stdio_output@@V?$positional_parameter_base@_WV?$stream_output_adapter@_W@__crt_stdio_output@@@2@@__crt_stdio_output@@CAPEA_WXZ 0000000180051664 f i libucrt:output.obj
 0001:00050670       ?wide_null_string@?$output_processor@_WV?$stream_output_adapter@_W@__crt_stdio_output@@V?$standard_base@_WV?$stream_output_adapter@_W@__crt_stdio_output@@@2@@__crt_stdio_output@@CAPEA_WXZ 0000000180051670 f i libucrt:output.obj
 0001:0005067c       ?wide_null_string@?$output_processor@_WV?$string_output_adapter@_W@__crt_stdio_output@@V?$format_validation_base@_WV?$string_output_adapter@_W@__crt_stdio_output@@@2@@__crt_stdio_output@@CAPEA_WXZ 000000018005167c f i libucrt:output.obj
 0001:00050688       ?wide_null_string@?$output_processor@_WV?$string_output_adapter@_W@__crt_stdio_output@@V?$positional_parameter_base@_WV?$string_output_adapter@_W@__crt_stdio_output@@@2@@__crt_stdio_output@@CAPEA_WXZ 0000000180051688 f i libucrt:output.obj
 0001:00050694       ?wide_null_string@?$output_processor@_WV?$string_output_adapter@_W@__crt_stdio_output@@V?$standard_base@_WV?$string_output_adapter@_W@__crt_stdio_output@@@2@@__crt_stdio_output@@CAPEA_WXZ 0000000180051694 f i libucrt:output.obj
 0001:000506a0       ?write_character@?$output_adapter_common@DV?$stream_output_adapter@D@__crt_stdio_output@@@__crt_stdio_output@@QEBAXDQEAHAEAV__crt_cached_ptd_host@@@Z 00000001800516a0 f i libucrt:output.obj
 0001:00050700       ?write_character@?$output_adapter_common@_WV?$stream_output_adapter@_W@__crt_stdio_output@@@__crt_stdio_output@@QEBAX_WQEAHAEAV__crt_cached_ptd_host@@@Z 0000000180051700 f i libucrt:output.obj
 0001:00050764       ?write_character@?$string_output_adapter@D@__crt_stdio_output@@QEBA_NDQEAHAEAV__crt_cached_ptd_host@@@Z 0000000180051764 f i libucrt:output.obj
 0001:000507bc       ?write_character@?$string_output_adapter@_W@__crt_stdio_output@@QEBA_N_WQEAHAEAV__crt_cached_ptd_host@@@Z 00000001800517bc f i libucrt:output.obj
 0001:00050818       ?write_character_without_count_update@?$stream_output_adapter@D@__crt_stdio_output@@QEBA_NDAEAV__crt_cached_ptd_host@@@Z 0000000180051818 f i libucrt:output.obj
 0001:00050868       ?write_character_without_count_update@?$stream_output_adapter@_W@__crt_stdio_output@@QEBA_N_WAEAV__crt_cached_ptd_host@@@Z 0000000180051868 f i libucrt:output.obj
 0001:000508bc       ?write_stored_string_tchar@?$output_processor@DV?$stream_output_adapter@D@__crt_stdio_output@@V?$format_validation_base@DV?$stream_output_adapter@D@__crt_stdio_output@@@2@@__crt_stdio_output@@AEAA_ND@Z 00000001800518bc f i libucrt:output.obj
 0001:00050b24       ?write_stored_string_tchar@?$output_processor@DV?$stream_output_adapter@D@__crt_stdio_output@@V?$positional_parameter_base@DV?$stream_output_adapter@D@__crt_stdio_output@@@2@@__crt_stdio_output@@AEAA_ND@Z 0000000180051b24 f i libucrt:output.obj
 0001:00050d8c       ?write_stored_string_tchar@?$output_processor@DV?$stream_output_adapter@D@__crt_stdio_output@@V?$standard_base@DV?$stream_output_adapter@D@__crt_stdio_output@@@2@@__crt_stdio_output@@AEAA_ND@Z 0000000180051d8c f i libucrt:output.obj
 0001:00050ff4       ?write_stored_string_tchar@?$output_processor@DV?$string_output_adapter@D@__crt_stdio_output@@V?$format_validation_base@DV?$string_output_adapter@D@__crt_stdio_output@@@2@@__crt_stdio_output@@AEAA_ND@Z 0000000180051ff4 f i libucrt:output.obj
 0001:000511fc       ?write_stored_string_tchar@?$output_processor@DV?$string_output_adapter@D@__crt_stdio_output@@V?$positional_parameter_base@DV?$string_output_adapter@D@__crt_stdio_output@@@2@@__crt_stdio_output@@AEAA_ND@Z 00000001800521fc f i libucrt:output.obj
 0001:00051404       ?write_stored_string_tchar@?$output_processor@DV?$string_output_adapter@D@__crt_stdio_output@@V?$standard_base@DV?$string_output_adapter@D@__crt_stdio_output@@@2@@__crt_stdio_output@@AEAA_ND@Z 0000000180052404 f i libucrt:output.obj
 0001:0005160c       ?write_stored_string_tchar@?$output_processor@_WV?$stream_output_adapter@_W@__crt_stdio_output@@V?$format_validation_base@_WV?$stream_output_adapter@_W@__crt_stdio_output@@@2@@__crt_stdio_output@@AEAA_N_W@Z 000000018005260c f i libucrt:output.obj
 0001:0005193c       ?write_stored_string_tchar@?$output_processor@_WV?$stream_output_adapter@_W@__crt_stdio_output@@V?$positional_parameter_base@_WV?$stream_output_adapter@_W@__crt_stdio_output@@@2@@__crt_stdio_output@@AEAA_N_W@Z 000000018005293c f i libucrt:output.obj
 0001:00051c6c       ?write_stored_string_tchar@?$output_processor@_WV?$stream_output_adapter@_W@__crt_stdio_output@@V?$standard_base@_WV?$stream_output_adapter@_W@__crt_stdio_output@@@2@@__crt_stdio_output@@AEAA_N_W@Z 0000000180052c6c f i libucrt:output.obj
 0001:00051f9c       ?write_stored_string_tchar@?$output_processor@_WV?$string_output_adapter@_W@__crt_stdio_output@@V?$format_validation_base@_WV?$string_output_adapter@_W@__crt_stdio_output@@@2@@__crt_stdio_output@@AEAA_N_W@Z 0000000180052f9c f i libucrt:output.obj
 0001:0005225c       ?write_stored_string_tchar@?$output_processor@_WV?$string_output_adapter@_W@__crt_stdio_output@@V?$positional_parameter_base@_WV?$string_output_adapter@_W@__crt_stdio_output@@@2@@__crt_stdio_output@@AEAA_N_W@Z 000000018005325c f i libucrt:output.obj
 0001:0005251c       ?write_stored_string_tchar@?$output_processor@_WV?$string_output_adapter@_W@__crt_stdio_output@@V?$standard_base@_WV?$string_output_adapter@_W@__crt_stdio_output@@@2@@__crt_stdio_output@@AEAA_N_W@Z 000000018005351c f i libucrt:output.obj
 0001:000527dc       ?write_string@?$stream_output_adapter@D@__crt_stdio_output@@QEBAXQEBDHQEAHAEAV__crt_cached_ptd_host@@@Z 00000001800537dc f i libucrt:output.obj
 0001:0005280c       ?write_string@?$stream_output_adapter@_W@__crt_stdio_output@@QEBAXQEB_WHQEAHAEAV__crt_cached_ptd_host@@@Z 000000018005380c f i libucrt:output.obj
 0001:0005283c       ?write_string@?$string_output_adapter@D@__crt_stdio_output@@QEBAXQEBDHQEAHAEAV__crt_cached_ptd_host@@@Z 000000018005383c f i libucrt:output.obj
 0001:00052908       ?write_string@?$string_output_adapter@_W@__crt_stdio_output@@QEBAXQEB_WHQEAHAEAV__crt_cached_ptd_host@@@Z 0000000180053908 f i libucrt:output.obj
 0001:000529d8       ?write_string_impl@?$output_adapter_common@DV?$stream_output_adapter@D@__crt_stdio_output@@@__crt_stdio_output@@IEBAXQEBDHQEAHAEAV__crt_cached_ptd_host@@@Z 00000001800539d8 f i libucrt:output.obj
 0001:00052adc       ?write_string_impl@?$output_adapter_common@_WV?$stream_output_adapter@_W@__crt_stdio_output@@@__crt_stdio_output@@IEBAXQEB_WHQEAHAEAV__crt_cached_ptd_host@@@Z 0000000180053adc f i libucrt:output.obj
 0001:00052bf8       __acrt_disable_global_locale_sync 0000000180053bf8 f i libucrt:output.obj
 0001:00052c00       __acrt_enable_global_locale_sync 0000000180053c00 f i libucrt:output.obj
 0001:00052c0c       __acrt_isleadbyte_l_noupdate 0000000180053c0c f i libucrt:output.obj
 0001:00052c38       __acrt_locale_changed      0000000180053c38 f i libucrt:output.obj
 0001:00052c48       __acrt_locale_get_ctype_array_value 0000000180053c48 f i libucrt:output.obj
 0001:00052c68       __ascii_iswalpha           0000000180053c68 f i libucrt:output.obj
 0001:00052c88       __ascii_toupper            0000000180053c88 f i libucrt:output.obj
 0001:00052c9c       __ascii_towupper           0000000180053c9c f i libucrt:output.obj
 0001:00052cac       __stdio_common_vfprintf    0000000180053cac f   libucrt:output.obj
 0001:00052e1c       __stdio_common_vfprintf_p  0000000180053e1c f   libucrt:output.obj
 0001:00052f8c       __stdio_common_vfprintf_s  0000000180053f8c f   libucrt:output.obj
 0001:000530fc       __stdio_common_vfwprintf   00000001800540fc f   libucrt:output.obj
 0001:0005326c       __stdio_common_vfwprintf_p 000000018005426c f   libucrt:output.obj
 0001:000533dc       __stdio_common_vfwprintf_s 00000001800543dc f   libucrt:output.obj
 0001:0005354c       __stdio_common_vsnprintf_s 000000018005454c f   libucrt:output.obj
 0001:00053780       __stdio_common_vsnwprintf_s 0000000180054780 f   libucrt:output.obj
 0001:000539b4       __stdio_common_vsprintf    00000001800549b4 f   libucrt:output.obj
 0001:00053c9c       __stdio_common_vsprintf_p  0000000180054c9c f   libucrt:output.obj
 0001:00053d80       __stdio_common_vsprintf_s  0000000180054d80 f   libucrt:output.obj
 0001:00053ed8       __stdio_common_vswprintf   0000000180054ed8 f   libucrt:output.obj
 0001:000541c8       __stdio_common_vswprintf_p 00000001800551c8 f   libucrt:output.obj
 0001:000542ac       __stdio_common_vswprintf_s 00000001800552ac f   libucrt:output.obj
 0001:00054404       _ctype_fast_check_internal 0000000180055404 f i libucrt:output.obj
 0001:0005441c       _isdigit_fast_internal     000000018005541c f i libucrt:output.obj
 0001:00054438       _tolower_fast_internal     0000000180055438 f i libucrt:output.obj
 0001:00054450       ??$is_overflow_condition@_K@__crt_strtox@@YA_NI_K@Z 0000000180055450 f i libucrt:atox.obj
 0001:00054494       ??$make_c_string_character_source@D$$T@__crt_strtox@@YA?AV?$c_string_character_source@D@0@QEBD$$T@Z 0000000180055494 f i libucrt:atox.obj
 0001:000544ac       ??$make_c_string_character_source@_W$$T@__crt_strtox@@YA?AV?$c_string_character_source@_W@0@QEB_W$$T@Z 00000001800554ac f i libucrt:atox.obj
 0001:000544c4       ??$parse_integer@KV?$c_string_character_source@D@__crt_strtox@@$00@__crt_strtox@@YAKAEAV__crt_cached_ptd_host@@V?$c_string_character_source@D@0@H_N@Z 00000001800554c4 f i libucrt:atox.obj
 0001:00054854       ??$parse_integer@KV?$c_string_character_source@_W@__crt_strtox@@$00@__crt_strtox@@YAKAEAV__crt_cached_ptd_host@@V?$c_string_character_source@_W@0@H_N@Z 0000000180055854 f i libucrt:atox.obj
 0001:000551d4       ??$parse_integer@_KV?$c_string_character_source@D@__crt_strtox@@$00@__crt_strtox@@YA_KAEAV__crt_cached_ptd_host@@V?$c_string_character_source@D@0@H_N@Z 00000001800561d4 f i libucrt:atox.obj
 0001:00055568       ??$parse_integer@_KV?$c_string_character_source@_W@__crt_strtox@@$00@__crt_strtox@@YA_KAEAV__crt_cached_ptd_host@@V?$c_string_character_source@_W@0@H_N@Z 0000000180056568 f i libucrt:atox.obj
 0001:00055ecc       ??$parse_integer_from_string@JD$$T@__crt_strtox@@YAJQEBD$$THQEAU__crt_locale_pointers@@@Z 0000000180056ecc f i libucrt:atox.obj
 0001:00055fb8       ??$parse_integer_from_string@J_W$$T@__crt_strtox@@YAJQEB_W$$THQEAU__crt_locale_pointers@@@Z 0000000180056fb8 f i libucrt:atox.obj
 0001:000560a4       ??$parse_integer_from_string@_JD$$T@__crt_strtox@@YA_JQEBD$$THQEAU__crt_locale_pointers@@@Z 00000001800570a4 f i libucrt:atox.obj
 0001:00056194       ??$parse_integer_from_string@_J_W$$T@__crt_strtox@@YA_JQEB_W$$THQEAU__crt_locale_pointers@@@Z 0000000180057194 f i libucrt:atox.obj
 0001:00056284       ?is_space@__crt_strtox@@YA_NDQEAU__crt_locale_pointers@@@Z 0000000180057284 f i libucrt:atox.obj
 0001:000562ac       ?is_space@__crt_strtox@@YA_N_WPEAU__crt_locale_pointers@@@Z 00000001800572ac f i libucrt:atox.obj
 0001:000562cc       ?maximum_signed_value@__crt_strtox@@YA_J_K@Z 00000001800572cc f i libucrt:atox.obj
 0001:000562dc       ?minimum_signed_value@__crt_strtox@@YA_J_K@Z 00000001800572dc f i libucrt:atox.obj
 0001:000562ec       __acrt_get_locale_data_prefix 00000001800572ec f i libucrt:atox.obj
 0001:000562f0       _atoi64                    00000001800572f0 f   libucrt:atox.obj
 0001:000563d0       _atoi64_l                  00000001800573d0 f   libucrt:atox.obj
 0001:000564bc       _atoi_l                    00000001800574bc f   libucrt:atox.obj
 0001:000565a4       _atol_l                    00000001800575a4 f   libucrt:atox.obj
 0001:0005668c       _atoll_l                   000000018005768c f   libucrt:atox.obj
 0001:00056778       _chvalidchk_l              0000000180057778 f i libucrt:atox.obj
 0001:000567f4       _ischartype_l              00000001800577f4 f i libucrt:atox.obj
 0001:00056888       _wtoi                      0000000180057888 f   libucrt:atox.obj
 0001:00056964       _wtoi64                    0000000180057964 f   libucrt:atox.obj
 0001:00056a44       _wtoi64_l                  0000000180057a44 f   libucrt:atox.obj
 0001:00056b30       _wtoi_l                    0000000180057b30 f   libucrt:atox.obj
 0001:00056c18       _wtol                      0000000180057c18 f   libucrt:atox.obj
 0001:00056cf4       _wtol_l                    0000000180057cf4 f   libucrt:atox.obj
 0001:00056ddc       _wtoll                     0000000180057ddc f   libucrt:atox.obj
 0001:00056ebc       _wtoll_l                   0000000180057ebc f   libucrt:atox.obj
 0001:00056fa8       atoi                       0000000180057fa8 f   libucrt:atox.obj
 0001:00057084       atol                       0000000180058084 f   libucrt:atox.obj
 0001:00057160       atoll                      0000000180058160 f   libucrt:atox.obj
 0001:00057240       calloc                     0000000180058240 f   libucrt:calloc.obj
 0001:00057250       wcsncmp                    0000000180058250 f   libucrt:wcsncmp.obj
 0001:00057470       _handle_error              0000000180058470 f   libucrt:libm_error.obj
 0001:000575f0       _handle_errorf             00000001800585f0 f   libucrt:libm_error.obj
 0001:00057780       _handle_nan                0000000180058780 f   libucrt:libm_error.obj
 0001:000577a0       _handle_nanf               00000001800587a0 f   libucrt:libm_error.obj
 0001:000577b0       round_sse41                00000001800587b0 f   libucrt:floorceil_sse41.obj
 0001:000577e0       roundf_sse41               00000001800587e0 f   libucrt:floorceil_sse41.obj
 0001:00057810       floor_sse41                0000000180058810 f   libucrt:floorceil_sse41.obj
 0001:00057820       floorf_sse41               0000000180058820 f   libucrt:floorceil_sse41.obj
 0001:00057830       ceil_sse41                 0000000180058830 f   libucrt:floorceil_sse41.obj
 0001:00057840       ceilf_sse41                0000000180058840 f   libucrt:floorceil_sse41.obj
 0001:00057850       trunc_sse41                0000000180058850 f   libucrt:floorceil_sse41.obj
 0001:00057860       truncl_sse41               0000000180058860 f   libucrt:floorceil_sse41.obj
 0001:00057870       truncf_sse41               0000000180058870 f   libucrt:floorceil_sse41.obj
 0001:00057880       nearbyint_sse41            0000000180058880 f   libucrt:floorceil_sse41.obj
 0001:00057890       nearbyintl_sse41           0000000180058890 f   libucrt:floorceil_sse41.obj
 0001:000578a0       nearbyintf_sse41           00000001800588a0 f   libucrt:floorceil_sse41.obj
 0001:000578b0       rint_sse41                 00000001800588b0 f   libucrt:floorceil_sse41.obj
 0001:000578c0       rintl_sse41                00000001800588c0 f   libucrt:floorceil_sse41.obj
 0001:000578d0       rintf_sse41                00000001800588d0 f   libucrt:floorceil_sse41.obj
 0001:00057e10       pow_fma                    0000000180058e10 f   libucrt:pow.obj
 0001:00059200       __math_check_oflow         000000018005a200 f   libucrt:math_err.obj
 0001:00059250       __math_check_uflow         000000018005a250 f   libucrt:math_err.obj
 0001:00059290       __math_divzero             000000018005a290 f   libucrt:math_err.obj
 0001:00059300       __math_invalid             000000018005a300 f   libucrt:math_err.obj
 0001:00059350       __math_oflow               000000018005a350 f   libucrt:math_err.obj
 0001:000593b0       __math_uflow               000000018005a3b0 f   libucrt:math_err.obj
 0001:00059460       __acrt_initialize_fma3     000000018005a460 f   libucrt:fma3_available.obj
 0001:00059540       _get_FMA3_enable           000000018005a540 f   libucrt:fma3_available.obj
 0001:00059550       _set_FMA3_enable           000000018005a550 f   libucrt:fma3_available.obj
 0001:00059590       ??$?RU__acrt_ptd@@@__crt_internal_free_policy@@QEBAXQEBU__acrt_ptd@@@Z 000000018005a590 f i libucrt:per_thread_data.obj
 0001:000597c8       ??$internal_get_ptd_head@P6APEAXK@Z@@YAPEAU__acrt_ptd@@P6APEAXK@Z@Z 000000018005a7c8 f i libucrt:per_thread_data.obj
 0001:0005981c       ??$try_get_ptd_head@P6APEAXK@Z@@YAPEAU__acrt_ptd@@P6APEAXK@Z@Z 000000018005a81c f i libucrt:per_thread_data.obj
 0001:000598d8       ??0?$__crt_unique_heap_ptr@U__acrt_ptd@@U__crt_internal_free_policy@@@@QEAA@QEAU__acrt_ptd@@@Z 000000018005a8d8 f i libucrt:per_thread_data.obj
 0001:000598e0       ??1?$__crt_unique_heap_ptr@U__acrt_ptd@@U__crt_internal_free_policy@@@@QEAA@XZ 000000018005a8e0 f i libucrt:per_thread_data.obj
 0001:00059904       ??B?$__crt_unique_heap_ptr@U__acrt_ptd@@U__crt_internal_free_policy@@@@QEBA_NXZ 000000018005a904 f i libucrt:per_thread_data.obj
 0001:00059bd4       ?dangerous_get_state_array@?$dual_state_global@PEAU__crt_locale_data@@@__crt_state_management@@QEAAPEAPEAU__crt_locale_data@@XZ 000000018005abd4 f i libucrt:per_thread_data.obj
 0001:00059e68       ?detach@?$__crt_unique_heap_ptr@U__acrt_ptd@@U__crt_internal_free_policy@@@@QEAAPEAU__acrt_ptd@@XZ 000000018005ae68 f i libucrt:per_thread_data.obj
 0001:00059e74       ?get@?$__crt_unique_heap_ptr@U__acrt_ptd@@U__crt_internal_free_policy@@@@QEBAPEAU__acrt_ptd@@XZ 000000018005ae74 f i libucrt:per_thread_data.obj
 0001:00059e78       ?get_current_state_index2@__crt_state_management@@YA_KXZ 000000018005ae78 f i libucrt:per_thread_data.obj
 0001:00059e7c       ?internal_get_ptd_head_slow@@YAPEAU__acrt_ptd@@XZ 000000018005ae7c f   libucrt:per_thread_data.obj
 0001:0005a090       ?is_valid@?$__crt_unique_heap_ptr@U__acrt_ptd@@U__crt_internal_free_policy@@@@QEBA_NXZ 000000018005b090 f i libucrt:per_thread_data.obj
 0001:0005a09c       ?release@?$__crt_unique_heap_ptr@U__acrt_ptd@@U__crt_internal_free_policy@@@@QEAAXXZ 000000018005b09c f i libucrt:per_thread_data.obj
 0001:0005a140       ?value@?$dual_state_global@PEAU__crt_locale_data@@@__crt_state_management@@QEAAAEAPEAU__crt_locale_data@@XZ 000000018005b140 f i libucrt:per_thread_data.obj
 0001:0005a144       __acrt_freeptd             000000018005b144 f   libucrt:per_thread_data.obj
 0001:0005a1a8       __acrt_getptd              000000018005b1a8 f   libucrt:per_thread_data.obj
 0001:0005a1c8       __acrt_getptd_head         000000018005b1c8 f   libucrt:per_thread_data.obj
 0001:0005a21c       __acrt_getptd_noexit       000000018005b21c f   libucrt:per_thread_data.obj
 0001:0005a2d0       __acrt_getptd_noexit_explicit 000000018005b2d0 f   libucrt:per_thread_data.obj
 0001:0005a344       __acrt_initialize_ptd      000000018005b344 f   libucrt:per_thread_data.obj
 0001:0005a39c       __acrt_uninitialize_ptd    000000018005b39c f   libucrt:per_thread_data.obj
 0001:0005a3c8       __threadhandle             000000018005b3c8 f   libucrt:per_thread_data.obj
 0001:0005a3d0       __threadid                 000000018005b3d0 f   libucrt:per_thread_data.obj
 0001:0005a3d8       __acrt_initialize_locks    000000018005b3d8 f   libucrt:locks.obj
 0001:0005a434       __acrt_lock                000000018005b434 f   libucrt:locks.obj
 0001:0005a454       __acrt_uninitialize_locks  000000018005b454 f   libucrt:locks.obj
 0001:0005a498       __acrt_unlock              000000018005b498 f   libucrt:locks.obj
 0001:0005a4b8       _lock_locales              000000018005b4b8 f   libucrt:locks.obj
 0001:0005a4dc       _unlock_locales            000000018005b4dc f   libucrt:locks.obj
 0001:0005a4f0       __acrt_app_verifier_enabled 000000018005b4f0 f   libucrt:peb_access.obj
 0001:0005a510       __acrt_is_secure_process   000000018005b510 f   libucrt:peb_access.obj
 0001:0005a718       __acrt_get_begin_thread_init_policy 000000018005b718 f   libucrt:win_policies.obj
 0001:0005a768       __acrt_get_developer_information_policy 000000018005b768 f   libucrt:win_policies.obj
 0001:0005a7bc       __acrt_get_process_end_policy 000000018005b7bc f   libucrt:win_policies.obj
 0001:0005a7f8       __acrt_get_windowing_model_policy 000000018005b7f8 f   libucrt:win_policies.obj
 0001:0005a878       ??$__crt_fast_decode_pointer@P6AXPEB_W00I_K@Z@@YAP6AXPEB_W00I_K@ZQ6AX000I1@Z@Z 000000018005b878 f i libucrt:invalid_parameter.obj
 0001:0005a894       ??$__crt_fast_encode_pointer@P6AXPEB_W00I_K@Z@@YAP6AXPEB_W00I_K@ZQ6AX000I1@Z@Z 000000018005b894 f i libucrt:invalid_parameter.obj
 0001:0005a8bc       ??$initialize_from_array@$$BY00Q6AXPEB_W00I_K@Z@?$dual_state_global@P6AXPEB_W00I_K@Z@__crt_state_management@@QEAAXAEAY00Q6AXPEB_W00I_K@Z@Z 000000018005b8bc f i libucrt:invalid_parameter.obj
 0001:0005a964       ?check_synchronize_global_state_index@__crt_cached_ptd_host@@AEAA_KXZ 000000018005b964 f i libucrt:invalid_parameter.obj
 0001:0005a9a8       ?dangerous_get_state_array@?$dual_state_global@P6AXPEB_W00I_K@Z@__crt_state_management@@QEAAPEAP6AXPEB_W00I_K@ZXZ 000000018005b9a8 f i libucrt:invalid_parameter.obj
 0001:0005a9ac       ?get_current_global_state_index@__crt_cached_ptd_host@@QEAA_KXZ 000000018005b9ac f i libucrt:invalid_parameter.obj
 0001:0005a9fc       ?get_raw_ptd_noexit@__crt_cached_ptd_host@@QEAAPEAU__acrt_ptd@@XZ 000000018005b9fc f i libucrt:invalid_parameter.obj
 0001:0005aa80       ?try_synchronize_per_thread_data@__crt_cached_ptd_host@@AEAAPEAU__acrt_ptd@@XZ 000000018005ba80 f i libucrt:invalid_parameter.obj
 0001:0005aafc       ?value@?$dual_state_global@P6AXPEB_W00I_K@Z@__crt_state_management@@QEAAAEAP6AXPEB_W00I_K@ZAEAV__crt_cached_ptd_host@@@Z 000000018005bafc f i libucrt:invalid_parameter.obj
 0001:0005ab5c       ?value@?$dual_state_global@P6AXPEB_W00I_K@Z@__crt_state_management@@QEAAAEAP6AXPEB_W00I_K@ZXZ 000000018005bb5c f i libucrt:invalid_parameter.obj
 0001:0005ab60       __acrt_call_reportfault    000000018005bb60 f   libucrt:invalid_parameter.obj
 0001:0005ad28       __acrt_initialize_invalid_parameter_handler 000000018005bd28 f   libucrt:invalid_parameter.obj
 0001:0005ad34       _get_invalid_parameter_handler 000000018005bd34 f   libucrt:invalid_parameter.obj
 0001:0005ad54       _get_thread_local_invalid_parameter_handler 000000018005bd54 f   libucrt:invalid_parameter.obj
 0001:0005ad74       _invalid_parameter         000000018005bd74 f   libucrt:invalid_parameter.obj
 0001:0005ae38       _invalid_parameter_internal 000000018005be38 f   libucrt:invalid_parameter.obj
 0001:0005af1c       _invalid_parameter_noinfo  000000018005bf1c f   libucrt:invalid_parameter.obj
 0001:0005af44       _invalid_parameter_noinfo_noreturn 000000018005bf44 f   libucrt:invalid_parameter.obj
 0001:0005af80       _invoke_watson             000000018005bf80 f   libucrt:invalid_parameter.obj
 0001:0005afd8       _set_invalid_parameter_handler 000000018005bfd8 f   libucrt:invalid_parameter.obj
 0001:0005b01c       _set_thread_local_invalid_parameter_handler 000000018005c01c f   libucrt:invalid_parameter.obj
 0001:0005b0fc       ?get_doserrno@__crt_cached_ptd_host@@QEAA@XZ 000000018005c0fc f i libucrt:errno.obj
 0001:0005b104       ?set@?$cached@K@__crt_cached_ptd_host@@QEAAKK@Z 000000018005c104 f i libucrt:errno.obj
 0001:0005b110       __acrt_errno_from_os_error 000000018005c110 f   libucrt:errno.obj
 0001:0005b214       __acrt_errno_map_os_error  000000018005c214 f   libucrt:errno.obj
 0001:0005b244       __acrt_errno_map_os_error_ptd 000000018005c244 f   libucrt:errno.obj
 0001:0005b270       __doserrno                 000000018005c270 f   libucrt:errno.obj
 0001:0005b29c       _errno                     000000018005c29c f   libucrt:errno.obj
 0001:0005b2c8       _get_doserrno              000000018005c2c8 f   libucrt:errno.obj
 0001:0005b2fc       _get_errno                 000000018005c2fc f   libucrt:errno.obj
 0001:0005b330       _set_doserrno              000000018005c330 f   libucrt:errno.obj
 0001:0005b364       _set_errno                 000000018005c364 f   libucrt:errno.obj
 0001:0005b3a0       _calloc_base               000000018005c3a0 f   libucrt:calloc_base.obj
 0001:0005b440       _free_base                 000000018005c440 f   libucrt:free_base.obj
 0001:0005b4e0       ??$__acrt_convert_wcs_mbs_cp@D_WV<lambda_7c9dea7b4ca7285d2cdb541a38da6275>@@U__crt_win32_buffer_internal_dynamic_resizing@@@@YAHQEBDAEAV?$__crt_win32_buffer@_WU__crt_win32_buffer_internal_dynamic_resizing@@@@AEBV<lambda_7c9dea7b4ca7285d2cdb541a38da6275>@@I@Z 000000018005c4e0 f i libucrt:argv_wildcards.obj
 0001:0005b6e4       ??$__acrt_convert_wcs_mbs_cp@_WDV<lambda_d8593a27d1aa8c02be35c86a17d324c4>@@U__crt_win32_buffer_internal_dynamic_resizing@@@@YAHQEB_WAEAV?$__crt_win32_buffer@DU__crt_win32_buffer_internal_dynamic_resizing@@@@AEBV<lambda_d8593a27d1aa8c02be35c86a17d324c4>@@I@Z 000000018005c6e4 f i libucrt:argv_wildcards.obj
 0001:0005b8fc       ??$__acrt_mbs_to_wcs_cp@U__crt_win32_buffer_internal_dynamic_resizing@@@@YAHQEBDAEAV?$__crt_win32_buffer@_WU__crt_win32_buffer_internal_dynamic_resizing@@@@I@Z 000000018005c8fc f i libucrt:argv_wildcards.obj
 0001:0005b90c       ??$__acrt_wcs_to_mbs_cp@U__crt_win32_buffer_internal_dynamic_resizing@@@@YAHQEB_WAEAV?$__crt_win32_buffer@DU__crt_win32_buffer_internal_dynamic_resizing@@@@I@Z 000000018005c90c f i libucrt:argv_wildcards.obj
 0001:0005caf4       ??$tcslen@AEBQEBD@?$__crt_char_traits@D@@SA_KAEBQEBD@Z 000000018005daf4 f i libucrt:argv_wildcards.obj
 0001:0005cb0c       ??$tcslen@AEBQEB_W@?$__crt_char_traits@_W@@SA_KAEBQEB_W@Z 000000018005db0c f i libucrt:argv_wildcards.obj
 0001:0005cb24       ??$tcsncpy_s@AEAPEAD_KAEAPEADAEB_K@?$__crt_char_traits@D@@SAHAEAPEAD$$QEA_K0AEB_K@Z 000000018005db24 f i libucrt:argv_wildcards.obj
 0001:0005cb3c       ??$tcsncpy_s@AEAPEA_W_KAEAPEA_WAEB_K@?$__crt_char_traits@_W@@SAHAEAPEA_W$$QEA_K0AEB_K@Z 000000018005db3c f i libucrt:argv_wildcards.obj
 0001:0005cb54       ??$tcsncpy_s@PEADAEB_KAEBQEBDAEB_K@?$__crt_char_traits@D@@SAH$$QEAPEADAEB_KAEBQEBD1@Z 000000018005db54 f i libucrt:argv_wildcards.obj
 0001:0005cb6c       ??$tcsncpy_s@PEAD_KAEBQEBDAEB_K@?$__crt_char_traits@D@@SAH$$QEAPEAD$$QEA_KAEBQEBDAEB_K@Z 000000018005db6c f i libucrt:argv_wildcards.obj
 0001:0005cb84       ??$tcsncpy_s@PEA_WAEB_KAEBQEB_WAEB_K@?$__crt_char_traits@_W@@SAH$$QEAPEA_WAEB_KAEBQEB_W1@Z 000000018005db84 f i libucrt:argv_wildcards.obj
 0001:0005cb9c       ??$tcsncpy_s@PEA_W_KAEBQEB_WAEB_K@?$__crt_char_traits@_W@@SAH$$QEAPEA_W$$QEA_KAEBQEB_WAEB_K@Z 000000018005db9c f i libucrt:argv_wildcards.obj
 0001:0005cbb4       ??$tcspbrk@AEAPEADAEAY02$$CBD@?$__crt_char_traits@D@@SAPEADAEAPEADAEAY02$$CBD@Z 000000018005dbb4 f i libucrt:argv_wildcards.obj
 0001:0005cbc0       ??$tcspbrk@AEAPEA_WAEAY02$$CB_W@?$__crt_char_traits@_W@@SAPEA_WAEAPEA_WAEAY02$$CB_W@Z 000000018005dbc0 f i libucrt:argv_wildcards.obj
 0001:0005cbcc       ??0?$__crt_unique_handle_t@U__crt_findfile_traits@@@@QEAA@QEAX@Z 000000018005dbcc f i libucrt:argv_wildcards.obj
 0001:0005cbd4       ??0?$__crt_win32_buffer@DU__crt_win32_buffer_internal_dynamic_resizing@@@@QEAA@XZ 000000018005dbd4 f i libucrt:argv_wildcards.obj
 0001:0005cbf8       ??0?$__crt_win32_buffer@_WU__crt_win32_buffer_internal_dynamic_resizing@@@@QEAA@XZ 000000018005dbf8 f i libucrt:argv_wildcards.obj
 0001:0005cc4c       ??0_LocaleUpdate@@QEAA@QEAU__crt_locale_pointers@@@Z 000000018005dc4c f i libucrt:argv_wildcards.obj
 0001:0005cd10       ??1?$__crt_unique_handle_t@U__crt_findfile_traits@@@@QEAA@XZ 000000018005dd10 f i libucrt:argv_wildcards.obj
 0001:0005cd3c       ??1?$__crt_win32_buffer@DU__crt_win32_buffer_internal_dynamic_resizing@@@@QEAA@XZ 000000018005dd3c f i libucrt:argv_wildcards.obj
 0001:0005cd68       ??1?$__crt_win32_buffer@_WU__crt_win32_buffer_internal_dynamic_resizing@@@@QEAA@XZ 000000018005dd68 f i libucrt:argv_wildcards.obj
 0001:0005ce24       ??1_LocaleUpdate@@QEAA@XZ  000000018005de24 f i libucrt:argv_wildcards.obj
 0001:0005ce54       ??R<lambda_7c9dea7b4ca7285d2cdb541a38da6275>@@QEBA@IQEBDQEA_W_K@Z 000000018005de54 f i libucrt:argv_wildcards.obj
 0001:0005cf04       ??R<lambda_d8593a27d1aa8c02be35c86a17d324c4>@@QEBA@IQEB_WQEAD_K@Z 000000018005df04 f i libucrt:argv_wildcards.obj
 0001:0005cf40       ?GetLocaleT@_LocaleUpdate@@QEAAPEAU__crt_locale_pointers@@XZ 000000018005df40 f i libucrt:argv_wildcards.obj
 0001:0005cf48       ?__acrt_get_utf8_acp_compatibility_codepage@@YAIXZ 000000018005df48 f i libucrt:argv_wildcards.obj
 0001:0005cfa4       ?_deallocate@?$__crt_win32_buffer@DU__crt_win32_buffer_internal_dynamic_resizing@@@@AEAAXXZ 000000018005dfa4 f i libucrt:argv_wildcards.obj
 0001:0005cfd0       ?_deallocate@?$__crt_win32_buffer@_WU__crt_win32_buffer_internal_dynamic_resizing@@@@AEAAXXZ 000000018005dfd0 f i libucrt:argv_wildcards.obj
 0001:0005cffc       ?allocate@?$__crt_win32_buffer@DU__crt_win32_buffer_internal_dynamic_resizing@@@@QEAAH_K@Z 000000018005dffc f i libucrt:argv_wildcards.obj
 0001:0005d078       ?allocate@?$__crt_win32_buffer@_WU__crt_win32_buffer_internal_dynamic_resizing@@@@QEAAH_K@Z 000000018005e078 f i libucrt:argv_wildcards.obj
 0001:0005d0f4       ?allocate@__crt_win32_buffer_internal_dynamic_resizing@@SAHQEAPEAX_KAEBV__crt_win32_buffer_empty_debug_info@@@Z 000000018005e0f4 f i libucrt:argv_wildcards.obj
 0001:0005d354       ?capacity@?$__crt_win32_buffer@DU__crt_win32_buffer_internal_dynamic_resizing@@@@QEBA_KXZ 000000018005e354 f i libucrt:argv_wildcards.obj
 0001:0005d35c       ?capacity@?$__crt_win32_buffer@_WU__crt_win32_buffer_internal_dynamic_resizing@@@@QEBA_KXZ 000000018005e35c f i libucrt:argv_wildcards.obj
 0001:0005d364       ?close@?$__crt_unique_handle_t@U__crt_findfile_traits@@@@QEAAXXZ 000000018005e364 f i libucrt:argv_wildcards.obj
 0001:0005d390       ?close@__crt_findfile_traits@@SA_NPEAX@Z 000000018005e390 f i libucrt:argv_wildcards.obj
 0001:0005d3ac       ?data@?$__crt_win32_buffer@DU__crt_win32_buffer_internal_dynamic_resizing@@@@QEAAPEADXZ 000000018005e3ac f i libucrt:argv_wildcards.obj
 0001:0005d3b4       ?data@?$__crt_win32_buffer@_WU__crt_win32_buffer_internal_dynamic_resizing@@@@QEAAPEA_WXZ 000000018005e3b4 f i libucrt:argv_wildcards.obj
 0001:0005d3bc       ?deallocate@__crt_win32_buffer_internal_dynamic_resizing@@SAXQEAXAEBV__crt_win32_buffer_empty_debug_info@@@Z 000000018005e3bc f i libucrt:argv_wildcards.obj
 0001:0005d3c4       ?debug_info@?$__crt_win32_buffer@DU__crt_win32_buffer_internal_dynamic_resizing@@@@QEBAAEBV__crt_win32_buffer_empty_debug_info@@XZ 000000018005e3c4 f i libucrt:argv_wildcards.obj
 0001:0005d3c8       ?debug_info@?$__crt_win32_buffer@_WU__crt_win32_buffer_internal_dynamic_resizing@@@@QEBAAEBV__crt_win32_buffer_empty_debug_info@@XZ 000000018005e3c8 f i libucrt:argv_wildcards.obj
 0001:0005d5cc       ?get@?$__crt_unique_handle_t@U__crt_findfile_traits@@@@QEBAPEAXXZ 000000018005e5cc f i libucrt:argv_wildcards.obj
 0001:0005d6a0       ?get_invalid_value@__crt_findfile_traits@@SAPEAXXZ 000000018005e6a0 f i libucrt:argv_wildcards.obj
 0001:0005d788       ?set_to_nullptr@?$__crt_win32_buffer@DU__crt_win32_buffer_internal_dynamic_resizing@@@@QEAAXXZ 000000018005e788 f i libucrt:argv_wildcards.obj
 0001:0005d7d0       ?set_to_nullptr@?$__crt_win32_buffer@_WU__crt_win32_buffer_internal_dynamic_resizing@@@@QEAAXXZ 000000018005e7d0 f i libucrt:argv_wildcards.obj
 0001:0005d818       ?size@?$__crt_win32_buffer@DU__crt_win32_buffer_internal_dynamic_resizing@@@@QEAAX_K@Z 000000018005e818 f i libucrt:argv_wildcards.obj
 0001:0005d820       ?size@?$__crt_win32_buffer@_WU__crt_win32_buffer_internal_dynamic_resizing@@@@QEAAX_K@Z 000000018005e820 f i libucrt:argv_wildcards.obj
 0001:0005d848       ?strpbrk@@YAPEADQEADQEBD@Z 000000018005e848 f i libucrt:argv_wildcards.obj
 0001:0005d850       ?wcspbrk@@YAPEA_WPEA_WPEB_W@Z 000000018005e850 f i libucrt:argv_wildcards.obj
 0001:0005d858       __acrt_expand_narrow_argv_wildcards 000000018005e858 f   libucrt:argv_wildcards.obj
 0001:0005d860       __acrt_expand_wide_argv_wildcards 000000018005e860 f   libucrt:argv_wildcards.obj
 0001:0005d868       ??$__acrt_convert_wcs_mbs_cp@_WDV<lambda_f788ae46380686e8b737efdd8c720d07>@@U__crt_win32_buffer_no_resizing@@@@YAHQEB_WAEAV?$__crt_win32_buffer@DU__crt_win32_buffer_no_resizing@@@@AEBV<lambda_f788ae46380686e8b737efdd8c720d07>@@I@Z 000000018005e868 f i libucrt:getmodulefilenamea.obj
 0001:0005d9c8       ??$__acrt_wcs_to_mbs_cp@U__crt_win32_buffer_no_resizing@@@@YAHQEB_WAEAV?$__crt_win32_buffer@DU__crt_win32_buffer_no_resizing@@@@I@Z 000000018005e9c8 f i libucrt:getmodulefilenamea.obj
 0001:0005d9d8       ??0?$__crt_win32_buffer@DU__crt_win32_buffer_no_resizing@@@@QEAA@QEAD_K@Z 000000018005e9d8 f i libucrt:getmodulefilenamea.obj
 0001:0005d9fc       ??1?$__crt_win32_buffer@DU__crt_win32_buffer_no_resizing@@@@QEAA@XZ 000000018005e9fc f i libucrt:getmodulefilenamea.obj
 0001:0005da0c       ??R<lambda_f788ae46380686e8b737efdd8c720d07>@@QEBA@IQEB_WQEAD_K@Z 000000018005ea0c f i libucrt:getmodulefilenamea.obj
 0001:0005da48       ?_deallocate@?$__crt_win32_buffer@DU__crt_win32_buffer_no_resizing@@@@AEAAXXZ 000000018005ea48 f i libucrt:getmodulefilenamea.obj
 0001:0005da58       ?allocate@?$__crt_win32_buffer@DU__crt_win32_buffer_no_resizing@@@@QEAAH_K@Z 000000018005ea58 f i libucrt:getmodulefilenamea.obj
 0001:0005da94       ?allocate@__crt_win32_buffer_no_resizing@@SAHQEAPEAX_KAEBV__crt_win32_buffer_empty_debug_info@@@Z 000000018005ea94 f i libucrt:getmodulefilenamea.obj
 0001:0005dab0       ?capacity@?$__crt_win32_buffer@DU__crt_win32_buffer_no_resizing@@@@QEBA_KXZ 000000018005eab0 f i libucrt:getmodulefilenamea.obj
 0001:0005dab8       ?data@?$__crt_win32_buffer@DU__crt_win32_buffer_no_resizing@@@@QEAAPEADXZ 000000018005eab8 f i libucrt:getmodulefilenamea.obj
 0001:0005dac0       ?deallocate@__crt_win32_buffer_no_resizing@@SAXQEAXAEBV__crt_win32_buffer_empty_debug_info@@@Z 000000018005eac0 f i libucrt:getmodulefilenamea.obj
 0001:0005dac4       ?debug_info@?$__crt_win32_buffer@DU__crt_win32_buffer_no_resizing@@@@QEBAAEBV__crt_win32_buffer_empty_debug_info@@XZ 000000018005eac4 f i libucrt:getmodulefilenamea.obj
 0001:0005dac8       ?set_to_nullptr@?$__crt_win32_buffer@DU__crt_win32_buffer_no_resizing@@@@QEAAXXZ 000000018005eac8 f i libucrt:getmodulefilenamea.obj
 0001:0005dae4       ?size@?$__crt_win32_buffer@DU__crt_win32_buffer_no_resizing@@@@QEAAX_K@Z 000000018005eae4 f i libucrt:getmodulefilenamea.obj
 0001:0005daec       ?size@?$__crt_win32_buffer@DU__crt_win32_buffer_no_resizing@@@@QEBA_KXZ 000000018005eaec f i libucrt:getmodulefilenamea.obj
 0001:0005daf4       __acrt_GetModuleFileNameA  000000018005eaf4 f   libucrt:getmodulefilenamea.obj
 0001:0005dc60       ??$?RU__crt_multibyte_data@@@__crt_internal_free_policy@@QEBAXQEBU__crt_multibyte_data@@@Z 000000018005ec60 f i libucrt:mbctype.obj
 0001:0005dee0       ??$initialize_from_array@$$BY10BAA@E@?$dual_state_global@PEAE@__crt_state_management@@QEAAXAEAY10BAA@E@Z 000000018005eee0 f i libucrt:mbctype.obj
 0001:0005dee4       ??$initialize_from_array@$$BY10BAB@E@?$dual_state_global@PEAE@__crt_state_management@@QEAAXAEAY10BAB@E@Z 000000018005eee4 f i libucrt:mbctype.obj
 0001:0005df10       ??0?$__crt_unique_heap_ptr@U__crt_multibyte_data@@U__crt_internal_free_policy@@@@QEAA@QEAU__crt_multibyte_data@@@Z 000000018005ef10 f i libucrt:mbctype.obj
 0001:0005df18       ??1?$__crt_unique_heap_ptr@U__crt_multibyte_data@@U__crt_internal_free_policy@@@@QEAA@XZ 000000018005ef18 f i libucrt:mbctype.obj
 0001:0005df3c       ??B?$__crt_unique_heap_ptr@U__crt_multibyte_data@@U__crt_internal_free_policy@@@@QEBA_NXZ 000000018005ef3c f i libucrt:mbctype.obj
 0001:0005e1a8       ?dangerous_get_state_array@?$dual_state_global@PEAE@__crt_state_management@@QEAAPEAPEAEXZ 000000018005f1a8 f i libucrt:mbctype.obj
 0001:0005e1ac       ?dangerous_get_state_array@?$dual_state_global@PEAU__crt_multibyte_data@@@__crt_state_management@@QEAAPEAPEAU__crt_multibyte_data@@XZ 000000018005f1ac f i libucrt:mbctype.obj
 0001:0005e1b0       ?detach@?$__crt_unique_heap_ptr@U__crt_multibyte_data@@U__crt_internal_free_policy@@@@QEAAPEAU__crt_multibyte_data@@XZ 000000018005f1b0 f i libucrt:mbctype.obj
 0001:0005e1bc       ?get@?$__crt_unique_heap_ptr@U__crt_multibyte_data@@U__crt_internal_free_policy@@@@QEBAPEAU__crt_multibyte_data@@XZ 000000018005f1bc f i libucrt:mbctype.obj
 0001:0005e25c       ?initialize@?$dual_state_global@PEAU__crt_multibyte_data@@@__crt_state_management@@QEAAXQEAU__crt_multibyte_data@@@Z 000000018005f25c f i libucrt:mbctype.obj
 0001:0005e26c       ?is_valid@?$__crt_unique_heap_ptr@U__crt_multibyte_data@@U__crt_internal_free_policy@@@@QEBA_NXZ 000000018005f26c f i libucrt:mbctype.obj
 0001:0005e278       ?release@?$__crt_unique_heap_ptr@U__crt_multibyte_data@@U__crt_internal_free_policy@@@@QEAAXXZ 000000018005f278 f i libucrt:mbctype.obj
 0001:0005e9c4       ?value@?$dual_state_global@PEAE@__crt_state_management@@QEAAAEAPEAEXZ 000000018005f9c4 f i libucrt:mbctype.obj
 0001:0005e9c8       ?value@?$dual_state_global@PEAU__crt_multibyte_data@@@__crt_state_management@@QEAAAEAPEAU__crt_multibyte_data@@XZ 000000018005f9c8 f i libucrt:mbctype.obj
 0001:0005e9cc       __acrt_initialize_multibyte 000000018005f9cc f   libucrt:mbctype.obj
 0001:0005ea44       __acrt_should_sync_with_global_locale 000000018005fa44 f i libucrt:mbctype.obj
 0001:0005ea58       __acrt_update_thread_multibyte_data 000000018005fa58 f   libucrt:mbctype.obj
 0001:0005ea7c       __p__mbcasemap             000000018005fa7c f   libucrt:mbctype.obj
 0001:0005ea88       __p__mbctype               000000018005fa88 f   libucrt:mbctype.obj
 0001:0005ea94       _getmbcp                   000000018005fa94 f   libucrt:mbctype.obj
 0001:0005eadc       _setmbcp                   000000018005fadc f   libucrt:mbctype.obj
 0001:0005eb0c       _setmbcp_nolock            000000018005fb0c f   libucrt:mbctype.obj
 0001:0005efc0       _ismbbalnum                000000018005ffc0 f   libucrt:ismbbyte.obj
 0001:0005efdc       _ismbbalnum_l              000000018005ffdc f   libucrt:ismbbyte.obj
 0001:0005effc       _ismbbalpha                000000018005fffc f   libucrt:ismbbyte.obj
 0001:0005f018       _ismbbalpha_l              0000000180060018 f   libucrt:ismbbyte.obj
 0001:0005f038       _ismbbblank                0000000180060038 f   libucrt:ismbbyte.obj
 0001:0005f05c       _ismbbblank_l              000000018006005c f   libucrt:ismbbyte.obj
 0001:0005f084       _ismbbgraph                0000000180060084 f   libucrt:ismbbyte.obj
 0001:0005f0a0       _ismbbgraph_l              00000001800600a0 f   libucrt:ismbbyte.obj
 0001:0005f0c0       _ismbbkalnum               00000001800600c0 f   libucrt:ismbbyte.obj
 0001:0005f0d8       _ismbbkalnum_l             00000001800600d8 f   libucrt:ismbbyte.obj
 0001:0005f0f4       _ismbbkana                 00000001800600f4 f   libucrt:ismbbyte.obj
 0001:0005f0fc       _ismbbkana_l               00000001800600fc f   libucrt:ismbbyte.obj
 0001:0005f17c       _ismbbkprint               000000018006017c f   libucrt:ismbbyte.obj
 0001:0005f194       _ismbbkprint_l             0000000180060194 f   libucrt:ismbbyte.obj
 0001:0005f1b0       _ismbbkpunct               00000001800601b0 f   libucrt:ismbbyte.obj
 0001:0005f1c8       _ismbbkpunct_l             00000001800601c8 f   libucrt:ismbbyte.obj
 0001:0005f1e4       _ismbblead                 00000001800601e4 f   libucrt:ismbbyte.obj
 0001:0005f1fc       _ismbblead_l               00000001800601fc f   libucrt:ismbbyte.obj
 0001:0005f218       _ismbbprint                0000000180060218 f   libucrt:ismbbyte.obj
 0001:0005f234       _ismbbprint_l              0000000180060234 f   libucrt:ismbbyte.obj
 0001:0005f254       _ismbbpunct                0000000180060254 f   libucrt:ismbbyte.obj
 0001:0005f26c       _ismbbpunct_l              000000018006026c f   libucrt:ismbbyte.obj
 0001:0005f288       _ismbbtrail                0000000180060288 f   libucrt:ismbbyte.obj
 0001:0005f2a0       _ismbbtrail_l              00000001800602a0 f   libucrt:ismbbyte.obj
 0001:0005f2bc       __acrt_initialize_command_line 00000001800602bc f   libucrt:argv_data.obj
 0001:0005f2ec       __acrt_uninitialize_command_line 00000001800602ec f   libucrt:argv_data.obj
 0001:0005f2f0       __p___argc                 00000001800602f0 f   libucrt:argv_data.obj
 0001:0005f2fc       __p___argv                 00000001800602fc f   libucrt:argv_data.obj
 0001:0005f308       __p___wargv                0000000180060308 f   libucrt:argv_data.obj
 0001:0005f314       __p__acmdln                0000000180060314 f   libucrt:argv_data.obj
 0001:0005f320       __p__pgmptr                0000000180060320 f   libucrt:argv_data.obj
 0001:0005f32c       __p__wcmdln                000000018006032c f   libucrt:argv_data.obj
 0001:0005f338       __p__wpgmptr               0000000180060338 f   libucrt:argv_data.obj
 0001:0005f344       _get_pgmptr                0000000180060344 f   libucrt:argv_data.obj
 0001:0005f388       _get_wpgmptr               0000000180060388 f   libucrt:argv_data.obj
 0001:0005f480       wcscpy_s                   0000000180060480 f   libucrt:wcscpy_s.obj
 0001:0005f5d4       __acrt_MultiByteToWideChar 00000001800605d4 f   libucrt:multibytetowidechar.obj
 0001:0005f730       __acrt_WideCharToMultiByte 0000000180060730 f   libucrt:widechartomultibyte.obj
 0001:0005f90c       __dcrt_get_narrow_environment_from_os 000000018006090c f   libucrt:get_environment_from_os.obj
 0001:0005fa60       __dcrt_get_wide_environment_from_os 0000000180060a60 f   libucrt:get_environment_from_os.obj
 0001:0006079c       ??$get_or_create_environment_nolock@$$V@?$__crt_char_traits@D@@SAPEAPEADXZ 000000018006179c f i libucrt:setenv.obj
 0001:000607a4       ??$get_or_create_environment_nolock@$$V@?$__crt_char_traits@_W@@SAPEAPEA_WXZ 00000001800617a4 f i libucrt:setenv.obj
 0001:000607ac       ??$set_environment_variable@AEBQEADQEAD@?$__crt_char_traits@D@@SAHAEBQEAD$$QEBQEAD@Z 00000001800617ac f i libucrt:setenv.obj
 0001:000607bc       ??$set_environment_variable@AEBQEA_WQEA_W@?$__crt_char_traits@_W@@SAHAEBQEA_W$$QEBQEA_W@Z 00000001800617bc f i libucrt:setenv.obj
 0001:000607cc       ??$tcschr@AEBQEADD@?$__crt_char_traits@D@@SAPEADAEBQEAD$$QEAD@Z 00000001800617cc f i libucrt:setenv.obj
 0001:000607dc       ??$tcschr@AEBQEA_WD@?$__crt_char_traits@_W@@SAPEA_WAEBQEA_W$$QEAD@Z 00000001800617dc f i libucrt:setenv.obj
 0001:000607ec       ??$tcscpy_s@AEAPEADAEB_KAEAPEAD@?$__crt_char_traits@D@@SAHAEAPEADAEB_K0@Z 00000001800617ec f i libucrt:setenv.obj
 0001:00060800       ??$tcscpy_s@AEAPEA_WAEB_KAEAPEA_W@?$__crt_char_traits@_W@@SAHAEAPEA_WAEB_K0@Z 0000000180061800 f i libucrt:setenv.obj
 0001:00060814       ??$tcscpy_s@AEBQEADAEB_KAEBQEAD@?$__crt_char_traits@D@@SAHAEBQEADAEB_K0@Z 0000000180061814 f i libucrt:setenv.obj
 0001:00060828       ??$tcscpy_s@AEBQEA_WAEB_KAEBQEA_W@?$__crt_char_traits@_W@@SAHAEBQEA_WAEB_K0@Z 0000000180061828 f i libucrt:setenv.obj
 0001:0006083c       ??$tcslen@AEBQEAD@?$__crt_char_traits@D@@SA_KAEBQEAD@Z 000000018006183c f i libucrt:setenv.obj
 0001:00060854       ??$tcslen@AEBQEA_W@?$__crt_char_traits@_W@@SA_KAEBQEA_W@Z 0000000180061854 f i libucrt:setenv.obj
 0001:0006086c       ??$tcsnicoll@AEBQEBDAEAPEADAEB_K@?$__crt_char_traits@D@@SAHAEBQEBDAEAPEADAEB_K@Z 000000018006186c f i libucrt:setenv.obj
 0001:00060880       ??$tcsnicoll@AEBQEB_WAEAPEA_WAEB_K@?$__crt_char_traits@_W@@SAHAEBQEB_WAEAPEA_WAEB_K@Z 0000000180061880 f i libucrt:setenv.obj
 0001:000608dc       ?strchr@@YAPEADQEADH@Z     00000001800618dc f i libucrt:setenv.obj
 0001:000608e4       ?wcschr@@YAPEA_WPEA_W_W@Z  00000001800618e4 f i libucrt:setenv.obj
 0001:000608ec       __dcrt_set_variable_in_narrow_environment_nolock 00000001800618ec f   libucrt:setenv.obj
 0001:000608f4       __dcrt_set_variable_in_wide_environment_nolock 00000001800618f4 f   libucrt:setenv.obj
 0001:00060900       _recalloc_base             0000000180061900 f   libucrt:recalloc.obj
 0001:000609a0       _recalloc                  00000001800619a0 f   libucrt:recalloc.obj
 0001:00060b1c       ?ReadPointerNoFence@@YAPEAXPEDSEAX@Z 0000000180061b1c f i libucrt:winapi_thunks.obj
 0001:00061b64       GetCurrentThreadEffectiveToken 0000000180062b64 f i libucrt:winapi_thunks.obj
 0001:00061b70       __acrt_AppPolicyGetProcessTerminationMethodInternal 0000000180062b70 f   libucrt:winapi_thunks.obj
 0001:00061be4       __acrt_AppPolicyGetShowDeveloperDiagnosticInternal 0000000180062be4 f   libucrt:winapi_thunks.obj
 0001:00061c58       __acrt_AppPolicyGetThreadInitializationTypeInternal 0000000180062c58 f   libucrt:winapi_thunks.obj
 0001:00061ccc       __acrt_AppPolicyGetWindowingModelInternal 0000000180062ccc f   libucrt:winapi_thunks.obj
 0001:00061d40       __acrt_AreFileApisANSI     0000000180062d40 f   libucrt:winapi_thunks.obj
 0001:00061d9c       __acrt_CompareStringEx     0000000180062d9c f   libucrt:winapi_thunks.obj
 0001:00061e90       __acrt_EnumSystemLocalesEx 0000000180062e90 f   libucrt:winapi_thunks.obj
 0001:00061f60       __acrt_FlsAlloc            0000000180062f60 f   libucrt:winapi_thunks.obj
 0001:00061f68       __acrt_FlsFree             0000000180062f68 f   libucrt:winapi_thunks.obj
 0001:00061f70       __acrt_FlsGetValue         0000000180062f70 f   libucrt:winapi_thunks.obj
 0001:00061f78       __acrt_FlsGetValue2        0000000180062f78 f   libucrt:winapi_thunks.obj
 0001:00061f84       __acrt_FlsSetValue         0000000180062f84 f   libucrt:winapi_thunks.obj
 0001:00061f8c       __acrt_GetDateFormatEx     0000000180062f8c f   libucrt:winapi_thunks.obj
 0001:00062084       __acrt_GetEnabledXStateFeatures 0000000180063084 f   libucrt:winapi_thunks.obj
 0001:000620dc       __acrt_GetFileInformationByName 00000001800630dc f   libucrt:winapi_thunks.obj
 0001:00062178       __acrt_GetLocaleInfoEx     0000000180063178 f   libucrt:winapi_thunks.obj
 0001:00062234       __acrt_GetSystemTimePreciseAsFileTime 0000000180063234 f   libucrt:winapi_thunks.obj
 0001:000622a4       __acrt_GetTempPath2W       00000001800632a4 f   libucrt:winapi_thunks.obj
 0001:00062324       __acrt_GetTimeFormatEx     0000000180063324 f   libucrt:winapi_thunks.obj
 0001:0006240c       __acrt_GetUserDefaultLocaleName 000000018006340c f   libucrt:winapi_thunks.obj
 0001:00062498       __acrt_GetXStateFeaturesMask 0000000180063498 f   libucrt:winapi_thunks.obj
 0001:00062510       __acrt_InitializeCriticalSectionEx 0000000180063510 f   libucrt:winapi_thunks.obj
 0001:00062518       __acrt_IsThreadAFiber      0000000180063518 f   libucrt:winapi_thunks.obj
 0001:00062520       __acrt_IsValidLocaleName   0000000180063520 f   libucrt:winapi_thunks.obj
 0001:000625a0       __acrt_LCIDToLocaleName    00000001800635a0 f   libucrt:winapi_thunks.obj
 0001:00062648       __acrt_LCMapStringEx       0000000180063648 f   libucrt:winapi_thunks.obj
 0001:00062778       __acrt_LocaleNameToLCID    0000000180063778 f   libucrt:winapi_thunks.obj
 0001:000627f4       __acrt_LocateXStateFeature 00000001800637f4 f   libucrt:winapi_thunks.obj
 0001:0006287c       __acrt_MessageBoxA         000000018006387c f   libucrt:winapi_thunks.obj
 0001:0006291c       __acrt_MessageBoxW         000000018006391c f   libucrt:winapi_thunks.obj
 0001:000629bc       __acrt_RoInitialize        00000001800639bc f   libucrt:winapi_thunks.obj
 0001:00062a20       __acrt_RoUninitialize      0000000180063a20 f   libucrt:winapi_thunks.obj
 0001:00062a74       __acrt_RtlGenRandom        0000000180063a74 f   libucrt:winapi_thunks.obj
 0001:00062ae8       __acrt_SetThreadStackGuarantee 0000000180063ae8 f   libucrt:winapi_thunks.obj
 0001:00062b50       __acrt_can_show_message_box 0000000180063b50 f   libucrt:winapi_thunks.obj
 0001:00062bf8       __acrt_can_use_vista_locale_apis 0000000180063bf8 f   libucrt:winapi_thunks.obj
 0001:00062c14       __acrt_can_use_xstate_apis 0000000180063c14 f   libucrt:winapi_thunks.obj
 0001:00062c68       __acrt_eagerly_load_locale_apis 0000000180063c68 f   libucrt:winapi_thunks.obj
 0001:00062e78       __acrt_get_parent_window   0000000180063e78 f   libucrt:winapi_thunks.obj
 0001:00062f34       __acrt_initialize_winapi_thunks 0000000180063f34 f   libucrt:winapi_thunks.obj
 0001:00062f70       __acrt_is_interactive      0000000180063f70 f   libucrt:winapi_thunks.obj
 0001:00063094       __acrt_tls2_supported      0000000180064094 f   libucrt:winapi_thunks.obj
 0001:000630e8       __acrt_uninitialize_winapi_thunks 00000001800640e8 f   libucrt:winapi_thunks.obj
 0001:00063140       _get_heap_handle           0000000180064140 f   libucrt:heap_handle.obj
 0001:00063150       __acrt_initialize_heap     0000000180064150 f   libucrt:heap_handle.obj
 0001:00063180       __acrt_uninitialize_heap   0000000180064180 f   libucrt:heap_handle.obj
 0001:000631a0       __acrt_getheap             00000001800641a0 f   libucrt:heap_handle.obj
 0001:00063470       __acrt_initialize_lowio    0000000180064470 f   libucrt:ioinit.obj
 0001:000634bc       __acrt_uninitialize_lowio  00000001800644bc f   libucrt:ioinit.obj
 0001:0006350c       __acrt_execute_initializers 000000018006450c f   libucrt:shared_initialization.obj
 0001:000635ac       __acrt_execute_uninitializers 00000001800645ac f   libucrt:shared_initialization.obj
 0001:00063600       _callnewh                  0000000180064600 f   libucrt:new_handler.obj
 0001:00063640       __acrt_initialize_new_handler 0000000180064640 f   libucrt:new_handler.obj
 0001:00063650       _query_new_handler         0000000180064650 f   libucrt:new_handler.obj
 0001:00063690       _set_new_handler           0000000180064690 f   libucrt:new_handler.obj
 0001:000636f0       ?_set_new_handler@@YAP6AH_K@ZH@Z 00000001800646f0 f   libucrt:new_handler.obj
 0001:0006373c       ??$?B$$A6AH_K@Z@__crt_fast_encoded_nullptr_t@@QEBAP6AH_K@ZXZ 000000018006473c f i libucrt:new_handler.obj
 0001:00063748       ??$__crt_fast_decode_pointer@P6AH_K@Z@@YAP6AH_K@ZQ6AH0@Z@Z 0000000180064748 f i libucrt:new_handler.obj
 0001:00063764       ??$__crt_fast_encode_pointer@P6AH_K@Z@@YAP6AH_K@ZQ6AH0@Z@Z 0000000180064764 f i libucrt:new_handler.obj
 0001:0006378c       ?initialize@?$dual_state_global@P6AH_K@Z@__crt_state_management@@QEAAXQ6AH_K@Z@Z 000000018006478c f i libucrt:new_handler.obj
 0001:0006379c       ?value@?$dual_state_global@P6AH_K@Z@__crt_state_management@@QEAAAEAP6AH_K@ZXZ 000000018006479c f i libucrt:new_handler.obj
 0001:000637a0       ??$?B$$A6AXH@Z@__crt_fast_encoded_nullptr_t@@QEBAP6AXH@ZXZ 00000001800647a0 f i libucrt:signal.obj
 0001:00063838       ??$__crt_fast_decode_pointer@P6AXH@Z@@YAP6AXH@ZQ6AXH@Z@Z 0000000180064838 f i libucrt:signal.obj
 0001:00063854       ??$__crt_fast_encode_pointer@P6AXH@Z@@YAP6AXH@ZQ6AXH@Z@Z 0000000180064854 f i libucrt:signal.obj
 0001:000639c8       ?initialize@?$dual_state_global@P6AXH@Z@__crt_state_management@@QEAAXQ6AXH@Z@Z 00000001800649c8 f i libucrt:signal.obj
 0001:00063a74       ?value@?$dual_state_global@P6AXH@Z@__crt_state_management@@QEAAAEAP6AXH@ZXZ 0000000180064a74 f i libucrt:signal.obj
 0001:00063a78       __acrt_get_sigabrt_handler 0000000180064a78 f   libucrt:signal.obj
 0001:00063ab4       __acrt_initialize_signal_handlers 0000000180064ab4 f   libucrt:signal.obj
 0001:00063ad8       __fpecode                  0000000180064ad8 f   libucrt:signal.obj
 0001:00063af0       __pxcptinfoptrs            0000000180064af0 f   libucrt:signal.obj
 0001:00063b08       raise                      0000000180064b08 f   libucrt:signal.obj
 0001:00063dfc       signal                     0000000180064dfc f   libucrt:signal.obj
 0001:00064030       ??$__crt_fast_decode_pointer@P6AHPEAU_exception@@@Z@@YAP6AHPEAU_exception@@@ZQ6AH0@Z@Z 0000000180065030 f i libucrt:matherr.obj
 0001:00064050       ??$__crt_fast_encode_pointer@P6AHPEAU_exception@@@Z@@YAP6AHPEAU_exception@@@ZQ6AH0@Z@Z 0000000180065050 f i libucrt:matherr.obj
 0001:00064080       ?initialize@?$dual_state_global@P6AHPEAU_exception@@@Z@__crt_state_management@@QEAAXQ6AHPEAU_exception@@@Z@Z 0000000180065080 f i libucrt:matherr.obj
 0001:00064090       ?value@?$dual_state_global@P6AHPEAU_exception@@@Z@__crt_state_management@@QEAAAEAP6AHPEAU_exception@@@ZXZ 0000000180065090 f i libucrt:matherr.obj
 0001:000640a0       __acrt_has_user_matherr    00000001800650a0 f   libucrt:matherr.obj
 0001:000640d0       __acrt_initialize_user_matherr 00000001800650d0 f   libucrt:matherr.obj
 0001:000640e0       __acrt_invoke_user_matherr 00000001800650e0 f   libucrt:matherr.obj
 0001:00064120       __setusermatherr           0000000180065120 f   libucrt:matherr.obj
 0001:0006449c       ??0__crt_stdio_stream@@QEAA@QEAU__crt_stdio_stream_data@@@Z 000000018006549c f i libucrt:fflush.obj
 0001:00064668       ?__acrt_stdio_reset_buffer@@YAXV__crt_stdio_stream@@@Z 0000000180065668 f i libucrt:fflush.obj
 0001:00064790       ?has_all_of@__crt_stdio_stream@@QEBA_NJ@Z 0000000180065790 f i libucrt:fflush.obj
 0001:000647e8       ?set_flags@__crt_stdio_stream@@QEBA_NJ@Z 00000001800657e8 f i libucrt:fflush.obj
 0001:00064810       ?unset_flags@__crt_stdio_stream@@QEBA_NJ@Z 0000000180065810 f i libucrt:fflush.obj
 0001:00064840       __acrt_stdio_flush_nolock  0000000180065840 f   libucrt:fflush.obj
 0001:000648f0       _fflush_nolock             00000001800658f0 f   libucrt:fflush.obj
 0001:000649f8       _flushall                  00000001800659f8 f   libucrt:fflush.obj
 0001:00064a00       fflush                     0000000180065a00 f   libucrt:fflush.obj
 0001:00064a80       __p___mb_cur_max           0000000180065a80 f   libucrt:nlsdata.obj
 0001:00064abc       ??$?RPEAU__crt_stdio_stream_data@@@__crt_internal_free_policy@@QEBAXQEBQEAU__crt_stdio_stream_data@@@Z 0000000180065abc f i libucrt:_file.obj
 0001:00064ac8       ??0?$__crt_unique_heap_ptr@PEAU__crt_stdio_stream_data@@U__crt_internal_free_policy@@@@QEAA@QEAPEAU__crt_stdio_stream_data@@@Z 0000000180065ac8 f i libucrt:_file.obj
 0001:00064ad0       ??1?$__crt_unique_heap_ptr@PEAU__crt_stdio_stream_data@@U__crt_internal_free_policy@@@@QEAA@XZ 0000000180065ad0 f i libucrt:_file.obj
 0001:00064af4       ?detach@?$__crt_unique_heap_ptr@PEAU__crt_stdio_stream_data@@U__crt_internal_free_policy@@@@QEAAPEAPEAU__crt_stdio_stream_data@@XZ 0000000180065af4 f i libucrt:_file.obj
 0001:00064b00       ?release@?$__crt_unique_heap_ptr@PEAU__crt_stdio_stream_data@@U__crt_internal_free_policy@@@@QEAAXXZ 0000000180065b00 f i libucrt:_file.obj
 0001:00064b24       __acrt_initialize_stdio    0000000180065b24 f   libucrt:_file.obj
 0001:00064c8c       __acrt_iob_func            0000000180065c8c f   libucrt:_file.obj
 0001:00064ca4       __acrt_uninitialize_stdio  0000000180065ca4 f   libucrt:_file.obj
 0001:00064d18       _get_stream_buffer_pointers 0000000180065d18 f   libucrt:_file.obj
 0001:00064d70       _lock_file                 0000000180065d70 f   libucrt:_file.obj
 0001:00064d80       _unlock_file               0000000180065d80 f   libucrt:_file.obj
 0001:00064d90       ?has_any_buffer@__crt_stdio_stream@@QEBA_NXZ 0000000180065d90 f i libucrt:_sftbuf.obj
 0001:00064da8       ?has_any_of@__crt_stdio_stream@@QEBA_NJ@Z 0000000180065da8 f i libucrt:_sftbuf.obj
 0001:00064db8       ?has_temporary_buffer@__crt_stdio_stream@@QEBA_NXZ 0000000180065db8 f i libucrt:_sftbuf.obj
 0001:00064dc8       __acrt_should_use_temporary_buffer 0000000180065dc8 f   libucrt:_sftbuf.obj
 0001:00064e24       __acrt_stdio_begin_temporary_buffering_nolock 0000000180065e24 f   libucrt:_sftbuf.obj
 0001:00064f1c       __acrt_stdio_end_temporary_buffering_nolock 0000000180065f1c f   libucrt:_sftbuf.obj
 0001:00064f70       _malloc_base               0000000180065f70 f   libucrt:malloc_base.obj
 0001:00065c50       ??1?$__crt_simd_cleanup_guard@$00@@QEAA@XZ 0000000180066c50 f i libucrt:strnlen.obj
 0001:00065c60       ??1?$__crt_simd_cleanup_guard@$0A@@@QEAA@XZ 0000000180066c60 f i libucrt:strnlen.obj
 0001:00065c70       ?compare_equals@?$__crt_simd_traits@$00E@@SA?AT__m256i@@T2@0@Z 0000000180066c70 f i libucrt:strnlen.obj
 0001:00065c80       ?compare_equals@?$__crt_simd_traits@$00G@@SA?AT__m256i@@T2@0@Z 0000000180066c80 f i libucrt:strnlen.obj
 0001:00065c90       ?compare_equals@?$__crt_simd_traits@$0A@E@@SA?AT__m128i@@T2@0@Z 0000000180066c90 f i libucrt:strnlen.obj
 0001:00065ca0       ?compare_equals@?$__crt_simd_traits@$0A@G@@SA?AT__m128i@@T2@0@Z 0000000180066ca0 f i libucrt:strnlen.obj
 0001:00065cb0       ?compute_byte_mask@?$__crt_simd_pack_traits@$00@@SAHT__m256i@@@Z 0000000180066cb0 f i libucrt:strnlen.obj
 0001:00065cc0       ?compute_byte_mask@?$__crt_simd_pack_traits@$0A@@@SAHT__m128i@@@Z 0000000180066cc0 f i libucrt:strnlen.obj
 0001:00065cd0       ?get_zero_pack@?$__crt_simd_pack_traits@$00@@SA?AT__m256i@@XZ 0000000180066cd0 f i libucrt:strnlen.obj
 0001:00065ce0       ?get_zero_pack@?$__crt_simd_pack_traits@$0A@@@SA?AT__m128i@@XZ 0000000180066ce0 f i libucrt:strnlen.obj
 0001:00065cf0       strnlen                    0000000180066cf0 f   libucrt:strnlen.obj
 0001:00065ee0       wcslen                     0000000180066ee0 f   libucrt:strnlen.obj
 0001:00066080       wcsnlen                    0000000180067080 f   libucrt:strnlen.obj
 0001:00066308       ?value_explicit@?$dual_state_global@PEAU__crt_locale_data@@@__crt_state_management@@QEAAAEAPEAU__crt_locale_data@@_K@Z 0000000180067308 f i libucrt:locale_update.obj
 0001:00066310       ?value_explicit@?$dual_state_global@PEAU__crt_multibyte_data@@@__crt_state_management@@QEAAAEAPEAU__crt_multibyte_data@@_K@Z 0000000180067310 f i libucrt:locale_update.obj
 0001:00066318       __acrt_update_locale_info  0000000180067318 f   libucrt:locale_update.obj
 0001:00066358       __acrt_update_locale_info_explicit 0000000180067358 f   libucrt:locale_update.obj
 0001:0006639c       __acrt_update_multibyte_info 000000018006739c f   libucrt:locale_update.obj
 0001:000663dc       __acrt_update_multibyte_info_explicit 00000001800673dc f   libucrt:locale_update.obj
 0001:00066420       ?__acrt_fp_classify@@YA?AW4__acrt_fp_class@@AEBN@Z 0000000180067420 f i libucrt:cvt.obj
 0001:00066494       ?__acrt_fp_is_negative@@YA_NAEBN@Z 0000000180067494 f i libucrt:cvt.obj
 0001:0006740c       ?strrchr@@YAPEADQEADH@Z    000000018006840c f i libucrt:cvt.obj
 0001:00067414       __acrt_fp_format           0000000180068414 f   libucrt:cvt.obj
 0001:000677b4       ?value_or@?$cached@H@__crt_cached_ptd_host@@QEBAHH@Z 00000001800687b4 f i libucrt:wctomb.obj
 0001:000677c4       _wctomb_internal           00000001800687c4 f   libucrt:wctomb.obj
 0001:000679e0       _wctomb_l                  00000001800689e0 f   libucrt:wctomb.obj
 0001:00067b08       _wctomb_s_l                0000000180068b08 f   libucrt:wctomb.obj
 0001:00067be0       wctomb                     0000000180068be0 f   libucrt:wctomb.obj
 0001:00067cd8       wctomb_s                   0000000180068cd8 f   libucrt:wctomb.obj
 0001:00067da0       _isleadbyte_fast_internal  0000000180068da0 f i libucrt:mbtowc.obj
 0001:00067dc0       _mbtowc_internal           0000000180068dc0 f   libucrt:mbtowc.obj
 0001:00067f98       _mbtowc_l                  0000000180068f98 f   libucrt:mbtowc.obj
 0001:00068064       mbtowc                     0000000180069064 f   libucrt:mbtowc.obj
 0001:00068124       ?__mblen_utf8@__crt_mbstring@@YAHPEBD@Z 0000000180069124 f   libucrt:mbrtoc32.obj
 0001:0006816c       ?__mbrtoc32_utf8@__crt_mbstring@@YA_KPEA_UPEBD_KPEAU_Mbstatet@@AEAV__crt_cached_ptd_host@@@Z 000000018006916c f   libucrt:mbrtoc32.obj
 0001:00068398       mbrtoc32                   0000000180069398 f   libucrt:mbrtoc32.obj
 0001:00068464       ?__c16rtomb_utf8@__crt_mbstring@@YA_KPEAD_SPEAU_Mbstatet@@AEAV__crt_cached_ptd_host@@@Z 0000000180069464 f   libucrt:c16rtomb.obj
 0001:00068598       c16rtomb                   0000000180069598 f   libucrt:c16rtomb.obj
 0001:00068688       ?__mbrtowc_utf8@__crt_mbstring@@YA_KPEA_WPEBD_KPEAU_Mbstatet@@AEAV__crt_cached_ptd_host@@@Z 0000000180069688 f   libucrt:mbrtowc.obj
 0001:000686e0       ?__mbsrtowcs_utf8@__crt_mbstring@@YA_KPEA_WPEAPEBD_KPEAU_Mbstatet@@AEAV__crt_cached_ptd_host@@@Z 00000001800696e0 f   libucrt:mbrtowc.obj
 0001:00068ef0       btowc                      0000000180069ef0 f   libucrt:mbrtowc.obj
 0001:00069000       mbrlen                     000000018006a000 f   libucrt:mbrtowc.obj
 0001:000690f8       mbrtowc                    000000018006a0f8 f   libucrt:mbrtowc.obj
 0001:00069218       mbsrtowcs                  000000018006a218 f   libucrt:mbrtowc.obj
 0001:000692e4       mbsrtowcs_s                000000018006a2e4 f   libucrt:mbrtowc.obj
 0001:0006949c       ?lowio_handle@__crt_stdio_stream@@QEBAHXZ 000000018006a49c f i libucrt:fileno.obj
 0001:000694a8       _fileno                    000000018006a4a8 f   libucrt:fileno.obj
 0001:000694d8       _get_printf_count_output   000000018006a4d8 f   libucrt:printf_count_output.obj
 0001:000694f8       _set_printf_count_output   000000018006a4f8 f   libucrt:printf_count_output.obj
 0001:000695ec       _fputwc_nolock             000000018006a5ec f   libucrt:fputwc.obj
 0001:000696ac       _fputwc_nolock_internal    000000018006a6ac f   libucrt:fputwc.obj
 0001:000698a4       _fputwchar                 000000018006a8a4 f   libucrt:fputwc.obj
 0001:000698d0       _putwc_nolock              000000018006a8d0 f   libucrt:fputwc.obj
 0001:000698d8       fputwc                     000000018006a8d8 f   libucrt:fputwc.obj
 0001:00069998       putwc                      000000018006a998 f   libucrt:fputwc.obj
 0001:000699a0       putwchar                   000000018006a9a0 f   libucrt:fputwc.obj
 0001:00069b68       _fputc_nolock              000000018006ab68 f   libucrt:fputc.obj
 0001:00069c40       _fputc_nolock_internal     000000018006ac40 f   libucrt:fputc.obj
 0001:00069c5c       _fputchar                  000000018006ac5c f   libucrt:fputc.obj
 0001:00069c88       _putc_nolock               000000018006ac88 f   libucrt:fputc.obj
 0001:00069c90       fputc                      000000018006ac90 f   libucrt:fputc.obj
 0001:00069d50       putc                       000000018006ad50 f   libucrt:fputc.obj
 0001:00069d58       putchar                    000000018006ad58 f   libucrt:fputc.obj
 0001:00069d64       ??$?RU__crt_locale_data@@@__crt_internal_free_policy@@QEBAXQEBU__crt_locale_data@@@Z 000000018006ad64 f i libucrt:wsetlocale.obj
 0001:00069d70       ??$?RU__crt_locale_pointers@@@__crt_internal_free_policy@@QEBAXQEBU__crt_locale_pointers@@@Z 000000018006ad70 f i libucrt:wsetlocale.obj
 0001:0006a270       ??0?$__crt_unique_heap_ptr@U__crt_locale_data@@U__crt_internal_free_policy@@@@QEAA@QEAU__crt_locale_data@@@Z 000000018006b270 f i libucrt:wsetlocale.obj
 0001:0006a278       ??0?$__crt_unique_heap_ptr@U__crt_locale_pointers@@U__crt_internal_free_policy@@@@QEAA@QEAU__crt_locale_pointers@@@Z 000000018006b278 f i libucrt:wsetlocale.obj
 0001:0006a280       ??0_expandlocale_locale_name_cache@@QEAA@QEA_W_KQEAU__crt_qualified_locale_data@@@Z 000000018006b280 f i libucrt:wsetlocale.obj
 0001:0006a2f0       ??1?$__crt_unique_heap_ptr@U__crt_locale_data@@U__crt_internal_free_policy@@@@QEAA@XZ 000000018006b2f0 f i libucrt:wsetlocale.obj
 0001:0006a314       ??1?$__crt_unique_heap_ptr@U__crt_locale_pointers@@U__crt_internal_free_policy@@@@QEAA@XZ 000000018006b314 f i libucrt:wsetlocale.obj
 0001:0006a338       ??1_expandlocale_locale_name_cache@@QEAA@XZ 000000018006b338 f i libucrt:wsetlocale.obj
 0001:0006a394       ??B?$__crt_unique_heap_ptr@U__crt_locale_data@@U__crt_internal_free_policy@@@@QEBA_NXZ 000000018006b394 f i libucrt:wsetlocale.obj
 0001:0006a3a0       ??B?$__crt_unique_heap_ptr@U__crt_locale_pointers@@U__crt_internal_free_policy@@@@QEBA_NXZ 000000018006b3a0 f i libucrt:wsetlocale.obj
 0001:0006a6ac       ?commit_locale_name@_expandlocale_locale_name_cache@@QEAAXQEB_W_K@Z 000000018006b6ac f i libucrt:wsetlocale.obj
 0001:0006a740       ?commit_locale_name_cache_already_updated@_expandlocale_locale_name_cache@@QEAAXQEB_W_K@Z 000000018006b740 f i libucrt:wsetlocale.obj
 0001:0006a790       ?detach@?$__crt_unique_heap_ptr@U__crt_locale_data@@U__crt_internal_free_policy@@@@QEAAPEAU__crt_locale_data@@XZ 000000018006b790 f i libucrt:wsetlocale.obj
 0001:0006a79c       ?detach@?$__crt_unique_heap_ptr@U__crt_locale_pointers@@U__crt_internal_free_policy@@@@QEAAPEAU__crt_locale_pointers@@XZ 000000018006b79c f i libucrt:wsetlocale.obj
 0001:0006a7a8       ?get@?$__crt_unique_heap_ptr@U__crt_locale_data@@U__crt_internal_free_policy@@@@QEBAPEAU__crt_locale_data@@XZ 000000018006b7a8 f i libucrt:wsetlocale.obj
 0001:0006a7ac       ?get@?$__crt_unique_heap_ptr@U__crt_locale_pointers@@U__crt_internal_free_policy@@@@QEBAPEAU__crt_locale_pointers@@XZ 000000018006b7ac f i libucrt:wsetlocale.obj
 0001:0006a7b0       ?is_valid@?$__crt_unique_heap_ptr@U__crt_locale_data@@U__crt_internal_free_policy@@@@QEBA_NXZ 000000018006b7b0 f i libucrt:wsetlocale.obj
 0001:0006a7bc       ?is_valid@?$__crt_unique_heap_ptr@U__crt_locale_pointers@@U__crt_internal_free_policy@@@@QEBA_NXZ 000000018006b7bc f i libucrt:wsetlocale.obj
 0001:0006a7c8       ?release@?$__crt_unique_heap_ptr@U__crt_locale_data@@U__crt_internal_free_policy@@@@QEAAXXZ 000000018006b7c8 f i libucrt:wsetlocale.obj
 0001:0006a7ec       ?release@?$__crt_unique_heap_ptr@U__crt_locale_pointers@@U__crt_internal_free_policy@@@@QEAAXXZ 000000018006b7ec f i libucrt:wsetlocale.obj
 0001:0006a810       __acrt_copy_locale_name    000000018006b810 f   libucrt:wsetlocale.obj
 0001:0006a8b4       __acrt_set_locale_changed  000000018006b8b4 f   libucrt:wsetlocale.obj
 0001:0006a8c4       __acrt_uninitialize_locale 000000018006b8c4 f   libucrt:wsetlocale.obj
 0001:0006a900       __ascii_tolower            000000018006b900 f i libucrt:wsetlocale.obj
 0001:0006a914       __ascii_towlower           000000018006b914 f i libucrt:wsetlocale.obj
 0001:0006a924       __lc_lctowcs               000000018006b924 f   libucrt:wsetlocale.obj
 0001:0006a9f0       __lc_wcstolc               000000018006b9f0 f   libucrt:wsetlocale.obj
 0001:0006abb0       _configthreadlocale        000000018006bbb0 f   libucrt:wsetlocale.obj
 0001:0006ad24       _create_locale             000000018006bd24 f   libucrt:wsetlocale.obj
 0001:0006b35c       _free_locale               000000018006c35c f   libucrt:wsetlocale.obj
 0001:0006b428       _get_current_locale        000000018006c428 f   libucrt:wsetlocale.obj
 0001:0006b51c       _wcreate_locale            000000018006c51c f   libucrt:wsetlocale.obj
 0001:0006b6b8       _wcscats                   000000018006c6b8 f   libucrt:wsetlocale.obj
 0001:0006b73c       _wsetlocale                000000018006c73c f   libucrt:wsetlocale.obj
 0001:0006c8f8       __pctype_func              000000018006d8f8 f   libucrt:ctype.obj
 0001:0006c934       __pwctype_func             000000018006d934 f   libucrt:ctype.obj
 0001:0006c940       _iswctype_l                000000018006d940 f   libucrt:iswctype.obj
 0001:0006c948       iswctype                   000000018006d948 f   libucrt:iswctype.obj
 0001:0006c9d0       _isctype                   000000018006d9d0 f   libucrt:isctype.obj
 0001:0006ca0c       _isctype_l                 000000018006da0c f   libucrt:isctype.obj
 0001:0006cb60       _clrfp                     000000018006db60 f   libucrt:fpctrl.obj
 0001:0006cb90       _ctrlfp                    000000018006db90 f   libucrt:fpctrl.obj
 0001:0006cc30       _get_fpcsr                 000000018006dc30 f   libucrt:fpctrl.obj
 0001:0006cc40       _get_fpsr                  000000018006dc40 f i libucrt:fpctrl.obj
 0001:0006cc50       _set_fpcsr                 000000018006dc50 f   libucrt:fpctrl.obj
 0001:0006cc60       _set_fpsr                  000000018006dc60 f i libucrt:fpctrl.obj
 0001:0006cc70       _set_statfp                000000018006dc70 f   libucrt:fpctrl.obj
 0001:0006cca0       _statfp                    000000018006dca0 f   libucrt:fpctrl.obj
 0001:0006cd80       ?should_round_up@__crt_strtox@@YA_N_N000@Z 000000018006dd80 f i libucrt:fpexcept.obj
 0001:0006ce20       _errcode                   000000018006de20 f   libucrt:fpexcept.obj
 0001:0006ce70       _except1                   000000018006de70 f   libucrt:fpexcept.obj
 0001:0006d050       _except2                   000000018006e050 f   libucrt:fpexcept.obj
 0001:0006d260       _fperrraise                000000018006e260 f   libucrt:fpexcept.obj
 0001:0006d3a0       _handle_exc                000000018006e3a0 f   libucrt:fpexcept.obj
 0001:0006d7f0       _handle_qnan2              000000018006e7f0 f   libucrt:fpexcept.obj
 0001:0006d800       _raise_exc                 000000018006e800 f   libucrt:fpexcept.obj
 0001:0006d840       _raise_exc_ex              000000018006e840 f   libucrt:fpexcept.obj
 0001:0006dc10       _raise_excf                000000018006ec10 f   libucrt:fpexcept.obj
 0001:0006dc50       _set_errno_from_matherr    000000018006ec50 f   libucrt:fpexcept.obj
 0001:0006dc90       _umatherr                  000000018006ec90 f   libucrt:fpexcept.obj
 0001:0006de40       __acrt_add_locale_ref      000000018006ee40 f   libucrt:locale_refcounting.obj
 0001:0006def0       __acrt_free_locale         000000018006eef0 f   libucrt:locale_refcounting.obj
 0001:0006e0c4       __acrt_locale_add_lc_time_reference 000000018006f0c4 f   libucrt:locale_refcounting.obj
 0001:0006e0f4       __acrt_locale_free_lc_time_if_unreferenced 000000018006f0f4 f   libucrt:locale_refcounting.obj
 0001:0006e138       __acrt_locale_release_lc_time_reference 000000018006f138 f   libucrt:locale_refcounting.obj
 0001:0006e168       __acrt_release_locale_ref  000000018006f168 f   libucrt:locale_refcounting.obj
 0001:0006e23c       __acrt_update_thread_locale_data 000000018006f23c f   libucrt:locale_refcounting.obj
 0001:0006e2c8       _updatetlocinfoEx_nolock   000000018006f2c8 f   libucrt:locale_refcounting.obj
 0001:0006e350       _query_new_mode            000000018006f350 f   libucrt:new_mode.obj
 0001:0006e360       _set_new_mode              000000018006f360 f   libucrt:new_mode.obj
 0001:0006e39c       ?value@?$dual_state_global@J@__crt_state_management@@QEAAAEAJXZ 000000018006f39c f i libucrt:new_mode.obj
 0001:0006e4d0       qsort                      000000018006f4d0 f   libucrt:qsort.obj
 0001:0006eae0       wcsncpy_s                  000000018006fae0 f   libucrt:wcsncpy_s.obj
 0001:0006ec80       wcspbrk                    000000018006fc80 f   libucrt:wcspbrk.obj
 0001:0006ee50       strncpy_s                  000000018006fe50 f   libucrt:strncpy_s.obj
 0001:0006f0b0       strpbrk                    00000001800700b0 f   libucrt:strpbrk.obj
 0001:0006f558       _mbsdec                    0000000180070558 f   libucrt:mbsdec.obj
 0001:0006f564       _mbsdec_l                  0000000180070564 f   libucrt:mbsdec.obj
 0001:0006f620       ??0?$__crt_scoped_stack_ptr@_W@@QEAA@U?$__crt_scoped_stack_ptr_tag@_W@@@Z 0000000180070620 f i libucrt:getstringtypea.obj
 0001:0006f628       ??0?$__crt_scoped_stack_ptr_tag@_W@@QEAA@QEA_W@Z 0000000180070628 f i libucrt:getstringtypea.obj
 0001:0006f630       ??1?$__crt_scoped_stack_ptr@_W@@QEAA@XZ 0000000180070630 f i libucrt:getstringtypea.obj
 0001:0006f65c       ?get@?$__crt_scoped_stack_ptr@_W@@QEBAPEA_WXZ 000000018007065c f i libucrt:getstringtypea.obj
 0001:0006f660       _MallocaComputeSize        0000000180070660 f i libucrt:getstringtypea.obj
 0001:0006f674       _MarkAllocaS               0000000180070674 f i libucrt:getstringtypea.obj
 0001:0006f688       __acrt_GetStringTypeA      0000000180070688 f   libucrt:getstringtypea.obj
 0001:0006f87c       _freea_crt                 000000018007087c f i libucrt:getstringtypea.obj
 0001:0006f8a4       ??B?$__crt_scoped_stack_ptr@_W@@QEBA_NXZ 00000001800708a4 f i libucrt:lcmapstringa.obj
 0001:0006fcb0       __acrt_LCMapStringA        0000000180070cb0 f   libucrt:lcmapstringa.obj
 0001:0006fd90       _wcsnicoll                 0000000180070d90 f   libucrt:wcsnicol.obj
 0001:0006ff90       _wcsnicoll_l               0000000180070f90 f   libucrt:wcsnicol.obj
 0001:00070170       _strnicoll                 0000000180071170 f   libucrt:strnicol.obj
 0001:00070380       _strnicoll_l               0000000180071380 f   libucrt:strnicol.obj
 0001:00070564       __acrt_SetEnvironmentVariableA 0000000180071564 f   libucrt:setenvironmentvariablea.obj
 0001:00070770       _msize_base                0000000180071770 f   libucrt:msize.obj
 0001:000707b0       _msize                     00000001800717b0 f   libucrt:msize.obj
 0001:000707d0       _realloc_base              00000001800717d0 f   libucrt:realloc_base.obj
 0001:00070970       __acrt_DownlevelLCIDToLocaleName 0000000180071970 f   libucrt:lcidtoname_downlevel.obj
 0001:00070a90       __acrt_DownlevelLocaleNameToLCID 0000000180071a90 f   libucrt:lcidtoname_downlevel.obj
 0001:00070b60       ??$?RU__crt_lowio_handle_data@@@__crt_internal_free_policy@@QEBAXQEBU__crt_lowio_handle_data@@@Z 0000000180071b60 f i libucrt:osfinfo.obj
 0001:00070b6c       ??0?$__crt_unique_heap_ptr@U__crt_lowio_handle_data@@U__crt_internal_free_policy@@@@QEAA@QEAU__crt_lowio_handle_data@@@Z 0000000180071b6c f i libucrt:osfinfo.obj
 0001:00070b74       ??1?$__crt_unique_heap_ptr@U__crt_lowio_handle_data@@U__crt_internal_free_policy@@@@QEAA@XZ 0000000180071b74 f i libucrt:osfinfo.obj
 0001:00070b98       ??B?$__crt_unique_heap_ptr@U__crt_lowio_handle_data@@U__crt_internal_free_policy@@@@QEBA_NXZ 0000000180071b98 f i libucrt:osfinfo.obj
 0001:00070ba4       ?detach@?$__crt_unique_heap_ptr@U__crt_lowio_handle_data@@U__crt_internal_free_policy@@@@QEAAPEAU__crt_lowio_handle_data@@XZ 0000000180071ba4 f i libucrt:osfinfo.obj
 0001:00070bb0       ?get@?$__crt_unique_heap_ptr@U__crt_lowio_handle_data@@U__crt_internal_free_policy@@@@QEBAPEAU__crt_lowio_handle_data@@XZ 0000000180071bb0 f i libucrt:osfinfo.obj
 0001:00070bb4       ?is_valid@?$__crt_unique_heap_ptr@U__crt_lowio_handle_data@@U__crt_internal_free_policy@@@@QEBA_NXZ 0000000180071bb4 f i libucrt:osfinfo.obj
 0001:00070bc0       ?release@?$__crt_unique_heap_ptr@U__crt_lowio_handle_data@@U__crt_internal_free_policy@@@@QEAAXXZ 0000000180071bc0 f i libucrt:osfinfo.obj
 0001:00070be4       __acrt_lowio_create_handle_array 0000000180071be4 f   libucrt:osfinfo.obj
 0001:00070cb4       __acrt_lowio_destroy_handle_array 0000000180071cb4 f   libucrt:osfinfo.obj
 0001:00070d18       __acrt_lowio_ensure_fh_exists 0000000180071d18 f   libucrt:osfinfo.obj
 0001:00070dec       __acrt_lowio_lock_fh       0000000180071dec f   libucrt:osfinfo.obj
 0001:00070e1c       __acrt_lowio_set_os_handle 0000000180071e1c f   libucrt:osfinfo.obj
 0001:00070f0c       __acrt_lowio_unlock_fh     0000000180071f0c f   libucrt:osfinfo.obj
 0001:00070f3c       _alloc_osfhnd              0000000180071f3c f   libucrt:osfinfo.obj
 0001:000710cc       _free_osfhnd               00000001800720cc f   libucrt:osfinfo.obj
 0001:000711b4       _get_osfhandle             00000001800721b4 f   libucrt:osfinfo.obj
 0001:00071248       _open_osfhandle            0000000180072248 f   libucrt:osfinfo.obj
 0001:0007151c       _commit                    000000018007251c f   libucrt:commit.obj
 0001:00072220       _utf8_no_of_trailbytes     0000000180073220 f i libucrt:write.obj
 0001:00072234       _write                     0000000180073234 f   libucrt:write.obj
 0001:000722f4       _write_internal            00000001800732f4 f   libucrt:write.obj
 0001:00072458       _write_nolock              0000000180073458 f   libucrt:write.obj
 0001:00072854       localeconv                 0000000180073854 f   libucrt:localeconv.obj
 0001:00072894       ?is_in_use@__crt_stdio_stream@@QEBA_NXZ 0000000180073894 f i libucrt:closeall.obj
 0001:000728a4       _fcloseall                 00000001800738a4 f   libucrt:closeall.obj
 0001:00072984       ?has_crt_buffer@__crt_stdio_stream@@QEBA_NXZ 0000000180073984 f i libucrt:_freebuf.obj
 0001:00072994       __acrt_stdio_free_buffer_nolock 0000000180073994 f   libucrt:_freebuf.obj
 0001:000729e8       _isatty                    00000001800739e8 f   libucrt:isatty.obj
 0001:00072b80       __acrt_fp_strflt_to_string 0000000180073b80 f   libucrt:_fptostr.obj
 0001:00074290       ??0big_integer@__crt_strtox@@QEAA@AEBU01@@Z 0000000180075290 f i libucrt:cfout.obj
 0001:000742d0       ??0big_integer@__crt_strtox@@QEAA@XZ 00000001800752d0 f i libucrt:cfout.obj
 0001:000743b0       ??4big_integer@__crt_strtox@@QEAAAEAU01@AEBU01@@Z 00000001800753b0 f i libucrt:cfout.obj
 0001:000743f0       ??8__crt_strtox@@YA_NAEBUbig_integer@0@0@Z 00000001800753f0 f i libucrt:cfout.obj
 0001:00074430       ??9__crt_strtox@@YA_NAEBUbig_integer@0@0@Z 0000000180075430 f i libucrt:cfout.obj
 0001:00074480       ?add_carry@__crt_strtox@@YAIAEAIII@Z 0000000180075480 f i libucrt:cfout.obj
 0001:000744a0       ?add_multiply_carry@__crt_strtox@@YAIAEAIIII@Z 00000001800754a0 f i libucrt:cfout.obj
 0001:000744d0       ?bit_scan_reverse@__crt_strtox@@YAII@Z 00000001800754d0 f i libucrt:cfout.obj
 0001:000744f0       ?count_sequential_high_zeroes@__crt_strtox@@YAII@Z 00000001800754f0 f i libucrt:cfout.obj
 0001:00074520       ?divide@__crt_strtox@@YA_KAEAUbig_integer@1@AEBU21@@Z 0000000180075520 f i libucrt:cfout.obj
 0001:00074ad0       ?is_zero@__crt_strtox@@YA_NAEBUbig_integer@1@@Z 0000000180075ad0 f i libucrt:cfout.obj
 0001:00074ae0       ?make_big_integer@__crt_strtox@@YA?AUbig_integer@1@_K@Z 0000000180075ae0 f i libucrt:cfout.obj
 0001:00074b00       ?make_big_integer_power_of_two@__crt_strtox@@YA?AUbig_integer@1@I@Z 0000000180075b00 f i libucrt:cfout.obj
 0001:00074b80       ?multiply@__crt_strtox@@YA_NAEAUbig_integer@1@AEBU21@@Z 0000000180075b80 f i libucrt:cfout.obj
 0001:00075020       ?multiply@__crt_strtox@@YA_NAEAUbig_integer@1@I@Z 0000000180076020 f i libucrt:cfout.obj
 0001:00075150       ?multiply_64_32@__crt_strtox@@YA_K_KI@Z 0000000180076150 f i libucrt:cfout.obj
 0001:00075160       ?multiply_by_power_of_ten@__crt_strtox@@YA_NAEAUbig_integer@1@I@Z 0000000180076160 f i libucrt:cfout.obj
 0001:00075790       ?multiply_core@__crt_strtox@@YAIQEAIII@Z 0000000180076790 f i libucrt:cfout.obj
 0001:000757f0       ?shift_left@__crt_strtox@@YA_NAEAUbig_integer@1@I@Z 00000001800767f0 f i libucrt:cfout.obj
 0001:000759cc       __acrt_fltout              00000001800769cc f   libucrt:cfout.obj
 0001:000771a0       __fpe_flt_rounds           00000001800781a0 f   libucrt:fegetround.obj
 0001:00077210       fegetround                 0000000180078210 f   libucrt:fegetround.obj
 0001:0007722c       ??$?RG@__crt_internal_free_policy@@QEBAXQEBG@Z 000000018007822c f i libucrt:initctype.obj
 0001:00077238       ??$?RJ@__crt_internal_free_policy@@QEBAXQEBJ@Z 0000000180078238 f i libucrt:initctype.obj
 0001:00077244       ??0?$__crt_unique_heap_ptr@GU__crt_internal_free_policy@@@@QEAA@QEAG@Z 0000000180078244 f i libucrt:initctype.obj
 0001:0007724c       ??0?$__crt_unique_heap_ptr@JU__crt_internal_free_policy@@@@QEAA@QEAJ@Z 000000018007824c f i libucrt:initctype.obj
 0001:00077254       ??1?$__crt_unique_heap_ptr@GU__crt_internal_free_policy@@@@QEAA@XZ 0000000180078254 f i libucrt:initctype.obj
 0001:00077278       ??1?$__crt_unique_heap_ptr@JU__crt_internal_free_policy@@@@QEAA@XZ 0000000180078278 f i libucrt:initctype.obj
 0001:0007729c       ?detach@?$__crt_unique_heap_ptr@GU__crt_internal_free_policy@@@@QEAAPEAGXZ 000000018007829c f i libucrt:initctype.obj
 0001:000772a8       ?detach@?$__crt_unique_heap_ptr@JU__crt_internal_free_policy@@@@QEAAPEAJXZ 00000001800782a8 f i libucrt:initctype.obj
 0001:000772b4       ?release@?$__crt_unique_heap_ptr@GU__crt_internal_free_policy@@@@QEAAXXZ 00000001800782b4 f i libucrt:initctype.obj
 0001:000772d8       ?release@?$__crt_unique_heap_ptr@JU__crt_internal_free_policy@@@@QEAAXXZ 00000001800782d8 f i libucrt:initctype.obj
 0001:000772fc       ___lc_codepage_func        00000001800782fc f   libucrt:initctype.obj
 0001:00077338       ___lc_collate_cp_func      0000000180078338 f   libucrt:initctype.obj
 0001:00077374       ___lc_locale_name_func     0000000180078374 f   libucrt:initctype.obj
 0001:000773b4       ___mb_cur_max_func         00000001800783b4 f   libucrt:initctype.obj
 0001:000773f0       ___mb_cur_max_l_func       00000001800783f0 f   libucrt:initctype.obj
 0001:00077404       __acrt_locale_initialize_ctype 0000000180078404 f   libucrt:initctype.obj
 0001:00077bdc       ?__c32rtomb_utf8@__crt_mbstring@@YA_KPEAD_UPEAU_Mbstatet@@AEAV__crt_cached_ptd_host@@@Z 0000000180078bdc f   libucrt:c32rtomb.obj
 0001:00077ca8       c32rtomb                   0000000180078ca8 f   libucrt:c32rtomb.obj
 0001:00077d68       ?reset_and_return@__crt_mbstring@@YA_K_KPEAU_Mbstatet@@@Z 0000000180078d68 f   libucrt:common_utf8.obj
 0001:00077d74       ?return_illegal_sequence@__crt_mbstring@@YA_KPEAU_Mbstatet@@AEAV__crt_cached_ptd_host@@@Z 0000000180078d74 f   libucrt:common_utf8.obj
 0001:00078200       ?has_big_buffer@__crt_stdio_stream@@QEBA_NXZ 0000000180079200 f i libucrt:_flsbuf.obj
 0001:000782c0       __acrt_stdio_flush_and_write_narrow_nolock 00000001800792c0 f   libucrt:_flsbuf.obj
 0001:000783c0       __acrt_stdio_flush_and_write_wide_nolock 00000001800793c0 f   libucrt:_flsbuf.obj
 0001:000784c0       ??$?RUlconv@@@__crt_internal_free_policy@@QEBAXQEBUlconv@@@Z 00000001800794c0 f i libucrt:initmon.obj
 0001:000784cc       ??0?$__crt_unique_heap_ptr@Ulconv@@U__crt_internal_free_policy@@@@QEAA@QEAUlconv@@@Z 00000001800794cc f i libucrt:initmon.obj
 0001:000784d4       ??1?$__crt_unique_heap_ptr@Ulconv@@U__crt_internal_free_policy@@@@QEAA@XZ 00000001800794d4 f i libucrt:initmon.obj
 0001:000784f8       ?detach@?$__crt_unique_heap_ptr@Ulconv@@U__crt_internal_free_policy@@@@QEAAPEAUlconv@@XZ 00000001800794f8 f i libucrt:initmon.obj
 0001:00078504       ?release@?$__crt_unique_heap_ptr@Ulconv@@U__crt_internal_free_policy@@@@QEAAXXZ 0000000180079504 f i libucrt:initmon.obj
 0001:00078528       __acrt_locale_free_monetary 0000000180079528 f   libucrt:initmon.obj
 0001:00078674       __acrt_locale_initialize_monetary 0000000180079674 f   libucrt:initmon.obj
 0001:00078d18       __acrt_locale_free_numeric 0000000180079d18 f   libucrt:initnum.obj
 0001:00078da0       __acrt_locale_initialize_numeric 0000000180079da0 f   libucrt:initnum.obj
 0001:00079180       ??$?RU__crt_lc_time_data@@@__crt_internal_free_policy@@QEBAXQEBU__crt_lc_time_data@@@Z 000000018007a180 f i libucrt:inittime.obj
 0001:000791d4       ??0?$__crt_unique_heap_ptr@U__crt_lc_time_data@@U__crt_internal_free_policy@@@@QEAA@QEAU__crt_lc_time_data@@@Z 000000018007a1d4 f i libucrt:inittime.obj
 0001:000791dc       ??1?$__crt_unique_heap_ptr@U__crt_lc_time_data@@U__crt_internal_free_policy@@@@QEAA@XZ 000000018007a1dc f i libucrt:inittime.obj
 0001:00079200       ??B?$__crt_unique_heap_ptr@U__crt_lc_time_data@@U__crt_internal_free_policy@@@@QEBA_NXZ 000000018007a200 f i libucrt:inittime.obj
 0001:0007920c       ?detach@?$__crt_unique_heap_ptr@U__crt_lc_time_data@@U__crt_internal_free_policy@@@@QEAAPEAU__crt_lc_time_data@@XZ 000000018007a20c f i libucrt:inittime.obj
 0001:00079258       ?get@?$__crt_unique_heap_ptr@U__crt_lc_time_data@@U__crt_internal_free_policy@@@@QEBAPEAU__crt_lc_time_data@@XZ 000000018007a258 f i libucrt:inittime.obj
 0001:00079708       ?is_valid@?$__crt_unique_heap_ptr@U__crt_lc_time_data@@U__crt_internal_free_policy@@@@QEBA_NXZ 000000018007a708 f i libucrt:inittime.obj
 0001:00079714       ?release@?$__crt_unique_heap_ptr@U__crt_lc_time_data@@U__crt_internal_free_policy@@@@QEAAXXZ 000000018007a714 f i libucrt:inittime.obj
 0001:00079738       __acrt_locale_free_time    000000018007a738 f   libucrt:inittime.obj
 0001:00079884       __acrt_locale_initialize_time 000000018007a884 f   libucrt:inittime.obj
 0001:00079a10       wcscat_s                   000000018007aa10 f   libucrt:wcscat_s.obj
 0001:00079c50       wcsncat_s                  000000018007ac50 f   libucrt:wcsncat_s.obj
 0001:00079de0       wcscspn                    000000018007ade0 f   libucrt:wcscspn.obj
 0001:0007a8c0       __acrt_get_qualified_locale 000000018007b8c0 f   libucrt:get_qualified_locale.obj
 0001:0007b6b0       __acrt_get_qualified_locale_downlevel 000000018007c6b0 f   libucrt:getqloc_downlevel.obj
 0001:0007b9d0       __acrt_GetStringTypeW      000000018007c9d0 f   libucrt:getstringtypew.obj
 0001:0007b9e0       ??_4@YAAEAW4__acrt_fenv_abstract_status@@AEAW40@W40@@Z 000000018007c9e0 f i libucrt:fegetexceptflag.obj
 0001:0007b9f0       fegetexceptflag            000000018007c9f0 f   libucrt:fegetexceptflag.obj
 0001:0007ba50       ??I@YA?AW4__acrt_fenv_abstract_status@@W40@0@Z 000000018007ca50 f i libucrt:fesetexceptflag.obj
 0001:0007ba60       ??S@YA?AW4__acrt_fenv_abstract_status@@W40@@Z 000000018007ca60 f i libucrt:fesetexceptflag.obj
 0001:0007ba70       ??_5@YAAEAW4__acrt_fenv_abstract_status@@AEAW40@W40@@Z 000000018007ca70 f i libucrt:fesetexceptflag.obj
 0001:0007ba80       fesetexceptflag            000000018007ca80 f   libucrt:fesetexceptflag.obj
 0001:0007bb20       _decomp                    000000018007cb20 f i libucrt:frexp.obj
 0001:0007bc60       _set_exp                   000000018007cc60 f i libucrt:frexp.obj
 0001:0007bca0       _sptype                    000000018007cca0 f i libucrt:frexp.obj
 0001:0007bd40       frexp                      000000018007cd40 f   libucrt:frexp.obj
 0001:0007bf90       ??$__acrt_fenv_shift_bits@W4__acrt_fenv_abstract_control@@@@YA?AW4__acrt_fenv_abstract_control@@W40@0I@Z 000000018007cf90 f i libucrt:_fenvutils.obj
 0001:0007bfa0       ??$__acrt_fenv_shift_bits@W4__acrt_fenv_abstract_status@@@@YA?AW4__acrt_fenv_abstract_status@@W40@0I@Z 000000018007cfa0 f i libucrt:_fenvutils.obj
 0001:0007bfb0       ??$__acrt_fenv_translate_bit@W4__acrt_fenv_abstract_control@@W4__acrt_fenv_machine_sse_control@@@@YA?AW4__acrt_fenv_abstract_control@@W4__acrt_fenv_machine_sse_control@@0W40@1@Z 000000018007cfb0 f i libucrt:_fenvutils.obj
 0001:0007bfc0       ??$__acrt_fenv_translate_bit@W4__acrt_fenv_abstract_status@@W4__acrt_fenv_machine_sse_status@@@@YA?AW4__acrt_fenv_abstract_status@@W4__acrt_fenv_machine_sse_status@@0W40@1@Z 000000018007cfc0 f i libucrt:_fenvutils.obj
 0001:0007bfd0       ??$__acrt_fenv_translate_bit@W4__acrt_fenv_machine_sse_control@@W4__acrt_fenv_abstract_control@@@@YA?AW4__acrt_fenv_machine_sse_control@@W4__acrt_fenv_abstract_control@@0W40@1@Z 000000018007cfd0 f i libucrt:_fenvutils.obj
 0001:0007bfe0       ??$__acrt_fenv_translate_bit@W4__acrt_fenv_machine_sse_status@@W4__acrt_fenv_abstract_status@@@@YA?AW4__acrt_fenv_machine_sse_status@@W4__acrt_fenv_abstract_status@@0W40@1@Z 000000018007cfe0 f i libucrt:_fenvutils.obj
 0001:0007bff0       ??$__acrt_fenv_unshift_bits@W4__acrt_fenv_abstract_control@@@@YA?AW4__acrt_fenv_abstract_control@@W40@0I@Z 000000018007cff0 f i libucrt:_fenvutils.obj
 0001:0007c000       ??$__acrt_fenv_unshift_bits@W4__acrt_fenv_abstract_status@@@@YA?AW4__acrt_fenv_abstract_status@@W40@0I@Z 000000018007d000 f i libucrt:_fenvutils.obj
 0001:0007c280       ??I@YA?AW4__acrt_fenv_abstract_control@@W40@0@Z 000000018007d280 f i libucrt:_fenvutils.obj
 0001:0007c290       ??I@YA?AW4__acrt_fenv_machine_sse_control@@W40@0@Z 000000018007d290 f i libucrt:_fenvutils.obj
 0001:0007c2a0       ??I@YA?AW4__acrt_fenv_machine_sse_status@@W40@0@Z 000000018007d2a0 f i libucrt:_fenvutils.obj
 0001:0007c2b0       ??U@YA?AW4__acrt_fenv_abstract_control@@W40@0@Z 000000018007d2b0 f i libucrt:_fenvutils.obj
 0001:0007c2c0       ??U@YA?AW4__acrt_fenv_abstract_status@@W40@0@Z 000000018007d2c0 f i libucrt:_fenvutils.obj
 0001:0007c2d0       ??U@YA?AW4__acrt_fenv_machine_sse_control@@W40@0@Z 000000018007d2d0 f i libucrt:_fenvutils.obj
 0001:0007c2e0       ??_5@YAAEAW4__acrt_fenv_abstract_control@@AEAW40@W40@@Z 000000018007d2e0 f i libucrt:_fenvutils.obj
 0001:0007c2f0       ??_5@YAAEAW4__acrt_fenv_machine_sse_control@@AEAW40@W40@@Z 000000018007d2f0 f i libucrt:_fenvutils.obj
 0001:0007c300       ??_5@YAAEAW4__acrt_fenv_machine_sse_status@@AEAW40@W40@@Z 000000018007d300 f i libucrt:_fenvutils.obj
 0001:0007c310       ?__acrt_fenv_shift_abstract_sse_control@@YA?AW4__acrt_fenv_abstract_control@@W41@@Z 000000018007d310 f i libucrt:_fenvutils.obj
 0001:0007c330       ?__acrt_fenv_shift_abstract_sse_status@@YA?AW4__acrt_fenv_abstract_status@@W41@@Z 000000018007d330 f i libucrt:_fenvutils.obj
 0001:0007c340       ?__acrt_fenv_unshift_abstract_sse_control@@YA?AW4__acrt_fenv_abstract_control@@W41@@Z 000000018007d340 f i libucrt:_fenvutils.obj
 0001:0007c360       ?__acrt_fenv_unshift_abstract_sse_status@@YA?AW4__acrt_fenv_abstract_status@@W41@@Z 000000018007d360 f i libucrt:_fenvutils.obj
 0001:0007c710       __acrt_fenv_expand_round_control 000000018007d710 f   libucrt:_fenvutils.obj
 0001:0007c730       __acrt_fenv_get_common_round_control 000000018007d730 f   libucrt:_fenvutils.obj
 0001:0007c740       __acrt_fenv_get_control    000000018007d740 f   libucrt:_fenvutils.obj
 0001:0007c850       __acrt_fenv_get_fp_status_word_from_exception_mask 000000018007d850 f   libucrt:_fenvutils.obj
 0001:0007c860       __acrt_fenv_get_status     000000018007d860 f   libucrt:_fenvutils.obj
 0001:0007c8d0       __acrt_fenv_set_control    000000018007d8d0 f   libucrt:_fenvutils.obj
 0001:0007ca50       __acrt_fenv_set_status     000000018007da50 f   libucrt:_fenvutils.obj
 0001:0007cae0       _guard_check_icall         000000018007dae0 f i libucrt:checkcfg.obj
 0001:0007cb00       __strncnt                  000000018007db00 f   libucrt:strncnt.obj
 0001:0007cb1c       __acrt_CompareStringW      000000018007db1c f   libucrt:comparestringw.obj
 0001:0007cc50       __ascii_wcsnicmp           000000018007dc50 f   libucrt:wcsnicmp.obj
 0001:0007ccd0       _towlower_fast_internal    000000018007dcd0 f i libucrt:wcsnicmp.obj
 0001:0007cd00       _towlower_internal         000000018007dd00 f i libucrt:wcsnicmp.obj
 0001:0007cd50       _wcsnicmp                  000000018007dd50 f   libucrt:wcsnicmp.obj
 0001:0007cd80       _wcsnicmp_l                000000018007dd80 f   libucrt:wcsnicmp.obj
 0001:0007d020       __ascii_strnicmp           000000018007e020 f   libucrt:strnicmp.obj
 0001:0007d0a0       _strnicmp                  000000018007e0a0 f   libucrt:strnicmp.obj
 0001:0007d150       _strnicmp_l                000000018007e150 f   libucrt:strnicmp.obj
 0001:0007d774       __acrt_CompareStringA      000000018007e774 f   libucrt:comparestringa.obj
 0001:0007d930       __acrt_report_runtime_error 000000018007e930 f   libucrt:report_runtime_error.obj
 0001:0007dae4       _query_app_type            000000018007eae4 f   libucrt:report_runtime_error.obj
 0001:0007daec       _set_app_type              000000018007eaec f   libucrt:report_runtime_error.obj
 0001:0007e094       _lseek                     000000018007f094 f   libucrt:lseek.obj
 0001:0007e154       _lseek_internal            000000018007f154 f   libucrt:lseek.obj
 0001:0007e15c       _lseek_nolock              000000018007f15c f   libucrt:lseek.obj
 0001:0007e21c       _lseek_nolock_internal     000000018007f21c f   libucrt:lseek.obj
 0001:0007e224       _lseeki64                  000000018007f224 f   libucrt:lseek.obj
 0001:0007e2e4       _lseeki64_internal         000000018007f2e4 f   libucrt:lseek.obj
 0001:0007e2ec       _lseeki64_nolock           000000018007f2ec f   libucrt:lseek.obj
 0001:0007e3ac       _lseeki64_nolock_internal  000000018007f3ac f   libucrt:lseek.obj
 0001:0007e474       _putwch                    000000018007f474 f   libucrt:putwch.obj
 0001:0007e4c0       _putwch_nolock             000000018007f4c0 f   libucrt:putwch.obj
 0001:0007e510       _putwch_nolock_internal    000000018007f510 f   libucrt:putwch.obj
 0001:0007eed0       _read                      000000018007fed0 f   libucrt:read.obj
 0001:0007f038       _read_nolock               0000000180080038 f   libucrt:read.obj
 0001:0007f718       _fclose_nolock             0000000180080718 f   libucrt:fclose.obj
 0001:0007f7d8       fclose                     00000001800807d8 f   libucrt:fclose.obj
 0001:0007f8a0       _controlfp_s               00000001800808a0 f   libucrt:contrlfp.obj
 0001:0007f930       fegetenv                   0000000180080930 f   libucrt:fegetenv.obj
 0001:0007f960       fesetenv                   0000000180080960 f   libucrt:fesetenv.obj
 0001:0007f9e0       feholdexcept               00000001800809e0 f   libucrt:feholdexcept.obj
 0001:0007fa50       ceil                       0000000180080a50 f   libucrt:ceil.obj
 0001:0007fb50       log10                      0000000180080b50 f   libucrt:log10.obj
 0001:00080444       __acrt_GetLocaleInfoA      0000000180081444 f   libucrt:getlocaleinfoa.obj
 0001:00080680       __acrt_stdio_allocate_buffer_nolock 0000000180081680 f   libucrt:_getbuf.obj
 0001:00080d20       _i64toa                    0000000180081d20 f   libucrt:xtoa.obj
 0001:00080d60       _i64toa_s                  0000000180081d60 f   libucrt:xtoa.obj
 0001:00080d8c       _i64tow                    0000000180081d8c f   libucrt:xtoa.obj
 0001:00080dcc       _i64tow_s                  0000000180081dcc f   libucrt:xtoa.obj
 0001:00080df8       _itoa                      0000000180081df8 f   libucrt:xtoa.obj
 0001:00080e34       _itoa_s                    0000000180081e34 f   libucrt:xtoa.obj
 0001:00080e5c       _itow                      0000000180081e5c f   libucrt:xtoa.obj
 0001:00080e98       _itow_s                    0000000180081e98 f   libucrt:xtoa.obj
 0001:00080ec0       _ltoa                      0000000180081ec0 f   libucrt:xtoa.obj
 0001:00080efc       _ltoa_s                    0000000180081efc f   libucrt:xtoa.obj
 0001:00080f24       _ltow                      0000000180081f24 f   libucrt:xtoa.obj
 0001:00080f60       _ltow_s                    0000000180081f60 f   libucrt:xtoa.obj
 0001:00080f88       _ui64toa                   0000000180081f88 f   libucrt:xtoa.obj
 0001:00080fb4       _ui64toa_s                 0000000180081fb4 f   libucrt:xtoa.obj
 0001:00080fcc       _ui64tow                   0000000180081fcc f   libucrt:xtoa.obj
 0001:00080ff8       _ui64tow_s                 0000000180081ff8 f   libucrt:xtoa.obj
 0001:00081010       _ultoa                     0000000180082010 f   libucrt:xtoa.obj
 0001:0008103c       _ultoa_s                   000000018008203c f   libucrt:xtoa.obj
 0001:00081054       _ultow                     0000000180082054 f   libucrt:xtoa.obj
 0001:00081080       _ultow_s                   0000000180082080 f   libucrt:xtoa.obj
 0001:000810e0       __ascii_wcsicmp            00000001800820e0 f   libucrt:wcsicmp.obj
 0001:00081150       _wcsicmp                   0000000180082150 f   libucrt:wcsicmp.obj
 0001:00081180       _wcsicmp_l                 0000000180082180 f   libucrt:wcsicmp.obj
 0001:000813c0       wcscmp                     00000001800823c0 f   libucrt:wcscmpc.obj
 0001:00081410       fetestexcept               0000000180082410 f   libucrt:fetestexcept.obj
 0001:00081440       _towlower_l                0000000180082440 f   libucrt:towlower.obj
 0001:00081578       towlower                   0000000180082578 f   libucrt:towlower.obj
 0001:00081580       _set_error_mode            0000000180082580 f   libucrt:set_error_mode.obj
 0001:00081770       ??$message_box@$$TAEBQEBDAEBQEBDK@?$__crt_char_traits@D@@SAH$$QEA$$TAEBQEBD1$$QEAK@Z 0000000180082770 f i libucrt:crtmbox.obj
 0001:00081788       ??$message_box@$$TAEBQEB_WAEBQEB_WK@?$__crt_char_traits@_W@@SAH$$QEA$$TAEBQEB_W1$$QEAK@Z 0000000180082788 f i libucrt:crtmbox.obj
 0001:000817a0       ??$message_box@PEAUHWND__@@AEBQEBDAEBQEBDAEBI@?$__crt_char_traits@D@@SAH$$QEAPEAUHWND__@@AEBQEBD1AEBI@Z 00000001800827a0 f i libucrt:crtmbox.obj
 0001:000817b8       ??$message_box@PEAUHWND__@@AEBQEB_WAEBQEB_WAEBI@?$__crt_char_traits@_W@@SAH$$QEAPEAUHWND__@@AEBQEB_W1AEBI@Z 00000001800827b8 f i libucrt:crtmbox.obj
 0001:000817d0       ??$output_debug_string@AEBQEBD@?$__crt_char_traits@D@@SAXAEBQEBD@Z 00000001800827d0 f i libucrt:crtmbox.obj
 0001:000817dc       ??$output_debug_string@AEBQEB_W@?$__crt_char_traits@_W@@SAXAEBQEB_W@Z 00000001800827dc f i libucrt:crtmbox.obj
 0001:000817e8       __acrt_show_narrow_message_box 00000001800827e8 f   libucrt:crtmbox.obj
 0001:000818b4       __acrt_show_wide_message_box 00000001800828b4 f   libucrt:crtmbox.obj
 0001:00081aec       __dcrt_lowio_ensure_console_output_initialized 0000000180082aec f   libucrt:initcon.obj
 0001:00081b54       __dcrt_terminate_console_output 0000000180082b54 f   libucrt:initcon.obj
 0001:00081b78       __dcrt_write_console       0000000180082b78 f   libucrt:initcon.obj
 0001:00081e5c       _close                     0000000180082e5c f   libucrt:close.obj
 0001:00081f1c       _close_internal            0000000180082f1c f   libucrt:close.obj
 0001:00082010       _close_nolock              0000000180083010 f   libucrt:close.obj
 0001:000820d0       _close_nolock_internal     00000001800830d0 f   libucrt:close.obj
 0001:000821d0       ??$?RU__crt_stdio_stream_data@@@__crt_internal_free_policy@@QEBAXQEBU__crt_stdio_stream_data@@@Z 00000001800831d0 f i libucrt:stream.obj
 0001:000821dc       ??0?$__crt_unique_heap_ptr@U__crt_stdio_stream_data@@U__crt_internal_free_policy@@@@QEAA@QEAU__crt_stdio_stream_data@@@Z 00000001800831dc f i libucrt:stream.obj
 0001:000821e4       ??0__crt_stdio_stream@@QEAA@XZ 00000001800831e4 f i libucrt:stream.obj
 0001:000821f0       ??1?$__crt_unique_heap_ptr@U__crt_stdio_stream_data@@U__crt_internal_free_policy@@@@QEAA@XZ 00000001800831f0 f i libucrt:stream.obj
 0001:00082214       ?__acrt_stdio_allocate_stream@@YA?AV__crt_stdio_stream@@XZ 0000000180083214 f   libucrt:stream.obj
 0001:00082280       ?__acrt_stdio_free_stream@@YAXV__crt_stdio_stream@@@Z 0000000180083280 f   libucrt:stream.obj
 0001:000822a4       ?deallocate@__crt_stdio_stream@@QEAAXXZ 00000001800832a4 f i libucrt:stream.obj
 0001:000822b0       ?detach@?$__crt_unique_heap_ptr@U__crt_stdio_stream_data@@U__crt_internal_free_policy@@@@QEAAPEAU__crt_stdio_stream_data@@XZ 00000001800832b0 f i libucrt:stream.obj
 0001:000823e0       ?lock@__crt_stdio_stream@@QEBAXXZ 00000001800833e0 f i libucrt:stream.obj
 0001:000823ec       ?release@?$__crt_unique_heap_ptr@U__crt_stdio_stream_data@@U__crt_internal_free_policy@@@@QEAAXXZ 00000001800833ec f i libucrt:stream.obj
 0001:00082410       ?try_allocate@__crt_stdio_stream@@QEAA_NXZ 0000000180083410 f i libucrt:stream.obj
 0001:00082438       ?unlock@__crt_stdio_stream@@QEBAXXZ 0000000180083438 f i libucrt:stream.obj
 0001:000825b0       _clearfp                   00000001800835b0 f   libucrt:ieee.obj
 0001:00082630       _control87                 0000000180083630 f   libucrt:ieee.obj
 0001:00082640       _controlfp                 0000000180083640 f   libucrt:ieee.obj
 0001:00082650       _fpreset                   0000000180083650 f   libucrt:ieee.obj
 0001:00082750       _set_controlfp             0000000180083750 f   libucrt:ieee.obj
 0001:00082790       _statusfp                  0000000180083790 f   libucrt:ieee.obj
 0001:00082b40       _log10_special             0000000180083b40 f   libucrt:log_special.obj
 0001:00082b70       _log10f_special            0000000180083b70 f   libucrt:log_special.obj
 0001:00082ba0       _log_special               0000000180083ba0 f   libucrt:log_special.obj
 0001:00082c90       _logf_special              0000000180083c90 f   libucrt:log_special.obj
 0001:00082d8c       __acrt_LCMapStringW        0000000180083d8c f   libucrt:lcmapstringw.obj
 0001:00082e34       __acrt_OutputDebugStringA  0000000180083e34 f   libucrt:outputdebugstringa.obj
 0001:000832dc       _mbstowcs_l                00000001800842dc f   libucrt:mbstowcs.obj
 0001:000833ac       _mbstowcs_s_l              00000001800843ac f   libucrt:mbstowcs.obj
 0001:00083490       mbstowcs                   0000000180084490 f   libucrt:mbstowcs.obj
 0001:00083550       mbstowcs_s                 0000000180084550 f   libucrt:mbstowcs.obj
 0001:00083630       _FindPESection             0000000180084630 f   LIBCMT:pesect.obj
 0001:00083690       _IsNonwritableInCurrentImage 0000000180084690 f   LIBCMT:pesect.obj
 0001:000836f0       _ValidateImageBase         00000001800846f0 f   LIBCMT:pesect.obj
 0001:00083728       ??1type_info@@UEAA@XZ      0000000180084728 f   LIBCMT:std_type_info_static.obj
 0001:00083738       ??_Etype_info@@UEAAPEAXI@Z 0000000180084738 f i LIBCMT:std_type_info_static.obj
 0001:00083738       ??_Gtype_info@@UEAAPEAXI@Z 0000000180084738 f i LIBCMT:std_type_info_static.obj
 0001:00083770       ??3@YAXPEAX_K@Z            0000000180084770 f   LIBCMT:delete_scalar_size.obj
 0001:00083778       __GSHandlerCheck_SEH       0000000180084778 f   LIBCMT:gshandlerseh.obj
 0001:00083820       __GSHandlerCheck_EH        0000000180084820 f   LIBCMT:gshandlereh.obj
 0001:000838c0       ??3@YAXPEAX@Z              00000001800848c0 f   LIBCMT:delete_scalar.obj
 0001:000838c5       RtlUnwindEx                00000001800848c5 f   kernel32:KERNEL32.dll
 0001:000838cb       InterlockedPushEntrySList  00000001800848cb f   kernel32:KERNEL32.dll
 0001:000838d1       InterlockedFlushSList      00000001800848d1 f   kernel32:KERNEL32.dll
 0001:000838d7       GetLastError               00000001800848d7 f   kernel32:KERNEL32.dll
 0001:000838dd       SetLastError               00000001800848dd f   kernel32:KERNEL32.dll
 0001:000838e3       EnterCriticalSection       00000001800848e3 f   kernel32:KERNEL32.dll
 0001:000838e9       LeaveCriticalSection       00000001800848e9 f   kernel32:KERNEL32.dll
 0001:000838ef       DeleteCriticalSection      00000001800848ef f   kernel32:KERNEL32.dll
 0001:000838f5       InitializeCriticalSectionAndSpinCount 00000001800848f5 f   kernel32:KERNEL32.dll
 0001:000838fb       TlsAlloc                   00000001800848fb f   kernel32:KERNEL32.dll
 0001:00083901       TlsGetValue                0000000180084901 f   kernel32:KERNEL32.dll
 0001:00083907       TlsSetValue                0000000180084907 f   kernel32:KERNEL32.dll
 0001:0008390d       TlsFree                    000000018008490d f   kernel32:KERNEL32.dll
 0001:00083913       FreeLibrary                0000000180084913 f   kernel32:KERNEL32.dll
 0001:00083919       GetProcAddress             0000000180084919 f   kernel32:KERNEL32.dll
 0001:0008391f       LoadLibraryExW             000000018008491f f   kernel32:KERNEL32.dll
 0001:00083925       EncodePointer              0000000180084925 f   kernel32:KERNEL32.dll
 0001:0008392b       RaiseException             000000018008492b f   kernel32:KERNEL32.dll
 0001:00083931       RtlPcToFileHeader          0000000180084931 f   kernel32:KERNEL32.dll
 0001:00083937       ExitProcess                0000000180084937 f   kernel32:KERNEL32.dll
 0001:0008393d       GetModuleHandleExW         000000018008493d f   kernel32:KERNEL32.dll
 0001:00083943       GetModuleFileNameW         0000000180084943 f   kernel32:KERNEL32.dll
 0001:00083949       GetCurrentThread           0000000180084949 f   kernel32:KERNEL32.dll
 0001:0008394f       HeapAlloc                  000000018008494f f   kernel32:KERNEL32.dll
 0001:00083955       HeapFree                   0000000180084955 f   kernel32:KERNEL32.dll
 0001:0008395b       FindClose                  000000018008495b f   kernel32:KERNEL32.dll
 0001:00083961       FindFirstFileExW           0000000180084961 f   kernel32:KERNEL32.dll
 0001:00083967       FindNextFileW              0000000180084967 f   kernel32:KERNEL32.dll
 0001:0008396d       IsValidCodePage            000000018008496d f   kernel32:KERNEL32.dll
 0001:00083973       GetACP                     0000000180084973 f   kernel32:KERNEL32.dll
 0001:00083979       GetOEMCP                   0000000180084979 f   kernel32:KERNEL32.dll
 0001:0008397f       GetCPInfo                  000000018008497f f   kernel32:KERNEL32.dll
 0001:00083985       GetCommandLineA            0000000180084985 f   kernel32:KERNEL32.dll
 0001:0008398b       GetCommandLineW            000000018008498b f   kernel32:KERNEL32.dll
 0001:00083991       MultiByteToWideChar        0000000180084991 f   kernel32:KERNEL32.dll
 0001:00083997       WideCharToMultiByte        0000000180084997 f   kernel32:KERNEL32.dll
 0001:0008399d       GetEnvironmentStringsW     000000018008499d f   kernel32:KERNEL32.dll
 0001:000839a3       FreeEnvironmentStringsW    00000001800849a3 f   kernel32:KERNEL32.dll
 0001:000839a9       SetEnvironmentVariableW    00000001800849a9 f   kernel32:KERNEL32.dll
 0001:000839af       GetTempPathW               00000001800849af f   kernel32:KERNEL32.dll
 0001:000839b5       FlsAlloc                   00000001800849b5 f   kernel32:KERNEL32.dll
 0001:000839bb       FlsGetValue                00000001800849bb f   kernel32:KERNEL32.dll
 0001:000839c1       FlsSetValue                00000001800849c1 f   kernel32:KERNEL32.dll
 0001:000839c7       FlsFree                    00000001800849c7 f   kernel32:KERNEL32.dll
 0001:000839cd       IsThreadAFiber             00000001800849cd f   kernel32:KERNEL32.dll
 0001:000839d3       InitializeCriticalSectionEx 00000001800849d3 f   kernel32:KERNEL32.dll
 0001:000839d9       VirtualProtect             00000001800849d9 f   kernel32:KERNEL32.dll
 0001:000839df       GetDateFormatW             00000001800849df f   kernel32:KERNEL32.dll
 0001:000839e5       GetTimeFormatW             00000001800849e5 f   kernel32:KERNEL32.dll
 0001:000839eb       CompareStringW             00000001800849eb f   kernel32:KERNEL32.dll
 0001:000839f1       LCMapStringW               00000001800849f1 f   kernel32:KERNEL32.dll
 0001:000839f7       GetLocaleInfoW             00000001800849f7 f   kernel32:KERNEL32.dll
 0001:000839fd       IsValidLocale              00000001800849fd f   kernel32:KERNEL32.dll
 0001:00083a03       GetUserDefaultLCID         0000000180084a03 f   kernel32:KERNEL32.dll
 0001:00083a09       EnumSystemLocalesW         0000000180084a09 f   kernel32:KERNEL32.dll
 0001:00083a0f       GetProcessHeap             0000000180084a0f f   kernel32:KERNEL32.dll
 0001:00083a15       GetStdHandle               0000000180084a15 f   kernel32:KERNEL32.dll
 0001:00083a1b       GetFileType                0000000180084a1b f   kernel32:KERNEL32.dll
 0001:00083a21       SetConsoleCtrlHandler      0000000180084a21 f   kernel32:KERNEL32.dll
 0001:00083a27       GetStringTypeW             0000000180084a27 f   kernel32:KERNEL32.dll
 0001:00083a2d       HeapSize                   0000000180084a2d f   kernel32:KERNEL32.dll
 0001:00083a33       HeapReAlloc                0000000180084a33 f   kernel32:KERNEL32.dll
 0001:00083a39       SetStdHandle               0000000180084a39 f   kernel32:KERNEL32.dll
 0001:00083a3f       FlushFileBuffers           0000000180084a3f f   kernel32:KERNEL32.dll
 0001:00083a45       WriteFile                  0000000180084a45 f   kernel32:KERNEL32.dll
 0001:00083a4b       GetConsoleOutputCP         0000000180084a4b f   kernel32:KERNEL32.dll
 0001:00083a51       GetConsoleMode             0000000180084a51 f   kernel32:KERNEL32.dll
 0001:00083a57       GetFileSizeEx              0000000180084a57 f   kernel32:KERNEL32.dll
 0001:00083a5d       SetFilePointerEx           0000000180084a5d f   kernel32:KERNEL32.dll
 0001:00083a63       ReadFile                   0000000180084a63 f   kernel32:KERNEL32.dll
 0001:00083a69       ReadConsoleW               0000000180084a69 f   kernel32:KERNEL32.dll
 0001:00083a6f       OutputDebugStringW         0000000180084a6f f   kernel32:KERNEL32.dll
 0001:00083a75       CreateFileW                0000000180084a75 f   kernel32:KERNEL32.dll
 0001:00083a7b       CloseHandle                0000000180084a7b f   kernel32:KERNEL32.dll
 0001:00083a81       WriteConsoleW              0000000180084a81 f   kernel32:KERNEL32.dll
 0001:00083a88       __C_specific_handler_noexcept 0000000180084a88 f   libvcruntime:chandler_noexcept.obj
 0001:00083ae8       strchr                     0000000180084ae8 f   libvcruntime:strchr.obj
 0001:00083b84       wcschr                     0000000180084b84 f   libvcruntime:wcschr.obj
 0001:00083c1c       strrchr                    0000000180084c1c f   libvcruntime:strrchr.obj
 0001:00083da8       _local_unwind              0000000180084da8 f   libvcruntime:jmpuwind.obj
 0001:00083de0       RtlUnwind                  0000000180084de0 f   kernel32:KERNEL32.dll
 0001:00087500       _guard_dispatch_icall_nop  0000000180088500 f   LIBCMT:guard_dispatch.obj
 0001:00087520       _guard_xfg_dispatch_icall_nop 0000000180088520 f   LIBCMT:guard_xfg_dispatch.obj
 0001:00087550       _guard_dispatch_icall      0000000180088550 f   libucrt:dispatchcfg.obj
 0001:00087550       _guard_dispatch_icall_$fo_default$ 0000000180088550     libucrt:dispatchcfg.obj
 0001:00088590       memset_repstos             0000000180089590 f   libvcruntime:memset.obj
 0001:000885b0       memset                     00000001800895b0 f   libvcruntime:memset.obj
 0001:00088a50       memcpy_repmovs             0000000180089a50 f   libvcruntime:memcpy.obj
 0001:00088a70       memcpy                     0000000180089a70 f   libvcruntime:memcpy.obj
 0001:00088a70       memcpy_$fo_default$        0000000180089a70     libvcruntime:memcpy.obj
 0001:00088a70       memmove                    0000000180089a70 f   libvcruntime:memcpy.obj
 0001:00089290       strncmp                    000000018008a290 f   libucrt:strncmp.obj
 0001:00089350       memcmp                     000000018008a350 f   libvcruntime:memcmp.obj
 0002:00000000       __xc_a                     000000018008e000     LIBCMT:initializers.obj
 0002:00000110       __xc_z                     000000018008e110     LIBCMT:initializers.obj
 0002:00000220       __xi_a                     000000018008e220     LIBCMT:initializers.obj
 0002:00000330       __acrt_tran_fma3_initializer 000000018008e330     libucrt:fma3_initializer.obj
 0002:00000340       __acrt_multibyte_initializer 000000018008e340     libucrt:multibyte_initializer.obj
 0002:00000350       __acrt_stdio_initializer   000000018008e350     libucrt:stdio_initializer.obj
 0002:00000460       __xi_z                     000000018008e460     LIBCMT:initializers.obj
 0002:00000570       __xp_a                     000000018008e570     LIBCMT:initializers.obj
 0002:00000680       __acrt_locale_terminator   000000018008e680     libucrt:locale_initializer.obj
 0002:00000690       __dcrt_console_output_terminator 000000018008e690     libucrt:console_output_initializer.obj
 0002:000007a0       __acrt_stdio_terminator    000000018008e7a0     libucrt:stdio_initializer.obj
 0002:000008b0       __xp_z                     000000018008e8b0     LIBCMT:initializers.obj
 0002:000009c0       __xt_a                     000000018008e9c0     LIBCMT:initializers.obj
 0002:00000ad0       __xt_z                     000000018008ead0     LIBCMT:initializers.obj
 0002:00000d20       __real@00000000            000000018008ed20     apart.obj
 0002:00000d24       __real@38d1b717            000000018008ed24     apart.obj
 0002:00000d28       __real@3f000000            000000018008ed28     apart.obj
 0002:00000d2c       __real@3f0000a8            000000018008ed2c     apart.obj
 0002:00000d30       __real@3f400000            000000018008ed30     apart.obj
 0002:00000d34       __real@3f800000            000000018008ed34     apart.obj
 0002:00000d38       __real@3fb33333            000000018008ed38     apart.obj
 0002:00000d3c       __real@40000000            000000018008ed3c     apart.obj
 0002:00000d40       __real@4000000000000000    000000018008ed40     apart.obj
 0002:00000d4c       __real@40a00000            000000018008ed4c     apart.obj
 0002:00000d50       __real@40c00000            000000018008ed50     apart.obj
 0002:00000d54       __real@41100000            000000018008ed54     apart.obj
 0002:00000d58       __real@41900000            000000018008ed58     apart.obj
 0002:00000d5c       __real@42700000            000000018008ed5c     apart.obj
 0002:00000d60       __real@42b40000            000000018008ed60     apart.obj
 0002:00000d64       __real@437f0000            000000018008ed64     apart.obj
 0002:00000d68       __real@bf000000            000000018008ed68     apart.obj
 0002:00000d6c       __real@bf00068e            000000018008ed6c     apart.obj
 0002:00000d70       __real@bf800000            000000018008ed70     apart.obj
 0002:00000d74       __real@c0e00000            000000018008ed74     apart.obj
 0002:00000d78       __real@c1f00000            000000018008ed78     apart.obj
 0002:00000d80       __xmm@80000000800000008000000080000000 000000018008ed80     apart.obj
 0002:00000d98       _pDefaultRawDllMain        000000018008ed98     LIBCMT:dll_dllmain.obj
 0002:00000d98       _pRawDllMain               000000018008ed98     LIBCMT:dll_dllmain.obj
 0002:00000dc0       __xmm@ffffffffffffffffffffffffffffffff 000000018008edc0     LIBCMT:utility.obj
 0002:00000dd8       _pDestructExceptionObject  000000018008edd8     libvcruntime:ehhelpers.obj
 0002:00001670       ??_C@_08EHJDFFNH@__based?$CI@ 000000018008f670     libvcruntime:undname.obj
 0002:00001680       ??_C@_07KOLFKCDI@__cdecl@  000000018008f680     libvcruntime:undname.obj
 0002:00001690       ??_C@_08GHMPAG@__pascal@   000000018008f690     libvcruntime:undname.obj
 0002:000016a0       ??_C@_09IFJBGAPI@__stdcall@ 000000018008f6a0     libvcruntime:undname.obj
 0002:000016b0       ??_C@_0L@NPHFGOKO@__thiscall@ 000000018008f6b0     libvcruntime:undname.obj
 0002:000016c0       ??_C@_0L@JMKHOMEK@__fastcall@ 000000018008f6c0     libvcruntime:undname.obj
 0002:000016d0       ??_C@_0N@BCKKPABJ@__vectorcall@ 000000018008f6d0     libvcruntime:undname.obj
 0002:000016e0       ??_C@_09HIJEGCPM@__clrcall@ 000000018008f6e0     libvcruntime:undname.obj
 0002:000016ec       ??_C@_06GHPCKEAG@__eabi@   000000018008f6ec     libvcruntime:undname.obj
 0002:000016f8       ??_C@_09IOPIDJLG@__swift_1@ 000000018008f6f8     libvcruntime:undname.obj
 0002:00001708       ??_C@_09KFNFGKHF@__swift_2@ 000000018008f708     libvcruntime:undname.obj
 0002:00001718       ??_C@_09LMMOFLDE@__swift_3@ 000000018008f718     libvcruntime:undname.obj
 0002:00001728       ??_C@_07JOMMBBKO@__ptr64@  000000018008f728     libvcruntime:undname.obj
 0002:00001738       ??_C@_0L@PILCLIHE@__restrict@ 000000018008f738     libvcruntime:undname.obj
 0002:00001748       ??_C@_0M@GFIIJFMG@__unaligned@ 000000018008f748     libvcruntime:undname.obj
 0002:00001758       ??_C@_09DHDLOLLB@restrict?$CI@ 000000018008f758     libvcruntime:undname.obj
 0002:00001764       ??_C@_00CNPNBAHC@@         000000018008f764     libvcruntime:undname.obj
 0002:00001768       ??_C@_04NIHEBCM@?5new@     000000018008f768     libvcruntime:undname.obj
 0002:00001770       ??_C@_07FPCDHGMM@?5delete@ 000000018008f770     libvcruntime:undname.obj
 0002:0000177c       ??_C@_01NEMOKFLO@?$DN@     000000018008f77c     libvcruntime:undname.obj
 0002:00001780       ??_C@_02GPIOPFAK@?$DO?$DO@ 000000018008f780     libvcruntime:undname.obj
 0002:00001784       ??_C@_02FODMEDOG@?$DM?$DM@ 000000018008f784     libvcruntime:undname.obj
 0002:00001788       ??_C@_01DCLJPIOD@?$CB@     000000018008f788     libvcruntime:undname.obj
 0002:0000178c       ??_C@_02EGOFBIJA@?$DN?$DN@ 000000018008f78c     libvcruntime:undname.obj
 0002:00001790       ??_C@_02FDNJECIE@?$CB?$DN@ 000000018008f790     libvcruntime:undname.obj
 0002:00001794       ??_C@_02GPECMEKF@?$FL?$FN@ 000000018008f794     libvcruntime:undname.obj
 0002:00001798       ??_C@_08LHJFAFGD@operator@ 000000018008f798     libvcruntime:undname.obj
 0002:000017a4       ??_C@_02HBOOOICD@?9?$DO@   000000018008f7a4     libvcruntime:undname.obj
 0002:000017a8       ??_C@_01NBENCBCI@?$CK@     000000018008f7a8     libvcruntime:undname.obj
 0002:000017ac       ??_C@_02ECNGHCIF@?$CL?$CL@ 000000018008f7ac     libvcruntime:undname.obj
 0002:000017b0       ??_C@_02BAABKJLB@?9?9@     000000018008f7b0     libvcruntime:undname.obj
 0002:000017b4       ??_C@_01JOAMLHOP@?9@       000000018008f7b4     libvcruntime:undname.obj
 0002:000017b8       ??_C@_01MIFGBAGJ@?$CL@     000000018008f7b8     libvcruntime:undname.obj
 0002:000017bc       ??_C@_01HNPIGOCE@?$CG@     000000018008f7bc     libvcruntime:undname.obj
 0002:000017c0       ??_C@_03MNHNFDLC@?9?$DO?$CK@ 000000018008f7c0     libvcruntime:undname.obj
 0002:000017c4       ??_C@_01KMDKNFGN@?1@       000000018008f7c4     libvcruntime:undname.obj
 0002:000017c8       ??_C@_01FGNFDNOH@?$CF@     000000018008f7c8     libvcruntime:undname.obj
 0002:000017cc       ??_C@_01MNNFJEPP@?$DM@     000000018008f7cc     libvcruntime:undname.obj
 0002:000017d0       ??_C@_02EHCHHCKH@?$DM?$DN@ 000000018008f7d0     libvcruntime:undname.obj
 0002:000017d4       ??_C@_01PPODPGHN@?$DO@     000000018008f7d4     libvcruntime:undname.obj
 0002:000017d8       ??_C@_02EEKDKGMJ@?$DO?$DN@ 000000018008f7d8     libvcruntime:undname.obj
 0002:000017dc       ??_C@_01IHBHIGKO@?0@       000000018008f7dc     libvcruntime:undname.obj
 0002:000017e0       ??_C@_02HCKGKOFO@?$CI?$CJ@ 000000018008f7e0     libvcruntime:undname.obj
 0002:000017e4       ??_C@_01PJKLJHI@?$HO@      000000018008f7e4     libvcruntime:undname.obj
 0002:000017e8       ??_C@_01JKBOJNNK@?$FO@     000000018008f7e8     libvcruntime:undname.obj
 0002:000017ec       ??_C@_01DNKMNLPK@?$HM@     000000018008f7ec     libvcruntime:undname.obj
 0002:000017f0       ??_C@_02PPKAJPJL@?$CG?$CG@ 000000018008f7f0     libvcruntime:undname.obj
 0002:000017f4       ??_C@_02NONPIBCD@?$HM?$HM@ 000000018008f7f4     libvcruntime:undname.obj
 0002:000017f8       ??_C@_02FPIMKNGF@?$CK?$DN@ 000000018008f7f8     libvcruntime:undname.obj
 0002:000017fc       ??_C@_02FOEOMHFC@?$CL?$DN@ 000000018008f7fc     libvcruntime:undname.obj
 0002:00001800       ??_C@_02FKMDLLOA@?9?$DN@   000000018008f800     libvcruntime:undname.obj
 0002:00001804       ??_C@_02FJEHGPIO@?1?$DN@   000000018008f804     libvcruntime:undname.obj
 0002:00001808       ??_C@_02FENAOKFI@?$CF?$DN@ 000000018008f808     libvcruntime:undname.obj
 0002:0000180c       ??_C@_03IKFCCPFF@?$DO?$DO?$DN@ 000000018008f80c     libvcruntime:undname.obj
 0002:00001810       ??_C@_03CDNPDDLA@?$DM?$DM?$DN@ 000000018008f810     libvcruntime:undname.obj
 0002:00001814       ??_C@_02FGJGFEAB@?$CG?$DN@ 000000018008f814     libvcruntime:undname.obj
 0002:00001818       ??_C@_02DHLNPPGH@?$HM?$DN@ 000000018008f818     libvcruntime:undname.obj
 0002:0000181c       ??_C@_02MHEGNOJ@?$FO?$DN@  000000018008f81c     libvcruntime:undname.obj
 0002:00001820       ??_C@_09IFPLHPGF@?$GAvftable?8@ 000000018008f820     libvcruntime:undname.obj
 0002:00001830       ??_C@_09BLBHBJP@?$GAvbtable?8@ 000000018008f830     libvcruntime:undname.obj
 0002:00001840       ??_C@_07FEEIOKP@?$GAvcall?8@ 000000018008f840     libvcruntime:undname.obj
 0002:00001850       ??_C@_08LLFFHHDJ@?$GAtypeof?8@ 000000018008f850     libvcruntime:undname.obj
 0002:00001860       ??_C@_0BF@KDPPACIK@?$GAlocal?5static?5guard?8@ 000000018008f860     libvcruntime:undname.obj
 0002:00001880       ??_C@_08OBABFOLI@?$GAstring?8@ 000000018008f880     libvcruntime:undname.obj
 0002:00001890       ??_C@_0BD@JDLKDPAB@?$GAvbase?5destructor?8@ 000000018008f890     libvcruntime:undname.obj
 0002:000018a8       ??_C@_0BN@DEGPLNFK@?$GAvector?5deleting?5destructor?8@ 000000018008f8a8     libvcruntime:undname.obj
 0002:000018d0       ??_C@_0BO@OBMKPJIG@?$GAdefault?5constructor?5closure?8@ 000000018008f8d0     libvcruntime:undname.obj
 0002:000018f8       ??_C@_0BN@IMDCHIKM@?$GAscalar?5deleting?5destructor?8@ 000000018008f8f8     libvcruntime:undname.obj
 0002:00001920       ??_C@_0BO@PFGOCPJJ@?$GAvector?5constructor?5iterator?8@ 000000018008f920     libvcruntime:undname.obj
 0002:00001948       ??_C@_0BN@LFPFMEDL@?$GAvector?5destructor?5iterator?8@ 000000018008f948     libvcruntime:undname.obj
 0002:00001970       ??_C@_0CE@IKBNEHA@?$GAvector?5vbase?5constructor?5itera@ 000000018008f970     libvcruntime:undname.obj
 0002:000019a0       ??_C@_0BL@NILFHHPC@?$GAvirtual?5displacement?5map?8@ 000000018008f9a0     libvcruntime:undname.obj
 0002:000019c0       ??_C@_0CB@JONCMFFK@?$GAeh?5vector?5constructor?5iterator@ 000000018008f9c0     libvcruntime:undname.obj
 0002:000019e8       ??_C@_0CA@GCEOPDGL@?$GAeh?5vector?5destructor?5iterator?8@ 000000018008f9e8     libvcruntime:undname.obj
 0002:00001a10       ??_C@_0CH@OOJPLCPH@?$GAeh?5vector?5vbase?5constructor?5it@ 000000018008fa10     libvcruntime:undname.obj
 0002:00001a40       ??_C@_0BL@LLKPOHJI@?$GAcopy?5constructor?5closure?8@ 000000018008fa40     libvcruntime:undname.obj
 0002:00001a60       ??_C@_0BA@KBCDOMBN@?$GAudt?5returning?8@ 000000018008fa60     libvcruntime:undname.obj
 0002:00001a74       ??_C@_03KLGMFNMG@?$GAEH@   000000018008fa74     libvcruntime:undname.obj
 0002:00001a78       ??_C@_05KHLCHHI@?$GARTTI@  000000018008fa78     libvcruntime:undname.obj
 0002:00001a80       ??_C@_0BA@KKLDJDLB@?$GAlocal?5vftable?8@ 000000018008fa80     libvcruntime:undname.obj
 0002:00001a98       ??_C@_0CE@IIHCMGGL@?$GAlocal?5vftable?5constructor?5clos@ 000000018008fa98     libvcruntime:undname.obj
 0002:00001ac4       ??_C@_06FHBGPFGH@?5new?$FL?$FN@ 000000018008fac4     libvcruntime:undname.obj
 0002:00001ad0       ??_C@_09LBNFPBCA@?5delete?$FL?$FN@ 000000018008fad0     libvcruntime:undname.obj
 0002:00001ae0       ??_C@_0P@HJKNJFNN@?$GAomni?5callsig?8@ 000000018008fae0     libvcruntime:undname.obj
 0002:00001af8       ??_C@_0BL@CNOONJFP@?$GAplacement?5delete?5closure?8@ 000000018008faf8     libvcruntime:undname.obj
 0002:00001b18       ??_C@_0BN@CKNJLHMB@?$GAplacement?5delete?$FL?$FN?5closure?8@ 000000018008fb18     libvcruntime:undname.obj
 0002:00001b40       ??_C@_0CG@CFDHKGGD@?$GAmanaged?5vector?5constructor?5ite@ 000000018008fb40     libvcruntime:undname.obj
 0002:00001b70       ??_C@_0CF@IMGKMJNO@?$GAmanaged?5vector?5destructor?5iter@ 000000018008fb70     libvcruntime:undname.obj
 0002:00001ba0       ??_C@_0CG@HLDDJMAG@?$GAeh?5vector?5copy?5constructor?5ite@ 000000018008fba0     libvcruntime:undname.obj
 0002:00001bd0       ??_C@_0CM@FCBBDIGB@?$GAeh?5vector?5vbase?5copy?5construct@ 000000018008fbd0     libvcruntime:undname.obj
 0002:00001c08       ??_C@_0BL@CLIPGLGB@?$GAdynamic?5initializer?5for?5?8@ 000000018008fc08     libvcruntime:undname.obj
 0002:00001c28       ??_C@_0CB@PDBIFEP@?$GAdynamic?5atexit?5destructor?5for?5@ 000000018008fc28     libvcruntime:undname.obj
 0002:00001c50       ??_C@_0CD@CGAJBKEJ@?$GAvector?5copy?5constructor?5iterat@ 000000018008fc50     libvcruntime:undname.obj
 0002:00001c80       ??_C@_0CJ@GJELGAMM@?$GAvector?5vbase?5copy?5constructor?5@ 000000018008fc80     libvcruntime:undname.obj
 0002:00001cb8       ??_C@_0CL@FGIJHLCE@?$GAmanaged?5vector?5copy?5constructo@ 000000018008fcb8     libvcruntime:undname.obj
 0002:00001cf0       ??_C@_0BM@PMGGMLDN@?$GAlocal?5static?5thread?5guard?8@ 000000018008fcf0     libvcruntime:undname.obj
 0002:00001d18       ??_C@_0N@BDNMDMOL@operator?5?$CC?$CC?5@ 000000018008fd18     libvcruntime:undname.obj
 0002:00001d28       ??_C@_0BC@GGEBGALA@operator?5co_await@ 000000018008fd28     libvcruntime:undname.obj
 0002:00001d40       ??_C@_0M@GAAIMMOH@operator?$DM?$DN?$DO@ 000000018008fd40     libvcruntime:undname.obj
 0002:00001d50       ??_C@_0BC@DAFEJGAK@?5Type?5Descriptor?8@ 000000018008fd50     libvcruntime:undname.obj
 0002:00001d68       ??_C@_0BM@LDKODKLH@?5Base?5Class?5Descriptor?5at?5?$CI@ 000000018008fd68     libvcruntime:undname.obj
 0002:00001d90       ??_C@_0BD@LGICGFMM@?5Base?5Class?5Array?8@ 000000018008fd90     libvcruntime:undname.obj
 0002:00001da8       ??_C@_0BN@MECKDCOJ@?5Class?5Hierarchy?5Descriptor?8@ 000000018008fda8     libvcruntime:undname.obj
 0002:00001dd0       ??_C@_0BK@CFCOFLF@?5Complete?5Object?5Locator?8@ 000000018008fdd0     libvcruntime:undname.obj
 0002:00001df0       ??_C@_0BG@JNJLAMPM@?$GAanonymous?5namespace?8@ 000000018008fdf0     libvcruntime:undname.obj
 0002:00001e0c       ??_C@_04HEJADOOB@CV?3?5@   000000018008fe0c     libvcruntime:undname.obj
 0002:00001e14       ??_C@_02MOLJINC@?3?3@      000000018008fe14     libvcruntime:undname.obj
 0002:00001e18       ??_C@_0BE@JAEOCHPE@template?9parameter?9@ 000000018008fe18     libvcruntime:undname.obj
 0002:00001e30       ??_C@_0BF@LNLGBBNL@?$GAtemplate?9parameter?9@ 000000018008fe30     libvcruntime:undname.obj
 0002:00001e50       ??_C@_0O@KHGCOMHP@generic?9type?9@ 000000018008fe50     libvcruntime:undname.obj
 0002:00001e60       ??_C@_0P@ODDENDLM@?$GAgeneric?9type?9@ 000000018008fe60     libvcruntime:undname.obj
 0002:00001e74       ??_C@_02OHHJMEON@?8?8@     000000018008fe74     libvcruntime:undname.obj
 0002:00001e78       ??_C@_0BN@IBLMMFAP@?$GAnon?9type?9template?9parameter@ 000000018008fe78     libvcruntime:undname.obj
 0002:00001e9c       ??_C@_03DLDNIBIK@?$CFlf@   000000018008fe9c     libvcruntime:undname.obj
 0002:00001ea0       ??_C@_04OFALKAJ@?$DP?$DP_C@ 000000018008fea0     libvcruntime:undname.obj
 0002:00001ea8       ??_C@_03KHICJKCI@?4?4?4@   000000018008fea8     libvcruntime:undname.obj
 0002:00001eac       ??_C@_04HIBGFPH@NULL@      000000018008feac     libvcruntime:undname.obj
 0002:00001eb4       ??_C@_02DPKJAMEF@?$CFd@    000000018008feb4     libvcruntime:undname.obj
 0002:00001eb8       ??_C@_0BK@IHCCFNEL@?$GAtemplate?9type?9parameter?9@ 000000018008feb8     libvcruntime:undname.obj
 0002:00001ed8       ??_C@_0BK@OFCNNNKO@?$GAgeneric?9class?9parameter?9@ 000000018008fed8     libvcruntime:undname.obj
 0002:00001ef8       ??_C@_0BL@NGJBLFIL@?$GAgeneric?9method?9parameter?9@ 000000018008fef8     libvcruntime:undname.obj
 0002:00001f18       ??_C@_07OHNGEDJK@nullptr@  000000018008ff18     libvcruntime:undname.obj
 0002:00001f24       ??_C@_06COJIGPIB@lambda@   000000018008ff24     libvcruntime:undname.obj
 0002:00001f2c       ??_C@_04GKJNKENE@void@     000000018008ff2c     libvcruntime:undname.obj
 0002:00001f38       ??_C@_0BE@EODMJLIF@?$GAtemplate?9parameter@ 000000018008ff38     libvcruntime:undname.obj
 0002:00001f50       ??_C@_03OPGICMGF@?$HN?8?5@ 000000018008ff50     libvcruntime:undname.obj
 0002:00001f54       ??_C@_02IGFCGPIL@?$HN?8@   000000018008ff54     libvcruntime:undname.obj
 0002:00001f58       ??_C@_0N@CBHHHENL@?$GAvtordispex?$HL@ 000000018008ff58     libvcruntime:undname.obj
 0002:00001f68       ??_C@_0L@GHPFDFH@?$GAvtordisp?$HL@ 000000018008ff68     libvcruntime:undname.obj
 0002:00001f78       ??_C@_0L@HNGCOGAE@?$GAadjustor?$HL@ 000000018008ff78     libvcruntime:undname.obj
 0002:00001f88       ??_C@_0CB@KJDOOODE@?$GAlocal?5static?5destructor?5helper@ 000000018008ff88     libvcruntime:undname.obj
 0002:00001fb0       ??_C@_0DB@ILEFOCIJ@?$GAtemplate?5static?5data?5member?5co@ 000000018008ffb0     libvcruntime:undname.obj
 0002:00001ff0       ??_C@_0DA@HGFJFBBE@?$GAtemplate?5static?5data?5member?5de@ 000000018008fff0     libvcruntime:undname.obj
 0002:00002030       ??_C@_07PGOEDBHP@static?5@ 0000000180090030     libvcruntime:undname.obj
 0002:00002040       ??_C@_08NIEOINHE@virtual?5@ 0000000180090040     libvcruntime:undname.obj
 0002:00002050       ??_C@_09LAPHOOG@private?3?5@ 0000000180090050     libvcruntime:undname.obj
 0002:00002060       ??_C@_0M@GAIFPFIP@protected?3?5@ 0000000180090060     libvcruntime:undname.obj
 0002:00002070       ??_C@_08GPDDCMKI@public?3?5@ 0000000180090070     libvcruntime:undname.obj
 0002:00002080       ??_C@_08KJLFOPNE@?$FLthunk?$FN?3@ 0000000180090080     libvcruntime:undname.obj
 0002:00002090       ??_C@_0M@DHNBOJMP@extern?5?$CCC?$CC?5@ 0000000180090090     libvcruntime:undname.obj
 0002:000020a0       ??_C@_02KCKGHPCA@?$CJ?5@   00000001800900a0     libvcruntime:undname.obj
 0002:000020a4       ??_C@_05CIHEBHNO@char?5@   00000001800900a4     libvcruntime:undname.obj
 0002:000020ac       ??_C@_06EHJMALKF@short?5@  00000001800900ac     libvcruntime:undname.obj
 0002:000020b4       ??_C@_04LAHKHJMA@int?5@    00000001800900b4     libvcruntime:undname.obj
 0002:000020bc       ??_C@_05CJIMAING@long?5@   00000001800900bc     libvcruntime:undname.obj
 0002:000020c8       ??_C@_09EBBEKKIH@unsigned?5@ 00000001800900c8     libvcruntime:undname.obj
 0002:000020d4       ??_C@_05BEFAKPML@void?5@   00000001800900d4     libvcruntime:undname.obj
 0002:000020e0       ??_C@_09GAIEOBLP@volatile?5@ 00000001800900e0     libvcruntime:undname.obj
 0002:000020f0       ??_C@_08PABEKFH@volatile@  00000001800900f0     libvcruntime:undname.obj
 0002:00002100       ??_C@_0BA@LKIJLKPP@std?3?3nullptr_t?5@ 0000000180090100     libvcruntime:undname.obj
 0002:00002118       ??_C@_0P@GCOCNKDM@std?3?3nullptr_t@ 0000000180090118     libvcruntime:undname.obj
 0002:00002130       ??_C@_0L@EGPHHEKN@?$DMellipsis?$DO@ 0000000180090130     libvcruntime:undname.obj
 0002:00002140       ??_C@_04EENFHACM@?0?4?4?4@ 0000000180090140     libvcruntime:undname.obj
 0002:00002148       ??_C@_0M@ELJOJFFH@?0?$DMellipsis?$DO@ 0000000180090148     libvcruntime:undname.obj
 0002:00002158       ??_C@_09DNHFEOJI@?5noexcept@ 0000000180090158     libvcruntime:undname.obj
 0002:00002164       ??_C@_03PBJBJNON@cpu@      0000000180090164     libvcruntime:undname.obj
 0002:00002168       ??_C@_03DCBBJBAA@amp@      0000000180090168     libvcruntime:undname.obj
 0002:0000216c       ??_C@_02KEGNLNML@?0?5@     000000018009016c     libvcruntime:undname.obj
 0002:00002170       ??_C@_04ENMBGAPA@char@     0000000180090170     libvcruntime:undname.obj
 0002:00002178       ??_C@_05BFKKPKCG@short@    0000000180090178     libvcruntime:undname.obj
 0002:00002180       ??_C@_03JBIPMCLC@int@      0000000180090180     libvcruntime:undname.obj
 0002:00002184       ??_C@_04GOKPGOLB@long@     0000000180090184     libvcruntime:undname.obj
 0002:0000218c       ??_C@_05KNFBNCOH@float@    000000018009018c     libvcruntime:undname.obj
 0002:00002194       ??_C@_06BNJCAIGJ@double@   0000000180090194     libvcruntime:undname.obj
 0002:0000219c       ??_C@_04DDKJGDCM@bool@     000000018009019c     libvcruntime:undname.obj
 0002:000021a4       ??_C@_06EBGKOKIG@__int8@   00000001800901a4     libvcruntime:undname.obj
 0002:000021b0       ??_C@_07ICFHOGAF@__int16@  00000001800901b0     libvcruntime:undname.obj
 0002:000021c0       ??_C@_07OFLPPHGP@__int32@  00000001800901c0     libvcruntime:undname.obj
 0002:000021d0       ??_C@_07LFCOJCAC@__int64@  00000001800901d0     libvcruntime:undname.obj
 0002:000021e0       ??_C@_08GAHOLHEO@__int128@ 00000001800901e0     libvcruntime:undname.obj
 0002:000021f0       ??_C@_09EEKGDCPH@?$DMunknown?$DO@ 00000001800901f0     libvcruntime:undname.obj
 0002:00002200       ??_C@_07CFHGOPCN@char8_t@  0000000180090200     libvcruntime:undname.obj
 0002:00002210       ??_C@_08HBIPOFJB@char16_t@ 0000000180090210     libvcruntime:undname.obj
 0002:00002220       ??_C@_08IECNCBKG@char32_t@ 0000000180090220     libvcruntime:undname.obj
 0002:00002230       ??_C@_07CLGGIAMF@wchar_t@  0000000180090230     libvcruntime:undname.obj
 0002:0000223c       ??_C@_04HAPDLBFF@auto@     000000018009023c     libvcruntime:undname.obj
 0002:00002248       ??_C@_0P@LHCGKIGK@decltype?$CIauto?$CJ@ 0000000180090248     libvcruntime:undname.obj
 0002:0000225c       ??_C@_05PCNBGHCF@this?5@   000000018009025c     libvcruntime:undname.obj
 0002:00002264       ??_C@_06GCICPBLB@__w64?5@  0000000180090264     libvcruntime:undname.obj
 0002:00002270       ??_C@_07NFANNNEC@UNKNOWN@  0000000180090270     libvcruntime:undname.obj
 0002:00002280       ??_C@_07EDHNAJHC@signed?5@ 0000000180090280     libvcruntime:undname.obj
 0002:0000228c       ??_C@_05BNCCCJPP@const@    000000018009028c     libvcruntime:undname.obj
 0002:00002298       ??_C@_09EFNPDFFP@?5volatile@ 0000000180090298     libvcruntime:undname.obj
 0002:000022a8       ??_C@_0P@GCIFDJCJ@?$GAunknown?5ecsu?8@ 00000001800902a8     libvcruntime:undname.obj
 0002:000022bc       ??_C@_06MOJHIBMG@union?5@  00000001800902bc     libvcruntime:undname.obj
 0002:000022c8       ??_C@_07DIBCDNGL@struct?5@ 00000001800902c8     libvcruntime:undname.obj
 0002:000022d4       ??_C@_06LJBABKPM@class?5@  00000001800902d4     libvcruntime:undname.obj
 0002:000022e0       ??_C@_08KOFANOFK@coclass?5@ 00000001800902e0     libvcruntime:undname.obj
 0002:000022f0       ??_C@_0N@DLIEFKNA@cointerface?5@ 00000001800902f0     libvcruntime:undname.obj
 0002:00002300       ??_C@_05LJGMCFOG@enum?5@   0000000180090300     libvcruntime:undname.obj
 0002:00002308       ??_C@_06LIJLOJAG@const?5@  0000000180090308     libvcruntime:undname.obj
 0002:00002310       ??_C@_02KJPKDIBN@?$CG?5@   0000000180090310     libvcruntime:undname.obj
 0002:00002314       ??_C@_03PCKGMOPB@?$CG?$CG?5@ 0000000180090314     libvcruntime:undname.obj
 0002:00002318       ??_C@_0M@EALIELKG@cli?3?3array?$DM@ 0000000180090318     libvcruntime:undname.obj
 0002:00002328       ??_C@_0O@GKABPPIF@cli?3?3pin_ptr?$DM@ 0000000180090328     libvcruntime:undname.obj
 0002:00002338       ??_C@_02GOGNNPBN@?$CJ?$FL@ 0000000180090338     libvcruntime:undname.obj
 0002:0000233c       ??_C@_06EEGAIFAK@?$HLflat?$HN@ 000000018009033c     libvcruntime:undname.obj
 0002:00002344       ??_C@_05JIBOFOHK@?$HLfor?5@ 0000000180090344     libvcruntime:undname.obj
 0002:0000234c       ??_C@_02MDINNEEG@s?5@      000000018009034c     libvcruntime:undname.obj
 0002:00002358       ??_7DNameNode@@6B@         0000000180090358     libvcruntime:undname.obj
 0002:00002388       ??_7charNode@@6B@          0000000180090388     libvcruntime:undname.obj
 0002:000023b8       ??_7pcharNode@@6B@         00000001800903b8     libvcruntime:undname.obj
 0002:000023e8       ??_7pDNameNode@@6B@        00000001800903e8     libvcruntime:undname.obj
 0002:00002418       ??_7DNameStatusNode@@6B@   0000000180090418     libvcruntime:undname.obj
 0002:00002448       ??_7pairNode@@6B@          0000000180090448     libvcruntime:undname.obj
 0002:000025a4       ??_C@_04OKOHEJBO@?5?$DP?$DP?5@ 00000001800905a4     libvcruntime:undname.obj
 0002:000025b0       ?nodes@?1??make@DNameStatusNode@@SAPEBV2@W4DNameStatus@@@Z@4QBV2@B 00000001800905b0     libvcruntime:undname.obj
 0002:00002600       ?s_negLengthTab@FH4@@3QBCB 0000000180090600     libvcruntime:risctrnsctrl.obj
 0002:00002618       ?s_shiftTab@FH4@@3QBEB     0000000180090618     libvcruntime:risctrnsctrl.obj
 0002:000027c8       ??_C@_1DM@KHCHBNEB@?$AAa?$AAp?$AAi?$AA?9?$AAm?$AAs?$AA?9?$AAw?$AAi?$AAn?$AA?9?$AAc?$AAo?$AAr?$AAe@ 00000001800907c8     libvcruntime:winapi_downlevel.obj
 0002:00002810       ??_C@_1DK@LPPGFMPP@?$AAa?$AAp?$AAi?$AA?9?$AAm?$AAs?$AA?9?$AAw?$AAi?$AAn?$AA?9?$AAc?$AAo?$AAr?$AAe@ 0000000180090810     libvcruntime:winapi_downlevel.obj
 0002:00002858       ??_C@_1BC@GDMECMAK@?$AAk?$AAe?$AAr?$AAn?$AAe?$AAl?$AA3?$AA2@ 0000000180090858     libvcruntime:winapi_downlevel.obj
 0002:00002870       ??_C@_1BA@PFFKHIOG@?$AAa?$AAp?$AAi?$AA?9?$AAm?$AAs?$AA?9@ 0000000180090870     libvcruntime:winapi_downlevel.obj
 0002:00002898       ??_C@_08KNHFBNJ@FlsAlloc@  0000000180090898     libvcruntime:winapi_downlevel.obj
 0002:000028b8       ??_C@_07PEJMOBNF@FlsFree@  00000001800908b8     libvcruntime:winapi_downlevel.obj
 0002:000028d8       ??_C@_0M@GDNOONDI@FlsGetValue@ 00000001800908d8     libvcruntime:winapi_downlevel.obj
 0002:000028f8       ??_C@_0M@JCPCPOEF@FlsSetValue@ 00000001800908f8     libvcruntime:winapi_downlevel.obj
 0002:00002918       ??_C@_0BM@HCFOFFN@InitializeCriticalSectionEx@ 0000000180090918     libvcruntime:winapi_downlevel.obj
 0002:00002948       ??_7exception@std@@6B@     0000000180090948     libvcruntime:frame.obj
 0002:00002960       ??_C@_0BC@EOODALEL@Unknown?5exception@ 0000000180090960     libvcruntime:frame.obj
 0002:00002980       ??_7bad_exception@std@@6B@ 0000000180090980     libvcruntime:frame.obj
 0002:00002998       ??_C@_0O@DPKOEFFH@bad?5exception@ 0000000180090998     libvcruntime:frame.obj
 0002:000029a8       __real@0010000000000000    00000001800909a8     libucrt:pow.obj
 0002:000029b8       __real@3ff0000000000000    00000001800909b8     libucrt:pow.obj
 0002:000029c8       __real@4330000000000000    00000001800909c8     libucrt:pow.obj
 0002:000029d8       __real@7f00000000000000    00000001800909d8     libucrt:pow.obj
 0002:000029e8       __real@bff0000000000000    00000001800909e8     libucrt:pow.obj
 0002:00002a00       __xmm@7fffffffffffffff7fffffffffffffff 0000000180090a00     libucrt:pow.obj
 0002:00002a20       __xmm@80000000000000008000000000000000 0000000180090a20     libucrt:pow.obj
 0002:00002a34       ??_C@_05KGFAIMPG@sqrtf@    0000000180090a34     libucrt:sqrtf.obj
 0002:00002a40       __acrt_exception_action_table 0000000180090a40     libucrt:exception_filter.obj
 0002:00002b28       __acrt_signal_action_table_count 0000000180090b28     libucrt:exception_filter.obj
 0002:00002b38       __acrt_signal_action_table_size 0000000180090b38     libucrt:exception_filter.obj
 0002:00002b48       __acrt_signal_action_first_fpe_index 0000000180090b48     libucrt:exception_filter.obj
 0002:00002b58       __acrt_signal_action_fpe_count 0000000180090b58     libucrt:exception_filter.obj
 0002:00002bf8       ??_C@_1BI@BGOHAHKC@?$AAm?$AAs?$AAc?$AAo?$AAr?$AAe?$AAe?$AA?4?$AAd?$AAl?$AAl@ 0000000180090bf8     libucrt:exit.obj
 0002:00002c18       ??_C@_0P@MIGLKIOC@CorExitProcess@ 0000000180090c18     libucrt:exit.obj
 0002:00002e58       _Fenv1                     0000000180090e58     libucrt:output.obj
 0002:00002e70       ?standard_lookup_table_spectre@__crt_stdio_output@@3V?$spectre_mitigated_lookup_table@Ustate_transition_pair@__crt_stdio_output@@$0IA@@1@B 0000000180090e70     libucrt:output.obj
 0002:00002fb0       ?format_validation_lookup_table_spectre@__crt_stdio_output@@3V?$spectre_mitigated_lookup_table@Ustate_transition_pair@__crt_stdio_output@@$0IA@@1@B 0000000180090fb0     libucrt:output.obj
 0002:00003688       ??_C@_1O@CEDCILHN@?$AA?$CI?$AAn?$AAu?$AAl?$AAl?$AA?$CJ@ 0000000180091688     libucrt:output.obj
 0002:00003698       ??_C@_06OJHGLDPL@?$CInull?$CJ@ 0000000180091698     libucrt:output.obj
 0002:000036f0       __real@7000000000000000    00000001800916f0     libucrt:math_err.obj
 0002:00003700       __real@8000000000000000    0000000180091700     libucrt:math_err.obj
 0002:00003710       __real@f000000000000000    0000000180091710     libucrt:math_err.obj
 0002:00003720       __xmm@7ff00000000000007ff0000000000000 0000000180091720     libucrt:math_err.obj
 0002:00003740       __exp_data                 0000000180091740     libucrt:exp_data.obj
 0002:00004b00       __pow_log_data             0000000180092b00     libucrt:pow_log_data.obj
 0002:00006040       RtlNtPathSeperatorString   0000000180094040     libucrt:peb_access.obj
 0002:00006054       ??_C@_13FPGAJAPJ@?$AA?2@   0000000180094054     libucrt:peb_access.obj
 0002:00006058       RtlDosPathSeperatorsString 0000000180094058     libucrt:peb_access.obj
 0002:0000606c       ??_C@_15MNCACJLI@?$AA?2?$AA?1@ 000000018009406c     libucrt:peb_access.obj
 0002:00006078       RtlAlternateDosPathSeperatorString 0000000180094078     libucrt:peb_access.obj
 0002:0000608c       ??_C@_13CGOKJPIL@?$AA?1@   000000018009408c     libucrt:peb_access.obj
 0002:00006268       ??_C@_1M@HPNHIDJI@?$AAj?$AAa?$AA?9?$AAJ?$AAP@ 0000000180094268     libucrt:mbctype.obj
 0002:00006278       ??_C@_1M@BIBDDEMK@?$AAz?$AAh?$AA?9?$AAC?$AAN@ 0000000180094278     libucrt:mbctype.obj
 0002:00006288       ??_C@_1M@JLOOOEGK@?$AAk?$AAo?$AA?9?$AAK?$AAR@ 0000000180094288     libucrt:mbctype.obj
 0002:00006298       ??_C@_1M@CLNBBOPM@?$AAz?$AAh?$AA?9?$AAT?$AAW@ 0000000180094298     libucrt:mbctype.obj
 0002:00006390       ??_C@_1EA@JGEFHKEI@?$AAa?$AAp?$AAi?$AA?9?$AAm?$AAs?$AA?9?$AAw?$AAi?$AAn?$AA?9?$AAc?$AAo?$AAr?$AAe@ 0000000180094390     libucrt:winapi_thunks.obj
 0002:000063e0       ??_C@_1DM@LFJCLCKP@?$AAa?$AAp?$AAi?$AA?9?$AAm?$AAs?$AA?9?$AAw?$AAi?$AAn?$AA?9?$AAc?$AAo?$AAr?$AAe@ 00000001800943e0     libucrt:winapi_thunks.obj
 0002:00006428       ??_C@_1DI@KMEPCBPN@?$AAa?$AAp?$AAi?$AA?9?$AAm?$AAs?$AA?9?$AAw?$AAi?$AAn?$AA?9?$AAc?$AAo?$AAr?$AAe@ 0000000180094428     libucrt:winapi_thunks.obj
 0002:00006470       ??_C@_1DI@IJCEHOCB@?$AAa?$AAp?$AAi?$AA?9?$AAm?$AAs?$AA?9?$AAw?$AAi?$AAn?$AA?9?$AAc?$AAo?$AAr?$AAe@ 0000000180094470     libucrt:winapi_thunks.obj
 0002:000064b8       ??_C@_1DI@FFFOPEOO@?$AAa?$AAp?$AAi?$AA?9?$AAm?$AAs?$AA?9?$AAw?$AAi?$AAn?$AA?9?$AAc?$AAo?$AAr?$AAe@ 00000001800944b8     libucrt:winapi_thunks.obj
 0002:00006500       ??_C@_1EI@MPIAOHOC@?$AAa?$AAp?$AAi?$AA?9?$AAm?$AAs?$AA?9?$AAw?$AAi?$AAn?$AA?9?$AAc?$AAo?$AAr?$AAe@ 0000000180094500     libucrt:winapi_thunks.obj
 0002:00006560       ??_C@_1FK@FPHCKFIE@?$AAa?$AAp?$AAi?$AA?9?$AAm?$AAs?$AA?9?$AAw?$AAi?$AAn?$AA?9?$AAc?$AAo?$AAr?$AAe@ 0000000180094560     libucrt:winapi_thunks.obj
 0002:000065d0       ??_C@_1EM@DILCGIIO@?$AAa?$AAp?$AAi?$AA?9?$AAm?$AAs?$AA?9?$AAw?$AAi?$AAn?$AA?9?$AAc?$AAo?$AAr?$AAe@ 00000001800945d0     libucrt:winapi_thunks.obj
 0002:00006630       ??_C@_1DM@LNCGDDPN@?$AAa?$AAp?$AAi?$AA?9?$AAm?$AAs?$AA?9?$AAw?$AAi?$AAn?$AA?9?$AAc?$AAo?$AAr?$AAe@ 0000000180094630     libucrt:winapi_thunks.obj
 0002:00006678       ??_C@_1DO@FPAPJEMD@?$AAa?$AAp?$AAi?$AA?9?$AAm?$AAs?$AA?9?$AAw?$AAi?$AAn?$AA?9?$AAc?$AAo?$AAr?$AAe@ 0000000180094678     libucrt:winapi_thunks.obj
 0002:000066c8       ??_C@_1DK@NDHNAHIO@?$AAa?$AAp?$AAi?$AA?9?$AAm?$AAs?$AA?9?$AAw?$AAi?$AAn?$AA?9?$AAc?$AAo?$AAr?$AAe@ 00000001800946c8     libucrt:winapi_thunks.obj
 0002:00006710       ??_C@_1DM@KGHDGBCM@?$AAa?$AAp?$AAi?$AA?9?$AAm?$AAs?$AA?9?$AAw?$AAi?$AAn?$AA?9?$AAc?$AAo?$AAr?$AAe@ 0000000180094710     libucrt:winapi_thunks.obj
 0002:00006760       ??_C@_1EO@IJIOEFOH@?$AAa?$AAp?$AAi?$AA?9?$AAm?$AAs?$AA?9?$AAw?$AAi?$AAn?$AA?9?$AAr?$AAt?$AAc?$AAo@ 0000000180094760     libucrt:winapi_thunks.obj
 0002:000067c0       ??_C@_1FG@HHGEKANL@?$AAa?$AAp?$AAi?$AA?9?$AAm?$AAs?$AA?9?$AAw?$AAi?$AAn?$AA?9?$AAs?$AAe?$AAc?$AAu@ 00000001800947c0     libucrt:winapi_thunks.obj
 0002:00006830       ??_C@_1EG@DBIOJECG@?$AAe?$AAx?$AAt?$AA?9?$AAm?$AAs?$AA?9?$AAw?$AAi?$AAn?$AA?9?$AAn?$AAt?$AAu?$AAs@ 0000000180094830     libucrt:winapi_thunks.obj
 0002:00006890       ??_C@_1EO@FIHMJCLF@?$AAe?$AAx?$AAt?$AA?9?$AAm?$AAs?$AA?9?$AAw?$AAi?$AAn?$AA?9?$AAn?$AAt?$AAu?$AAs@ 0000000180094890     libucrt:winapi_thunks.obj
 0002:000068f0       ??_C@_1BC@DNHGCMLG@?$AAa?$AAd?$AAv?$AAa?$AAp?$AAi?$AA3?$AA2@ 00000001800948f0     libucrt:winapi_thunks.obj
 0002:00006908       ??_C@_1BG@CJPGBMEF@?$AAk?$AAe?$AAr?$AAn?$AAe?$AAl?$AAb?$AAa?$AAs?$AAe@ 0000000180094908     libucrt:winapi_thunks.obj
 0002:00006928       ??_C@_1M@OAIMIKLP@?$AAn?$AAt?$AAd?$AAl?$AAl@ 0000000180094928     libucrt:winapi_thunks.obj
 0002:00006940       ??_C@_1EG@DPGNFKGC@?$AAa?$AAp?$AAi?$AA?9?$AAm?$AAs?$AA?9?$AAw?$AAi?$AAn?$AA?9?$AAa?$AAp?$AAp?$AAm@ 0000000180094940     libucrt:winapi_thunks.obj
 0002:00006998       ??_C@_1O@BCCLBEOE@?$AAu?$AAs?$AAe?$AAr?$AA3?$AA2@ 0000000180094998     libucrt:winapi_thunks.obj
 0002:000069a8       ??_C@_1BA@IAIFMGEF@?$AAe?$AAx?$AAt?$AA?9?$AAm?$AAs?$AA?9@ 00000001800949a8     libucrt:winapi_thunks.obj
 0002:000069c0       ??_C@_0BA@FHFNEAED@AreFileApisANSI@ 00000001800949c0     libucrt:winapi_thunks.obj
 0002:000069e8       ??_C@_0BA@IHGNDAEB@CompareStringEx@ 00000001800949e8     libucrt:winapi_thunks.obj
 0002:00006a10       ??_C@_0BE@LJANKFHF@EnumSystemLocalesEx@ 0000000180094a10     libucrt:winapi_thunks.obj
 0002:00006a38       ??_C@_0N@MFBBDCAC@FlsGetValue2@ 0000000180094a38     libucrt:winapi_thunks.obj
 0002:00006a58       ??_C@_0BA@HNOPNCHB@GetActiveWindow@ 0000000180094a58     libucrt:winapi_thunks.obj
 0002:00006a80       ??_C@_0BA@EPCJIIPD@GetDateFormatEx@ 0000000180094a80     libucrt:winapi_thunks.obj
 0002:00006aa8       ??_C@_0O@NNMIPI@GetTempPath2W@ 0000000180094aa8     libucrt:winapi_thunks.obj
 0002:00006ac8       ??_C@_0BJ@IGDICJAB@GetFileInformationByName@ 0000000180094ac8     libucrt:winapi_thunks.obj
 0002:00006af8       ??_C@_0BJ@DIBIJBHA@GetEnabledXStateFeatures@ 0000000180094af8     libucrt:winapi_thunks.obj
 0002:00006b28       ??_C@_0BD@HHGDFDBJ@GetLastActivePopup@ 0000000180094b28     libucrt:winapi_thunks.obj
 0002:00006b50       ??_C@_0BA@ONOKGCMP@GetLocaleInfoEx@ 0000000180094b50     libucrt:winapi_thunks.obj
 0002:00006b78       ??_C@_0BI@DFKBFLJE@GetProcessWindowStation@ 0000000180094b78     libucrt:winapi_thunks.obj
 0002:00006b98       ??_C@_0BP@FPNJPEJC@GetSystemTimePreciseAsFileTime@ 0000000180094b98     libucrt:winapi_thunks.obj
 0002:00006bd0       ??_C@_0BA@CIJJKCJJ@GetTimeFormatEx@ 0000000180094bd0     libucrt:winapi_thunks.obj
 0002:00006bf8       ??_C@_0BJ@PBCCBIPI@GetUserDefaultLocaleName@ 0000000180094bf8     libucrt:winapi_thunks.obj
 0002:00006c28       ??_C@_0BK@DEKFELLI@GetUserObjectInformationW@ 0000000180094c28     libucrt:winapi_thunks.obj
 0002:00006c58       ??_C@_0BG@IKLDMBLM@GetXStateFeaturesMask@ 0000000180094c58     libucrt:winapi_thunks.obj
 0002:00006c88       ??_C@_0BC@CELBKLLA@IsValidLocaleName@ 0000000180094c88     libucrt:winapi_thunks.obj
 0002:00006cb0       ??_C@_0O@KKBNKAPF@LCMapStringEx@ 0000000180094cb0     libucrt:winapi_thunks.obj
 0002:00006cd0       ??_C@_0BB@CDHDDLLP@LCIDToLocaleName@ 0000000180094cd0     libucrt:winapi_thunks.obj
 0002:00006cf8       ??_C@_0BB@HBDEELFH@LocaleNameToLCID@ 0000000180094cf8     libucrt:winapi_thunks.obj
 0002:00006d20       ??_C@_0BE@KINNKFDA@LocateXStateFeature@ 0000000180094d20     libucrt:winapi_thunks.obj
 0002:00006d48       ??_C@_0M@CHKKJDAI@MessageBoxA@ 0000000180094d48     libucrt:winapi_thunks.obj
 0002:00006d68       ??_C@_0M@DLDCCGNP@MessageBoxW@ 0000000180094d68     libucrt:winapi_thunks.obj
 0002:00006d80       ??_C@_0N@PPOMPGGK@RoInitialize@ 0000000180094d80     libucrt:winapi_thunks.obj
 0002:00006d98       ??_C@_0P@LLFHBIJD@RoUninitialize@ 0000000180094d98     libucrt:winapi_thunks.obj
 0002:00006db0       ??_C@_0CF@OJOFEIGO@AppPolicyGetProcessTerminationM@ 0000000180094db0     libucrt:winapi_thunks.obj
 0002:00006de0       ??_C@_0CF@NNDFDCOC@AppPolicyGetThreadInitializatio@ 0000000180094de0     libucrt:winapi_thunks.obj
 0002:00006e10       ??_C@_0CE@OICFMIKE@AppPolicyGetShowDeveloperDiagno@ 0000000180094e10     libucrt:winapi_thunks.obj
 0002:00006e40       ??_C@_0BL@ODDJNEDA@AppPolicyGetWindowingModel@ 0000000180094e40     libucrt:winapi_thunks.obj
 0002:00006e70       ??_C@_0BI@BKLFFAPO@SetThreadStackGuarantee@ 0000000180094e70     libucrt:winapi_thunks.obj
 0002:00006ea0       ??_C@_0BC@JEAENNKH@SystemFunction036@ 0000000180094ea0     libucrt:winapi_thunks.obj
 0002:00006ec0       __lc_time_c                0000000180094ec0     libucrt:nlsdata.obj
 0002:0000720c       ??_C@_03KOEHGMDN@Sun@      000000018009520c     libucrt:nlsdata.obj
 0002:00007210       ??_C@_03PDAGKDH@Mon@       0000000180095210     libucrt:nlsdata.obj
 0002:00007214       ??_C@_03NAGEINEP@Tue@      0000000180095214     libucrt:nlsdata.obj
 0002:00007218       ??_C@_03MHOMLAJA@Wed@      0000000180095218     libucrt:nlsdata.obj
 0002:0000721c       ??_C@_03IOFIKPDN@Thu@      000000018009521c     libucrt:nlsdata.obj
 0002:00007220       ??_C@_03IDIOELNC@Fri@      0000000180095220     libucrt:nlsdata.obj
 0002:00007224       ??_C@_03FEFJNEK@Sat@       0000000180095224     libucrt:nlsdata.obj
 0002:00007228       ??_C@_06OOPIFAJ@Sunday@    0000000180095228     libucrt:nlsdata.obj
 0002:00007230       ??_C@_06JLEDEDGH@Monday@   0000000180095230     libucrt:nlsdata.obj
 0002:00007238       ??_C@_07BAAGCFCM@Tuesday@  0000000180095238     libucrt:nlsdata.obj
 0002:00007248       ??_C@_09DLIGFAKA@Wednesday@ 0000000180095248     libucrt:nlsdata.obj
 0002:00007258       ??_C@_08HACCIKIA@Thursday@ 0000000180095258     libucrt:nlsdata.obj
 0002:00007264       ??_C@_06JECMNKMI@Friday@   0000000180095264     libucrt:nlsdata.obj
 0002:00007270       ??_C@_08INBOOONO@Saturday@ 0000000180095270     libucrt:nlsdata.obj
 0002:0000727c       ??_C@_03JIHJHPIE@Jan@      000000018009527c     libucrt:nlsdata.obj
 0002:00007280       ??_C@_03HJBDCHOM@Feb@      0000000180095280     libucrt:nlsdata.obj
 0002:00007284       ??_C@_03ODNJBKGA@Mar@      0000000180095284     libucrt:nlsdata.obj
 0002:00007288       ??_C@_03LEOLGMJP@Apr@      0000000180095288     libucrt:nlsdata.obj
 0002:0000728c       ??_C@_03CNMDKL@May@        000000018009528c     libucrt:nlsdata.obj
 0002:00007290       ??_C@_03IDFGHECI@Jun@      0000000180095290     libucrt:nlsdata.obj
 0002:00007294       ??_C@_03LBGABGKK@Jul@      0000000180095294     libucrt:nlsdata.obj
 0002:00007298       ??_C@_03IFJFEIGA@Aug@      0000000180095298     libucrt:nlsdata.obj
 0002:0000729c       ??_C@_03GGCAPAJC@Sep@      000000018009529c     libucrt:nlsdata.obj
 0002:000072a0       ??_C@_03BMAOKBAD@Oct@      00000001800952a0     libucrt:nlsdata.obj
 0002:000072a4       ??_C@_03JPJOFNIA@Nov@      00000001800952a4     libucrt:nlsdata.obj
 0002:000072a8       ??_C@_03MKABNOCG@Dec@      00000001800952a8     libucrt:nlsdata.obj
 0002:000072b0       ??_C@_07CGJPFGJA@January@  00000001800952b0     libucrt:nlsdata.obj
 0002:000072c0       ??_C@_08GNJGEPFN@February@ 00000001800952c0     libucrt:nlsdata.obj
 0002:000072cc       ??_C@_05HPCKOFNC@March@    00000001800952cc     libucrt:nlsdata.obj
 0002:000072d4       ??_C@_05DMJDNLEJ@April@    00000001800952d4     libucrt:nlsdata.obj
 0002:000072dc       ??_C@_04CNLMGBGM@June@     00000001800952dc     libucrt:nlsdata.obj
 0002:000072e4       ??_C@_04MIEPOIFP@July@     00000001800952e4     libucrt:nlsdata.obj
 0002:000072ec       ??_C@_06LBBHFDDG@August@   00000001800952ec     libucrt:nlsdata.obj
 0002:000072f8       ??_C@_09BHHEALKD@September@ 00000001800952f8     libucrt:nlsdata.obj
 0002:00007308       ??_C@_07JJNFCEND@October@  0000000180095308     libucrt:nlsdata.obj
 0002:00007318       ??_C@_08HCHEGEOA@November@ 0000000180095318     libucrt:nlsdata.obj
 0002:00007328       ??_C@_08EDHMEBNP@December@ 0000000180095328     libucrt:nlsdata.obj
 0002:00007334       ??_C@_02DEDBPAFC@AM@       0000000180095334     libucrt:nlsdata.obj
 0002:00007338       ??_C@_02CJNFDJBF@PM@       0000000180095338     libucrt:nlsdata.obj
 0002:00007340       ??_C@_08BPBNCDIB@MM?1dd?1yy@ 0000000180095340     libucrt:nlsdata.obj
 0002:00007350       ??_C@_0BE@CKGJFCPC@dddd?0?5MMMM?5dd?0?5yyyy@ 0000000180095350     libucrt:nlsdata.obj
 0002:00007368       ??_C@_08JCCMCCIL@HH?3mm?3ss@ 0000000180095368     libucrt:nlsdata.obj
 0002:00007378       ??_C@_17MBGCMIPB@?$AAS?$AAu?$AAn@ 0000000180095378     libucrt:nlsdata.obj
 0002:00007388       ??_C@_17KBOMKBF@?$AAM?$AAo?$AAn@ 0000000180095388     libucrt:nlsdata.obj
 0002:00007398       ??_C@_17BMKGEGOJ@?$AAT?$AAu?$AAe@ 0000000180095398     libucrt:nlsdata.obj
 0002:000073a8       ??_C@_17CJEDCEPE@?$AAW?$AAe?$AAd@ 00000001800953a8     libucrt:nlsdata.obj
 0002:000073b8       ??_C@_17PDPHAADD@?$AAT?$AAh?$AAu@ 00000001800953b8     libucrt:nlsdata.obj
 0002:000073c8       ??_C@_17HFOLPPLP@?$AAF?$AAr?$AAi@ 00000001800953c8     libucrt:nlsdata.obj
 0002:000073d8       ??_C@_17GGIBDPIH@?$AAS?$AAa?$AAt@ 00000001800953d8     libucrt:nlsdata.obj
 0002:000073e8       ??_C@_1O@IHNHDHPB@?$AAS?$AAu?$AAn?$AAd?$AAa?$AAy@ 00000001800953e8     libucrt:nlsdata.obj
 0002:000073f8       ??_C@_1O@MMNBFLIA@?$AAM?$AAo?$AAn?$AAd?$AAa?$AAy@ 00000001800953f8     libucrt:nlsdata.obj
 0002:00007408       ??_C@_1BA@ENFBFFEK@?$AAT?$AAu?$AAe?$AAs?$AAd?$AAa?$AAy@ 0000000180095408     libucrt:nlsdata.obj
 0002:00007420       ??_C@_1BE@EBOGMDOH@?$AAW?$AAe?$AAd?$AAn?$AAe?$AAs?$AAd?$AAa?$AAy@ 0000000180095420     libucrt:nlsdata.obj
 0002:00007438       ??_C@_1BC@HHMNLIHE@?$AAT?$AAh?$AAu?$AAr?$AAs?$AAd?$AAa?$AAy@ 0000000180095438     libucrt:nlsdata.obj
 0002:00007450       ??_C@_1O@PDICJHAG@?$AAF?$AAr?$AAi?$AAd?$AAa?$AAy@ 0000000180095450     libucrt:nlsdata.obj
 0002:00007460       ??_C@_1BC@ENMNNPAJ@?$AAS?$AAa?$AAt?$AAu?$AAr?$AAd?$AAa?$AAy@ 0000000180095460     libucrt:nlsdata.obj
 0002:00007478       ??_C@_17DKNBKCHM@?$AAJ?$AAa?$AAn@ 0000000180095478     libucrt:nlsdata.obj
 0002:00007488       ??_C@_17LMDJEKJN@?$AAF?$AAe?$AAb@ 0000000180095488     libucrt:nlsdata.obj
 0002:00007498       ??_C@_17CKNLEDEC@?$AAM?$AAa?$AAr@ 0000000180095498     libucrt:nlsdata.obj
 0002:000074a8       ??_C@_17LFPOIHDD@?$AAA?$AAp?$AAr@ 00000001800954a8     libucrt:nlsdata.obj
 0002:000074b8       ??_C@_17PNNKMEED@?$AAM?$AAa?$AAy@ 00000001800954b8     libucrt:nlsdata.obj
 0002:000074c8       ??_C@_17KCJGOCPB@?$AAJ?$AAu?$AAn@ 00000001800954c8     libucrt:nlsdata.obj
 0002:000074d8       ??_C@_17IJPCKHK@?$AAJ?$AAu?$AAl@ 00000001800954d8     libucrt:nlsdata.obj
 0002:000074e8       ??_C@_17ICPELBCN@?$AAA?$AAu?$AAg@ 00000001800954e8     libucrt:nlsdata.obj
 0002:000074f8       ??_C@_17HCHCOKMG@?$AAS?$AAe?$AAp@ 00000001800954f8     libucrt:nlsdata.obj
 0002:00007508       ??_C@_17FNLKOI@?$AAO?$AAc?$AAt@ 0000000180095508     libucrt:nlsdata.obj
 0002:00007518       ??_C@_17BBDMLCIG@?$AAN?$AAo?$AAv@ 0000000180095518     libucrt:nlsdata.obj
 0002:00007528       ??_C@_17EGKACKIF@?$AAD?$AAe?$AAc@ 0000000180095528     libucrt:nlsdata.obj
 0002:00007538       ??_C@_1BA@EFMEIEBA@?$AAJ?$AAa?$AAn?$AAu?$AAa?$AAr?$AAy@ 0000000180095538     libucrt:nlsdata.obj
 0002:00007550       ??_C@_1BC@JGDDFFAM@?$AAF?$AAe?$AAb?$AAr?$AAu?$AAa?$AAr?$AAy@ 0000000180095550     libucrt:nlsdata.obj
 0002:00007568       ??_C@_1M@IKEENEDF@?$AAM?$AAa?$AAr?$AAc?$AAh@ 0000000180095568     libucrt:nlsdata.obj
 0002:00007578       ??_C@_1M@GJNLMHFD@?$AAA?$AAp?$AAr?$AAi?$AAl@ 0000000180095578     libucrt:nlsdata.obj
 0002:00007588       ??_C@_19EPFLPGAP@?$AAJ?$AAu?$AAn?$AAe@ 0000000180095588     libucrt:nlsdata.obj
 0002:00007598       ??_C@_19BIFMLPCD@?$AAJ?$AAu?$AAl?$AAy@ 0000000180095598     libucrt:nlsdata.obj
 0002:000075a8       ??_C@_1O@PAHLKOAC@?$AAA?$AAu?$AAg?$AAu?$AAs?$AAt@ 00000001800955a8     libucrt:nlsdata.obj
 0002:000075b8       ??_C@_1BE@DKAAMBJL@?$AAS?$AAe?$AAp?$AAt?$AAe?$AAm?$AAb?$AAe?$AAr@ 00000001800955b8     libucrt:nlsdata.obj
 0002:000075d0       ??_C@_1BA@EPANDLNG@?$AAO?$AAc?$AAt?$AAo?$AAb?$AAe?$AAr@ 00000001800955d0     libucrt:nlsdata.obj
 0002:000075e8       ??_C@_1BC@BGLIFPF@?$AAN?$AAo?$AAv?$AAe?$AAm?$AAb?$AAe?$AAr@ 00000001800955e8     libucrt:nlsdata.obj
 0002:00007600       ??_C@_1BC@FEMKIFH@?$AAD?$AAe?$AAc?$AAe?$AAm?$AAb?$AAe?$AAr@ 0000000180095600     libucrt:nlsdata.obj
 0002:00007618       ??_C@_15ODEHAHHF@?$AAA?$AAM@ 0000000180095618     libucrt:nlsdata.obj
 0002:00007620       ??_C@_15CLMNNGEL@?$AAP?$AAM@ 0000000180095620     libucrt:nlsdata.obj
 0002:00007628       ??_C@_1BC@IEBCMHCM@?$AAM?$AAM?$AA?1?$AAd?$AAd?$AA?1?$AAy?$AAy@ 0000000180095628     libucrt:nlsdata.obj
 0002:00007640       ??_C@_1CI@KNAKOEBC@?$AAd?$AAd?$AAd?$AAd?$AA?0?$AA?5?$AAM?$AAM?$AAM?$AAM?$AA?5?$AAd?$AAd?$AA?0?$AA?5@ 0000000180095640     libucrt:nlsdata.obj
 0002:00007670       ??_C@_1BC@GDGBMEMK@?$AAH?$AAH?$AA?3?$AAm?$AAm?$AA?3?$AAs?$AAs@ 0000000180095670     libucrt:nlsdata.obj
 0002:00007688       ??_C@_1M@BMHNFIME@?$AAe?$AAn?$AA?9?$AAU?$AAS@ 0000000180095688     libucrt:nlsdata.obj
 0002:0000773c       ??_C@_03OEIAHPBN@INF@      000000018009573c     libucrt:cvt.obj
 0002:00007740       ??_C@_03OJHLLCGB@inf@      0000000180095740     libucrt:cvt.obj
 0002:00007744       ??_C@_03LKNCIKJB@NAN@      0000000180095744     libucrt:cvt.obj
 0002:00007748       ??_C@_03LHCJEHON@nan@      0000000180095748     libucrt:cvt.obj
 0002:00007750       ??_C@_09OFJJIMPC@NAN?$CISNAN?$CJ@ 0000000180095750     libucrt:cvt.obj
 0002:00007760       ??_C@_09IPFBKMDL@nan?$CIsnan?$CJ@ 0000000180095760     libucrt:cvt.obj
 0002:00007770       ??_C@_08IKHNHAJ@NAN?$CIIND?$CJ@ 0000000180095770     libucrt:cvt.obj
 0002:00007780       ??_C@_08OFCDMILK@nan?$CIind?$CJ@ 0000000180095780     libucrt:cvt.obj
 0002:0000778c       ??_C@_05KLBDPFGC@e?$CL000@ 000000018009578c     libucrt:cvt.obj
 0002:000078a0       __lc_category              00000001800958a0     libucrt:wsetlocale.obj
 0002:00007950       ??_C@_1O@GIFLHMA@?$AAL?$AAC?$AA_?$AAA?$AAL?$AAL@ 0000000180095950     libucrt:wsetlocale.obj
 0002:00007960       ??_C@_1BG@PPOMIBNJ@?$AAL?$AAC?$AA_?$AAC?$AAO?$AAL?$AAL?$AAA?$AAT?$AAE@ 0000000180095960     libucrt:wsetlocale.obj
 0002:00007980       ??_C@_1BC@FFJGAPJM@?$AAL?$AAC?$AA_?$AAC?$AAT?$AAY?$AAP?$AAE@ 0000000180095980     libucrt:wsetlocale.obj
 0002:00007998       ??_C@_1BI@PCKFNJFB@?$AAL?$AAC?$AA_?$AAM?$AAO?$AAN?$AAE?$AAT?$AAA?$AAR?$AAY@ 0000000180095998     libucrt:wsetlocale.obj
 0002:000079b8       ??_C@_1BG@ENIEDKID@?$AAL?$AAC?$AA_?$AAN?$AAU?$AAM?$AAE?$AAR?$AAI?$AAC@ 00000001800959b8     libucrt:wsetlocale.obj
 0002:000079d8       ??_C@_1BA@HAAOMIIG@?$AAL?$AAC?$AA_?$AAT?$AAI?$AAM?$AAE@ 00000001800959d8     libucrt:wsetlocale.obj
 0002:000079ec       ??_C@_15NBPDDFIP@?$AA?$DN?$AA?$DL@ 00000001800959ec     libucrt:wsetlocale.obj
 0002:000079f4       ??_C@_13PJJBFPED@?$AA?$DL@ 00000001800959f4     libucrt:wsetlocale.obj
 0002:000079f8       ??_C@_13NMPKAAJP@?$AA?$DN@ 00000001800959f8     libucrt:wsetlocale.obj
 0002:000079fc       ??_C@_13IMODFHAA@?$AA?9@   00000001800959fc     libucrt:wsetlocale.obj
 0002:00007a00       ??_C@_17EFJLDFDO@?$AA?9?$AA_?$AA?4@ 0000000180095a00     libucrt:wsetlocale.obj
 0002:00007a0c       ??_C@_13FHBKNHDA@?$AAC@    0000000180095a0c     libucrt:wsetlocale.obj
 0002:00007a10       ??_C@_17MBJJLFDM@?$AA_?$AA?4?$AA?0@ 0000000180095a10     libucrt:wsetlocale.obj
 0002:00007a1c       ??_C@_13ENNFDPBH@?$AA_@    0000000180095a1c     libucrt:wsetlocale.obj
 0002:00007a20       ??_C@_13JOFGPIOO@?$AA?4@   0000000180095a20     libucrt:wsetlocale.obj
 0002:00007a30       __newctype                 0000000180095a30     libucrt:ctype.obj
 0002:00007dd0       __newclmap                 0000000180095dd0     libucrt:ctype.obj
 0002:00007fa0       __newcumap                 0000000180095fa0     libucrt:ctype.obj
 0002:00008170       _wctype                    0000000180096170     libucrt:ctype.obj
 0002:0000860c       ??_C@_03KHJOGHMM@exp@      000000018009660c     libucrt:fpexcept.obj
 0002:00008610       ??_C@_03JGHBODFD@pow@      0000000180096610     libucrt:fpexcept.obj
 0002:00008614       ??_C@_03MGHMBJCF@log@      0000000180096614     libucrt:fpexcept.obj
 0002:00008618       ??_C@_05HGHHAHAP@log10@    0000000180096618     libucrt:fpexcept.obj
 0002:00008620       ??_C@_04COOMCNPB@sinh@     0000000180096620     libucrt:fpexcept.obj
 0002:00008628       ??_C@_04HPJJNFIM@cosh@     0000000180096628     libucrt:fpexcept.obj
 0002:00008630       ??_C@_04FJHINJAO@tanh@     0000000180096630     libucrt:fpexcept.obj
 0002:00008638       ??_C@_04FIHNOPOL@asin@     0000000180096638     libucrt:fpexcept.obj
 0002:00008640       ??_C@_04PDIFKINK@acos@     0000000180096640     libucrt:fpexcept.obj
 0002:00008648       ??_C@_04MLLJIGOK@atan@     0000000180096648     libucrt:fpexcept.obj
 0002:00008650       ??_C@_05KNGEOGJB@atan2@    0000000180096650     libucrt:fpexcept.obj
 0002:00008658       ??_C@_04EIAKFFMI@sqrt@     0000000180096658     libucrt:fpexcept.obj
 0002:00008660       ??_C@_03BLEJJJBH@sin@      0000000180096660     libucrt:fpexcept.obj
 0002:00008664       ??_C@_03LALBNOCG@cos@      0000000180096664     libucrt:fpexcept.obj
 0002:00008668       ??_C@_03IIINPABG@tan@      0000000180096668     libucrt:fpexcept.obj
 0002:0000866c       ??_C@_04GFPJNGEK@ceil@     000000018009666c     libucrt:fpexcept.obj
 0002:00008674       ??_C@_05PBJFFIGL@floor@    0000000180096674     libucrt:fpexcept.obj
 0002:0000867c       ??_C@_04ODHECPBC@fabs@     000000018009667c     libucrt:fpexcept.obj
 0002:00008684       ??_C@_04EHEDPDJG@modf@     0000000180096684     libucrt:fpexcept.obj
 0002:0000868c       ??_C@_05CEJMAHNP@ldexp@    000000018009668c     libucrt:fpexcept.obj
 0002:00008694       ??_C@_05KBKMEMPO@_cabs@    0000000180096694     libucrt:fpexcept.obj
 0002:0000869c       ??_C@_06MEIMCGCF@_hypot@   000000018009669c     libucrt:fpexcept.obj
 0002:000086a4       ??_C@_04KEPJIHGP@fmod@     00000001800966a4     libucrt:fpexcept.obj
 0002:000086ac       ??_C@_05GKKHEGJL@frexp@    00000001800966ac     libucrt:fpexcept.obj
 0002:000086b4       ??_C@_03MJLDFKDL@_y0@      00000001800966b4     libucrt:fpexcept.obj
 0002:000086b8       ??_C@_03NAKIGLHK@_y1@      00000001800966b8     libucrt:fpexcept.obj
 0002:000086bc       ??_C@_03ONILCKOB@_yn@      00000001800966bc     libucrt:fpexcept.obj
 0002:000086c0       ??_C@_05JGDBENOH@_logb@    00000001800966c0     libucrt:fpexcept.obj
 0002:000086c8       ??_C@_0L@KDOEJCKC@_nextafter@ 00000001800966c8     libucrt:fpexcept.obj
 0002:000097fc       ??_C@_15EMKDOKLE@?$AAa?$AAr@ 00000001800977fc     libucrt:lcidtoname_downlevel.obj
 0002:00009804       ??_C@_15KNPADPLH@?$AAb?$AAg@ 0000000180097804     libucrt:lcidtoname_downlevel.obj
 0002:0000980c       ??_C@_15EDMHLDMO@?$AAc?$AAa@ 000000018009780c     libucrt:lcidtoname_downlevel.obj
 0002:00009818       ??_C@_1O@BPEAJADD@?$AAz?$AAh?$AA?9?$AAC?$AAH?$AAS@ 0000000180097818     libucrt:lcidtoname_downlevel.obj
 0002:00009828       ??_C@_15LJNHCMNK@?$AAc?$AAs@ 0000000180097828     libucrt:lcidtoname_downlevel.obj
 0002:00009830       ??_C@_15FOMCIDHG@?$AAd?$AAa@ 0000000180097830     libucrt:lcidtoname_downlevel.obj
 0002:00009838       ??_C@_15NBKABECB@?$AAd?$AAe@ 0000000180097838     libucrt:lcidtoname_downlevel.obj
 0002:00009840       ??_C@_15GHPEIIAO@?$AAe?$AAl@ 0000000180097840     libucrt:lcidtoname_downlevel.obj
 0002:00009848       ??_C@_15MNPNEAIF@?$AAe?$AAn@ 0000000180097848     libucrt:lcidtoname_downlevel.obj
 0002:00009850       ??_C@_15GPIOMPMH@?$AAe?$AAs@ 0000000180097850     libucrt:lcidtoname_downlevel.obj
 0002:00009858       ??_C@_15NGLOAKJC@?$AAf?$AAi@ 0000000180097858     libucrt:lcidtoname_downlevel.obj
 0002:00009860       ??_C@_15FBKGNKAM@?$AAf?$AAr@ 0000000180097860     libucrt:lcidtoname_downlevel.obj
 0002:00009868       ??_C@_15KGGCNEFK@?$AAh?$AAe@ 0000000180097868     libucrt:lcidtoname_downlevel.obj
 0002:00009870       ??_C@_15PGHLIDMF@?$AAh?$AAu@ 0000000180097870     libucrt:lcidtoname_downlevel.obj
 0002:00009878       ??_C@_15BIEMAPLM@?$AAi?$AAs@ 0000000180097878     libucrt:lcidtoname_downlevel.obj
 0002:00009880       ??_C@_15IFJLDHAF@?$AAi?$AAt@ 0000000180097880     libucrt:lcidtoname_downlevel.obj
 0002:00009888       ??_C@_15GEMIOCAG@?$AAj?$AAa@ 0000000180097888     libucrt:lcidtoname_downlevel.obj
 0002:00009890       ??_C@_15EPELEGJA@?$AAk?$AAo@ 0000000180097890     libucrt:lcidtoname_downlevel.obj
 0002:00009898       ??_C@_15NDDHIMN@?$AAn?$AAl@ 0000000180097898     libucrt:lcidtoname_downlevel.obj
 0002:000098a0       ??_C@_15BPIGNHCD@?$AAn?$AAo@ 00000001800978a0     libucrt:lcidtoname_downlevel.obj
 0002:000098a8       ??_C@_15DEOPBLCG@?$AAp?$AAl@ 00000001800978a8     libucrt:lcidtoname_downlevel.obj
 0002:000098b0       ??_C@_15KBECGEFG@?$AAp?$AAt@ 00000001800978b0     libucrt:lcidtoname_downlevel.obj
 0002:000098b8       ??_C@_15GLJCBFMD@?$AAr?$AAo@ 00000001800978b8     libucrt:lcidtoname_downlevel.obj
 0002:000098c0       ??_C@_15FEDGKCDI@?$AAr?$AAu@ 00000001800978c0     libucrt:lcidtoname_downlevel.obj
 0002:000098c8       ??_C@_15GLKMLLHM@?$AAh?$AAr@ 00000001800978c8     libucrt:lcidtoname_downlevel.obj
 0002:000098d0       ??_C@_15CPKMFBDB@?$AAs?$AAk@ 00000001800978d0     libucrt:lcidtoname_downlevel.obj
 0002:000098d8       ??_C@_15BAAIOGMK@?$AAs?$AAq@ 00000001800978d8     libucrt:lcidtoname_downlevel.obj
 0002:000098e0       ??_C@_15INNPNOHD@?$AAs?$AAv@ 00000001800978e0     libucrt:lcidtoname_downlevel.obj
 0002:000098e8       ??_C@_15CABMMOGH@?$AAt?$AAh@ 00000001800978e8     libucrt:lcidtoname_downlevel.obj
 0002:000098f0       ??_C@_15BPLIHJJM@?$AAt?$AAr@ 00000001800978f0     libucrt:lcidtoname_downlevel.obj
 0002:000098f8       ??_C@_15NEOEKKDJ@?$AAu?$AAr@ 00000001800978f8     libucrt:lcidtoname_downlevel.obj
 0002:00009900       ??_C@_15NFICGAJK@?$AAi?$AAd@ 0000000180097900     libucrt:lcidtoname_downlevel.obj
 0002:00009908       ??_C@_15PJPFLCCM@?$AAu?$AAk@ 0000000180097908     libucrt:lcidtoname_downlevel.obj
 0002:00009910       ??_C@_15HPJPHDM@?$AAb?$AAe@ 0000000180097910     libucrt:lcidtoname_downlevel.obj
 0002:00009918       ??_C@_15LCHLGJII@?$AAs?$AAl@ 0000000180097918     libucrt:lcidtoname_downlevel.obj
 0002:00009920       ??_C@_15PCFJPHHO@?$AAe?$AAt@ 0000000180097920     libucrt:lcidtoname_downlevel.obj
 0002:00009928       ??_C@_15HPFPGODN@?$AAl?$AAv@ 0000000180097928     libucrt:lcidtoname_downlevel.obj
 0002:00009930       ??_C@_15NFFGKGLG@?$AAl?$AAt@ 0000000180097930     libucrt:lcidtoname_downlevel.obj
 0002:00009938       ??_C@_15BDAKCCHN@?$AAf?$AAa@ 0000000180097938     libucrt:lcidtoname_downlevel.obj
 0002:00009940       ??_C@_15NFGIAIAJ@?$AAv?$AAi@ 0000000180097940     libucrt:lcidtoname_downlevel.obj
 0002:00009948       ??_C@_15LMKNDMHN@?$AAh?$AAy@ 0000000180097948     libucrt:lcidtoname_downlevel.obj
 0002:00009950       ??_C@_15IJBHMCFL@?$AAa?$AAz@ 0000000180097950     libucrt:lcidtoname_downlevel.obj
 0002:00009958       ??_C@_15EKOFJABL@?$AAe?$AAu@ 0000000180097958     libucrt:lcidtoname_downlevel.obj
 0002:00009960       ??_C@_15BGHADCNK@?$AAm?$AAk@ 0000000180097960     libucrt:lcidtoname_downlevel.obj
 0002:00009968       ??_C@_15JDNICKHM@?$AAa?$AAf@ 0000000180097968     libucrt:lcidtoname_downlevel.obj
 0002:00009970       ??_C@_15KPJEDBKD@?$AAk?$AAa@ 0000000180097970     libucrt:lcidtoname_downlevel.obj
 0002:00009978       ??_C@_15PDNFFFEO@?$AAf?$AAo@ 0000000180097978     libucrt:lcidtoname_downlevel.obj
 0002:00009980       ??_C@_15OMLEGLOC@?$AAh?$AAi@ 0000000180097980     libucrt:lcidtoname_downlevel.obj
 0002:00009988       ??_C@_15IDNNENKK@?$AAm?$AAs@ 0000000180097988     libucrt:lcidtoname_downlevel.obj
 0002:00009990       ??_C@_15MACJNBMH@?$AAk?$AAk@ 0000000180097990     libucrt:lcidtoname_downlevel.obj
 0002:00009998       ??_C@_15DKDJEOND@?$AAk?$AAy@ 0000000180097998     libucrt:lcidtoname_downlevel.obj
 0002:000099a0       ??_C@_15DFGDLJBG@?$AAs?$AAw@ 00000001800979a0     libucrt:lcidtoname_downlevel.obj
 0002:000099a8       ??_C@_15BBFAICNG@?$AAu?$AAz@ 00000001800979a8     libucrt:lcidtoname_downlevel.obj
 0002:000099b0       ??_C@_15DKNDCGEA@?$AAt?$AAt@ 00000001800979b0     libucrt:lcidtoname_downlevel.obj
 0002:000099b8       ??_C@_15MGIFMDPL@?$AAp?$AAa@ 00000001800979b8     libucrt:lcidtoname_downlevel.obj
 0002:000099c0       ??_C@_15HCNDBBA@?$AAg?$AAu@ 00000001800979c0     libucrt:lcidtoname_downlevel.obj
 0002:000099c8       ??_C@_15FNBEIBON@?$AAt?$AAa@ 00000001800979c8     libucrt:lcidtoname_downlevel.obj
 0002:000099d0       ??_C@_15NCHGBGLK@?$AAt?$AAe@ 00000001800979d0     libucrt:lcidtoname_downlevel.obj
 0002:000099d8       ??_C@_15PHPHCBPF@?$AAk?$AAn@ 00000001800979d8     libucrt:lcidtoname_downlevel.obj
 0002:000099e0       ??_C@_15DLGBCKMP@?$AAm?$AAr@ 00000001800979e0     libucrt:lcidtoname_downlevel.obj
 0002:000099e8       ??_C@_15EABBLBFF@?$AAs?$AAa@ 00000001800979e8     libucrt:lcidtoname_downlevel.obj
 0002:000099f0       ??_C@_15CBKOMCOI@?$AAm?$AAn@ 00000001800979f0     libucrt:lcidtoname_downlevel.obj
 0002:000099f8       ??_C@_15CKDMCJAF@?$AAg?$AAl@ 00000001800979f8     libucrt:lcidtoname_downlevel.obj
 0002:00009a00       ??_C@_17CNJFBPG@?$AAk?$AAo?$AAk@ 0000000180097a00     libucrt:lcidtoname_downlevel.obj
 0002:00009a10       ??_C@_17FFBJICPL@?$AAs?$AAy?$AAr@ 0000000180097a10     libucrt:lcidtoname_downlevel.obj
 0002:00009a20       ??_C@_17KPNDCPAF@?$AAd?$AAi?$AAv@ 0000000180097a20     libucrt:lcidtoname_downlevel.obj
 0002:00009a2c       ??_C@_11LOCGONAA@@         0000000180097a2c     libucrt:lcidtoname_downlevel.obj
 0002:00009a30       ??_C@_1M@OKAHONE@?$AAa?$AAr?$AA?9?$AAS?$AAA@ 0000000180097a30     libucrt:lcidtoname_downlevel.obj
 0002:00009a40       ??_C@_1M@FFFIGIGK@?$AAb?$AAg?$AA?9?$AAB?$AAG@ 0000000180097a40     libucrt:lcidtoname_downlevel.obj
 0002:00009a50       ??_C@_1M@BJNKEDC@?$AAc?$AAa?$AA?9?$AAE?$AAS@ 0000000180097a50     libucrt:lcidtoname_downlevel.obj
 0002:00009a60       ??_C@_1M@IJJHFJHA@?$AAc?$AAs?$AA?9?$AAC?$AAZ@ 0000000180097a60     libucrt:lcidtoname_downlevel.obj
 0002:00009a70       ??_C@_1M@CLPEOBGI@?$AAd?$AAa?$AA?9?$AAD?$AAK@ 0000000180097a70     libucrt:lcidtoname_downlevel.obj
 0002:00009a80       ??_C@_1M@MCMADGCB@?$AAd?$AAe?$AA?9?$AAD?$AAE@ 0000000180097a80     libucrt:lcidtoname_downlevel.obj
 0002:00009a90       ??_C@_1M@OOCKEMAM@?$AAe?$AAl?$AA?9?$AAG?$AAR@ 0000000180097a90     libucrt:lcidtoname_downlevel.obj
 0002:00009aa0       ??_C@_1M@DDNJFGID@?$AAf?$AAi?$AA?9?$AAF?$AAI@ 0000000180097aa0     libucrt:lcidtoname_downlevel.obj
 0002:00009ab0       ??_C@_1M@GLIPPMAC@?$AAf?$AAr?$AA?9?$AAF?$AAR@ 0000000180097ab0     libucrt:lcidtoname_downlevel.obj
 0002:00009ac0       ??_C@_1M@GFMCHPE@?$AAh?$AAe?$AA?9?$AAI?$AAL@ 0000000180097ac0     libucrt:lcidtoname_downlevel.obj
 0002:00009ad0       ??_C@_1M@MHLPGNKM@?$AAh?$AAu?$AA?9?$AAH?$AAU@ 0000000180097ad0     libucrt:lcidtoname_downlevel.obj
 0002:00009ae0       ??_C@_1M@LPDDNNPN@?$AAi?$AAs?$AA?9?$AAI?$AAS@ 0000000180097ae0     libucrt:lcidtoname_downlevel.obj
 0002:00009af0       ??_C@_1M@MADIPODN@?$AAi?$AAt?$AA?9?$AAI?$AAT@ 0000000180097af0     libucrt:lcidtoname_downlevel.obj
 0002:00009b00       ??_C@_1M@IHBJJGG@?$AAn?$AAl?$AA?9?$AAN?$AAL@ 0000000180097b00     libucrt:lcidtoname_downlevel.obj
 0002:00009b10       ??_C@_1M@EANAGDL@?$AAn?$AAb?$AA?9?$AAN?$AAO@ 0000000180097b10     libucrt:lcidtoname_downlevel.obj
 0002:00009b20       ??_C@_1M@NEIEMEGP@?$AAp?$AAl?$AA?9?$AAP?$AAL@ 0000000180097b20     libucrt:lcidtoname_downlevel.obj
 0002:00009b30       ??_C@_1M@BOCFIGEP@?$AAp?$AAt?$AA?9?$AAB?$AAR@ 0000000180097b30     libucrt:lcidtoname_downlevel.obj
 0002:00009b40       ??_C@_1M@IMPFOPBG@?$AAr?$AAo?$AA?9?$AAR?$AAO@ 0000000180097b40     libucrt:lcidtoname_downlevel.obj
 0002:00009b50       ??_C@_1M@IDNNEJMM@?$AAr?$AAu?$AA?9?$AAR?$AAU@ 0000000180097b50     libucrt:lcidtoname_downlevel.obj
 0002:00009b60       ??_C@_1M@LILEEOGM@?$AAh?$AAr?$AA?9?$AAH?$AAR@ 0000000180097b60     libucrt:lcidtoname_downlevel.obj
 0002:00009b70       ??_C@_1M@FKIFEHPB@?$AAs?$AAk?$AA?9?$AAS?$AAK@ 0000000180097b70     libucrt:lcidtoname_downlevel.obj
 0002:00009b80       ??_C@_1M@LJMAMNPJ@?$AAs?$AAq?$AA?9?$AAA?$AAL@ 0000000180097b80     libucrt:lcidtoname_downlevel.obj
 0002:00009b90       ??_C@_1M@GIAKDKJK@?$AAs?$AAv?$AA?9?$AAS?$AAE@ 0000000180097b90     libucrt:lcidtoname_downlevel.obj
 0002:00009ba0       ??_C@_1M@MKJKIKCL@?$AAt?$AAh?$AA?9?$AAT?$AAH@ 0000000180097ba0     libucrt:lcidtoname_downlevel.obj
 0002:00009bb0       ??_C@_1M@MFLCCMPB@?$AAt?$AAr?$AA?9?$AAT?$AAR@ 0000000180097bb0     libucrt:lcidtoname_downlevel.obj
 0002:00009bc0       ??_C@_1M@OIJHDKJN@?$AAu?$AAr?$AA?9?$AAP?$AAK@ 0000000180097bc0     libucrt:lcidtoname_downlevel.obj
 0002:00009bd0       ??_C@_1M@LHIPCIEK@?$AAi?$AAd?$AA?9?$AAI?$AAD@ 0000000180097bd0     libucrt:lcidtoname_downlevel.obj
 0002:00009be0       ??_C@_1M@MFMOBGI@?$AAu?$AAk?$AA?9?$AAU?$AAA@ 0000000180097be0     libucrt:lcidtoname_downlevel.obj
 0002:00009bf0       ??_C@_1M@OBGLJIPL@?$AAb?$AAe?$AA?9?$AAB?$AAY@ 0000000180097bf0     libucrt:lcidtoname_downlevel.obj
 0002:00009c00       ??_C@_1M@BCFAJEAD@?$AAs?$AAl?$AA?9?$AAS?$AAI@ 0000000180097c00     libucrt:lcidtoname_downlevel.obj
 0002:00009c10       ??_C@_1M@FKFFEDDN@?$AAe?$AAt?$AA?9?$AAE?$AAE@ 0000000180097c10     libucrt:lcidtoname_downlevel.obj
 0002:00009c20       ??_C@_1M@KGKKAACI@?$AAl?$AAv?$AA?9?$AAL?$AAV@ 0000000180097c20     libucrt:lcidtoname_downlevel.obj
 0002:00009c30       ??_C@_1M@IFGBIJO@?$AAl?$AAt?$AA?9?$AAL?$AAT@ 0000000180097c30     libucrt:lcidtoname_downlevel.obj
 0002:00009c40       ??_C@_1M@FGEAHEDM@?$AAf?$AAa?$AA?9?$AAI?$AAR@ 0000000180097c40     libucrt:lcidtoname_downlevel.obj
 0002:00009c50       ??_C@_1M@KBMAIBFN@?$AAv?$AAi?$AA?9?$AAV?$AAN@ 0000000180097c50     libucrt:lcidtoname_downlevel.obj
 0002:00009c60       ??_C@_1M@GPCBKDJK@?$AAh?$AAy?$AA?9?$AAA?$AAM@ 0000000180097c60     libucrt:lcidtoname_downlevel.obj
 0002:00009c70       ??_C@_1BG@BECMDDJB@?$AAa?$AAz?$AA?9?$AAA?$AAZ?$AA?9?$AAL?$AAa?$AAt?$AAn@ 0000000180097c70     libucrt:lcidtoname_downlevel.obj
 0002:00009c90       ??_C@_1M@MAOFCAEA@?$AAe?$AAu?$AA?9?$AAE?$AAS@ 0000000180097c90     libucrt:lcidtoname_downlevel.obj
 0002:00009ca0       ??_C@_1M@IGHABKPI@?$AAm?$AAk?$AA?9?$AAM?$AAK@ 0000000180097ca0     libucrt:lcidtoname_downlevel.obj
 0002:00009cb0       ??_C@_1M@IAIGNEJG@?$AAt?$AAn?$AA?9?$AAZ?$AAA@ 0000000180097cb0     libucrt:lcidtoname_downlevel.obj
 0002:00009cc0       ??_C@_1M@IIJCOJFA@?$AAx?$AAh?$AA?9?$AAZ?$AAA@ 0000000180097cc0     libucrt:lcidtoname_downlevel.obj
 0002:00009cd0       ??_C@_1M@LGPJHNJH@?$AAz?$AAu?$AA?9?$AAZ?$AAA@ 0000000180097cd0     libucrt:lcidtoname_downlevel.obj
 0002:00009ce0       ??_C@_1M@HOKAOIO@?$AAa?$AAf?$AA?9?$AAZ?$AAA@ 0000000180097ce0     libucrt:lcidtoname_downlevel.obj
 0002:00009cf0       ??_C@_1M@DPCLHLIE@?$AAk?$AAa?$AA?9?$AAG?$AAE@ 0000000180097cf0     libucrt:lcidtoname_downlevel.obj
 0002:00009d00       ??_C@_1M@BLKMHJBI@?$AAf?$AAo?$AA?9?$AAF?$AAO@ 0000000180097d00     libucrt:lcidtoname_downlevel.obj
 0002:00009d10       ??_C@_1M@LGGJAPPB@?$AAh?$AAi?$AA?9?$AAI?$AAN@ 0000000180097d10     libucrt:lcidtoname_downlevel.obj
 0002:00009d20       ??_C@_1M@FIKPIHFE@?$AAm?$AAt?$AA?9?$AAM?$AAT@ 0000000180097d20     libucrt:lcidtoname_downlevel.obj
 0002:00009d30       ??_C@_1M@HEGGPBFA@?$AAs?$AAe?$AA?9?$AAN?$AAO@ 0000000180097d30     libucrt:lcidtoname_downlevel.obj
 0002:00009d40       ??_C@_1M@EIBJEEPA@?$AAm?$AAs?$AA?9?$AAM?$AAY@ 0000000180097d40     libucrt:lcidtoname_downlevel.obj
 0002:00009d50       ??_C@_1M@FHLBGMPP@?$AAk?$AAk?$AA?9?$AAK?$AAZ@ 0000000180097d50     libucrt:lcidtoname_downlevel.obj
 0002:00009d60       ??_C@_1M@NGJJLCGI@?$AAk?$AAy?$AA?9?$AAK?$AAG@ 0000000180097d60     libucrt:lcidtoname_downlevel.obj
 0002:00009d70       ??_C@_1M@GIENNBFC@?$AAs?$AAw?$AA?9?$AAK?$AAE@ 0000000180097d70     libucrt:lcidtoname_downlevel.obj
 0002:00009d80       ??_C@_1BG@NDGMJIMJ@?$AAu?$AAz?$AA?9?$AAU?$AAZ?$AA?9?$AAL?$AAa?$AAt?$AAn@ 0000000180097d80     libucrt:lcidtoname_downlevel.obj
 0002:00009da0       ??_C@_1M@IDCCIHBC@?$AAt?$AAt?$AA?9?$AAR?$AAU@ 0000000180097da0     libucrt:lcidtoname_downlevel.obj
 0002:00009db0       ??_C@_1M@LOICPMOJ@?$AAb?$AAn?$AA?9?$AAI?$AAN@ 0000000180097db0     libucrt:lcidtoname_downlevel.obj
 0002:00009dc0       ??_C@_1M@KPKKNEAH@?$AAp?$AAa?$AA?9?$AAI?$AAN@ 0000000180097dc0     libucrt:lcidtoname_downlevel.obj
 0002:00009dd0       ??_C@_1M@PJGPPBOG@?$AAg?$AAu?$AA?9?$AAI?$AAN@ 0000000180097dd0     libucrt:lcidtoname_downlevel.obj
 0002:00009de0       ??_C@_1M@KMKMOPHI@?$AAt?$AAa?$AA?9?$AAI?$AAN@ 0000000180097de0     libucrt:lcidtoname_downlevel.obj
 0002:00009df0       ??_C@_1M@KFEHEPAC@?$AAt?$AAe?$AA?9?$AAI?$AAN@ 0000000180097df0     libucrt:lcidtoname_downlevel.obj
 0002:00009e00       ??_C@_1M@CDCLMGHI@?$AAk?$AAn?$AA?9?$AAI?$AAN@ 0000000180097e00     libucrt:lcidtoname_downlevel.obj
 0002:00009e10       ??_C@_1M@MIODLDKF@?$AAm?$AAl?$AA?9?$AAI?$AAN@ 0000000180097e10     libucrt:lcidtoname_downlevel.obj
 0002:00009e20       ??_C@_1M@PBIEACPO@?$AAm?$AAr?$AA?9?$AAI?$AAN@ 0000000180097e20     libucrt:lcidtoname_downlevel.obj
 0002:00009e30       ??_C@_1M@NIDEAGPH@?$AAs?$AAa?$AA?9?$AAI?$AAN@ 0000000180097e30     libucrt:lcidtoname_downlevel.obj
 0002:00009e40       ??_C@_1M@FHIHCBIO@?$AAm?$AAn?$AA?9?$AAM?$AAN@ 0000000180097e40     libucrt:lcidtoname_downlevel.obj
 0002:00009e50       ??_C@_1M@JAIJPENP@?$AAc?$AAy?$AA?9?$AAG?$AAB@ 0000000180097e50     libucrt:lcidtoname_downlevel.obj
 0002:00009e60       ??_C@_1M@PHGFBEPN@?$AAg?$AAl?$AA?9?$AAE?$AAS@ 0000000180097e60     libucrt:lcidtoname_downlevel.obj
 0002:00009e70       ??_C@_1O@KPIPDNCP@?$AAk?$AAo?$AAk?$AA?9?$AAI?$AAN@ 0000000180097e70     libucrt:lcidtoname_downlevel.obj
 0002:00009e80       ??_C@_1O@KNHJLDJA@?$AAs?$AAy?$AAr?$AA?9?$AAS?$AAY@ 0000000180097e80     libucrt:lcidtoname_downlevel.obj
 0002:00009e90       ??_C@_1O@MKEKBLAH@?$AAd?$AAi?$AAv?$AA?9?$AAM?$AAV@ 0000000180097e90     libucrt:lcidtoname_downlevel.obj
 0002:00009ea0       ??_C@_1O@OHDCKDDF@?$AAq?$AAu?$AAz?$AA?9?$AAB?$AAO@ 0000000180097ea0     libucrt:lcidtoname_downlevel.obj
 0002:00009eb0       ??_C@_1M@LEPJNLFD@?$AAn?$AAs?$AA?9?$AAZ?$AAA@ 0000000180097eb0     libucrt:lcidtoname_downlevel.obj
 0002:00009ec0       ??_C@_1M@OMLEIIJB@?$AAm?$AAi?$AA?9?$AAN?$AAZ@ 0000000180097ec0     libucrt:lcidtoname_downlevel.obj
 0002:00009ed0       ??_C@_1M@PMPEAILG@?$AAa?$AAr?$AA?9?$AAI?$AAQ@ 0000000180097ed0     libucrt:lcidtoname_downlevel.obj
 0002:00009ee0       ??_C@_1M@CNKPNOEE@?$AAd?$AAe?$AA?9?$AAC?$AAH@ 0000000180097ee0     libucrt:lcidtoname_downlevel.obj
 0002:00009ef0       ??_C@_1M@LKMGMLKO@?$AAe?$AAn?$AA?9?$AAG?$AAB@ 0000000180097ef0     libucrt:lcidtoname_downlevel.obj
 0002:00009f00       ??_C@_1M@PGKJFFGL@?$AAe?$AAs?$AA?9?$AAM?$AAX@ 0000000180097f00     libucrt:lcidtoname_downlevel.obj
 0002:00009f10       ??_C@_1M@DNNANBDC@?$AAf?$AAr?$AA?9?$AAB?$AAE@ 0000000180097f10     libucrt:lcidtoname_downlevel.obj
 0002:00009f20       ??_C@_1M@HLGMDFHM@?$AAi?$AAt?$AA?9?$AAC?$AAH@ 0000000180097f20     libucrt:lcidtoname_downlevel.obj
 0002:00009f30       ??_C@_1M@CLLBGJH@?$AAn?$AAl?$AA?9?$AAB?$AAE@ 0000000180097f30     libucrt:lcidtoname_downlevel.obj
 0002:00009f40       ??_C@_1M@BODBOGLF@?$AAn?$AAn?$AA?9?$AAN?$AAO@ 0000000180097f40     libucrt:lcidtoname_downlevel.obj
 0002:00009f50       ??_C@_1M@HFFAHKAD@?$AAp?$AAt?$AA?9?$AAP?$AAT@ 0000000180097f50     libucrt:lcidtoname_downlevel.obj
 0002:00009f60       ??_C@_1BG@LNOAKHIE@?$AAs?$AAr?$AA?9?$AAS?$AAP?$AA?9?$AAL?$AAa?$AAt?$AAn@ 0000000180097f60     libucrt:lcidtoname_downlevel.obj
 0002:00009f80       ??_C@_1M@HBMHBGAK@?$AAs?$AAv?$AA?9?$AAF?$AAI@ 0000000180097f80     libucrt:lcidtoname_downlevel.obj
 0002:00009f90       ??_C@_1BG@DGCJGJBE@?$AAa?$AAz?$AA?9?$AAA?$AAZ?$AA?9?$AAC?$AAy?$AAr?$AAl@ 0000000180097f90     libucrt:lcidtoname_downlevel.obj
 0002:00009fb0       ??_C@_1M@KEJDAAHB@?$AAs?$AAe?$AA?9?$AAS?$AAE@ 0000000180097fb0     libucrt:lcidtoname_downlevel.obj
 0002:00009fc0       ??_C@_1M@HEIBJJAD@?$AAm?$AAs?$AA?9?$AAB?$AAN@ 0000000180097fc0     libucrt:lcidtoname_downlevel.obj
 0002:00009fd0       ??_C@_1BG@PBGJMCEM@?$AAu?$AAz?$AA?9?$AAU?$AAZ?$AA?9?$AAC?$AAy?$AAr?$AAl@ 0000000180097fd0     libucrt:lcidtoname_downlevel.obj
 0002:00009ff0       ??_C@_1O@LAOBCMDF@?$AAq?$AAu?$AAz?$AA?9?$AAE?$AAC@ 0000000180097ff0     libucrt:lcidtoname_downlevel.obj
 0002:0000a000       ??_C@_1M@POEEMAIO@?$AAa?$AAr?$AA?9?$AAE?$AAG@ 0000000180098000     libucrt:lcidtoname_downlevel.obj
 0002:0000a010       ??_C@_1M@EFAKDEDL@?$AAz?$AAh?$AA?9?$AAH?$AAK@ 0000000180098010     libucrt:lcidtoname_downlevel.obj
 0002:0000a020       ??_C@_1M@HKKIJHGI@?$AAd?$AAe?$AA?9?$AAA?$AAT@ 0000000180098020     libucrt:lcidtoname_downlevel.obj
 0002:0000a030       ??_C@_1M@KBFBEHJF@?$AAe?$AAn?$AA?9?$AAA?$AAU@ 0000000180098030     libucrt:lcidtoname_downlevel.obj
 0002:0000a040       ??_C@_1M@MNPLFAAH@?$AAe?$AAs?$AA?9?$AAE?$AAS@ 0000000180098040     libucrt:lcidtoname_downlevel.obj
 0002:0000a050       ??_C@_1M@HJOOJFMA@?$AAf?$AAr?$AA?9?$AAC?$AAA@ 0000000180098050     libucrt:lcidtoname_downlevel.obj
 0002:0000a060       ??_C@_1BG@JPOFPNAB@?$AAs?$AAr?$AA?9?$AAS?$AAP?$AA?9?$AAC?$AAy?$AAr?$AAl@ 0000000180098060     libucrt:lcidtoname_downlevel.obj
 0002:0000a080       ??_C@_1M@LNFOCMOB@?$AAs?$AAe?$AA?9?$AAF?$AAI@ 0000000180098080     libucrt:lcidtoname_downlevel.obj
 0002:0000a090       ??_C@_1O@MGJBOAMB@?$AAq?$AAu?$AAz?$AA?9?$AAP?$AAE@ 0000000180098090     libucrt:lcidtoname_downlevel.obj
 0002:0000a0a0       ??_C@_1M@GJINLBOK@?$AAa?$AAr?$AA?9?$AAL?$AAY@ 00000001800980a0     libucrt:lcidtoname_downlevel.obj
 0002:0000a0b0       ??_C@_1M@GGMNHJNL@?$AAz?$AAh?$AA?9?$AAS?$AAG@ 00000001800980b0     libucrt:lcidtoname_downlevel.obj
 0002:0000a0c0       ??_C@_1M@HOIKODND@?$AAd?$AAe?$AA?9?$AAL?$AAU@ 00000001800980c0     libucrt:lcidtoname_downlevel.obj
 0002:0000a0d0       ??_C@_1M@DDOCCGFG@?$AAe?$AAn?$AA?9?$AAC?$AAA@ 00000001800980d0     libucrt:lcidtoname_downlevel.obj
 0002:0000a0e0       ??_C@_1M@BNOEMJLF@?$AAe?$AAs?$AA?9?$AAG?$AAT@ 00000001800980e0     libucrt:lcidtoname_downlevel.obj
 0002:0000a0f0       ??_C@_1M@EOGNKEK@?$AAf?$AAr?$AA?9?$AAC?$AAH@ 00000001800980f0     libucrt:lcidtoname_downlevel.obj
 0002:0000a100       ??_C@_1M@FLIDJFHL@?$AAh?$AAr?$AA?9?$AAB?$AAA@ 0000000180098100     libucrt:lcidtoname_downlevel.obj
 0002:0000a110       ??_C@_1O@FMCELNAJ@?$AAs?$AAm?$AAj?$AA?9?$AAN?$AAO@ 0000000180098110     libucrt:lcidtoname_downlevel.obj
 0002:0000a120       ??_C@_1M@JHGLJMGJ@?$AAa?$AAr?$AA?9?$AAD?$AAZ@ 0000000180098120     libucrt:lcidtoname_downlevel.obj
 0002:0000a130       ??_C@_1M@JKKFDCNP@?$AAz?$AAh?$AA?9?$AAM?$AAO@ 0000000180098130     libucrt:lcidtoname_downlevel.obj
 0002:0000a140       ??_C@_1M@GEEFALPE@?$AAd?$AAe?$AA?9?$AAL?$AAI@ 0000000180098140     libucrt:lcidtoname_downlevel.obj
 0002:0000a150       ??_C@_1M@IGEOFBG@?$AAe?$AAn?$AA?9?$AAN?$AAZ@ 0000000180098150     libucrt:lcidtoname_downlevel.obj
 0002:0000a160       ??_C@_1M@KDBONEHP@?$AAe?$AAs?$AA?9?$AAC?$AAR@ 0000000180098160     libucrt:lcidtoname_downlevel.obj
 0002:0000a170       ??_C@_1M@FHMDOHNN@?$AAf?$AAr?$AA?9?$AAL?$AAU@ 0000000180098170     libucrt:lcidtoname_downlevel.obj
 0002:0000a180       ??_C@_1BG@NFKKMAFG@?$AAb?$AAs?$AA?9?$AAB?$AAA?$AA?9?$AAL?$AAa?$AAt?$AAn@ 0000000180098180     libucrt:lcidtoname_downlevel.obj
 0002:0000a1a0       ??_C@_1O@IMNBEMCI@?$AAs?$AAm?$AAj?$AA?9?$AAS?$AAE@ 00000001800981a0     libucrt:lcidtoname_downlevel.obj
 0002:0000a1b0       ??_C@_1M@DHHMBNDP@?$AAa?$AAr?$AA?9?$AAM?$AAA@ 00000001800981b0     libucrt:lcidtoname_downlevel.obj
 0002:0000a1c0       ??_C@_1M@BNBLJCGH@?$AAe?$AAn?$AA?9?$AAI?$AAE@ 00000001800981c0     libucrt:lcidtoname_downlevel.obj
 0002:0000a1d0       ??_C@_1M@GEPAFMDL@?$AAe?$AAs?$AA?9?$AAP?$AAA@ 00000001800981d0     libucrt:lcidtoname_downlevel.obj
 0002:0000a1e0       ??_C@_1M@OJONDMDL@?$AAf?$AAr?$AA?9?$AAM?$AAC@ 00000001800981e0     libucrt:lcidtoname_downlevel.obj
 0002:0000a1f0       ??_C@_1BG@OBCNFJB@?$AAs?$AAr?$AA?9?$AAB?$AAA?$AA?9?$AAL?$AAa?$AAt?$AAn@ 00000001800981f0     libucrt:lcidtoname_downlevel.obj
 0002:0000a210       ??_C@_1O@KEMEEGPO@?$AAs?$AAm?$AAa?$AA?9?$AAN?$AAO@ 0000000180098210     libucrt:lcidtoname_downlevel.obj
 0002:0000a220       ??_C@_1M@ELMGFODK@?$AAa?$AAr?$AA?9?$AAT?$AAN@ 0000000180098220     libucrt:lcidtoname_downlevel.obj
 0002:0000a230       ??_C@_1M@BHDLHFAF@?$AAe?$AAn?$AA?9?$AAZ?$AAA@ 0000000180098230     libucrt:lcidtoname_downlevel.obj
 0002:0000a240       ??_C@_1M@BMGIGLIF@?$AAe?$AAs?$AA?9?$AAD?$AAO@ 0000000180098240     libucrt:lcidtoname_downlevel.obj
 0002:0000a250       ??_C@_1BG@CMBHIPBE@?$AAs?$AAr?$AA?9?$AAB?$AAA?$AA?9?$AAC?$AAy?$AAr?$AAl@ 0000000180098250     libucrt:lcidtoname_downlevel.obj
 0002:0000a270       ??_C@_1O@HEDBLHNP@?$AAs?$AAm?$AAa?$AA?9?$AAS?$AAE@ 0000000180098270     libucrt:lcidtoname_downlevel.obj
 0002:0000a280       ??_C@_1M@DAGCADIM@?$AAa?$AAr?$AA?9?$AAO?$AAM@ 0000000180098280     libucrt:lcidtoname_downlevel.obj
 0002:0000a290       ??_C@_1M@FODLMICG@?$AAe?$AAn?$AA?9?$AAJ?$AAM@ 0000000180098290     libucrt:lcidtoname_downlevel.obj
 0002:0000a2a0       ??_C@_1M@DNMLCIHB@?$AAe?$AAs?$AA?9?$AAV?$AAE@ 00000001800982a0     libucrt:lcidtoname_downlevel.obj
 0002:0000a2b0       ??_C@_1O@EOKHMKJK@?$AAs?$AAm?$AAs?$AA?9?$AAF?$AAI@ 00000001800982b0     libucrt:lcidtoname_downlevel.obj
