 win32_apart

 Timestamp is 685c3b8c (Wed Jun 25 14:10:20 2025)

 Preferred load address is 0000000140000000

 Start         Length     Name                   Class
 0001:00000000 00061390H .text$mn                CODE
 0001:00061390 00000060H .text$mn$00             CODE
 0001:000613f0 00000bd0H .text$mn$21             CODE
 0001:00061fc0 00000a40H .text$x                 CODE
 0002:00000000 00000438H .idata$5                DATA
 0002:00000438 00000038H .00cfg                  DATA
 0002:00000470 00000008H .CRT$XCA                DATA
 0002:00000478 00000008H .CRT$XCAA               DATA
 0002:00000480 00000008H .CRT$XCZ                DATA
 0002:00000488 00000008H .CRT$XIA                DATA
 0002:00000490 00000008H .CRT$XIAA               DATA
 0002:00000498 00000008H .CRT$XIAC               DATA
 0002:000004a0 00000020H .CRT$XIC                DATA
 0002:000004c0 00000008H .CRT$XIZ                DATA
 0002:000004c8 00000008H .CRT$XPA                DATA
 0002:000004d0 00000010H .CRT$XPX                DATA
 0002:000004e0 00000008H .CRT$XPXA               DATA
 0002:000004e8 00000008H .CRT$XPZ                DATA
 0002:000004f0 00000008H .CRT$XTA                DATA
 0002:000004f8 00000008H .CRT$XTZ                DATA
 0002:00000500 00000000H .gehcont$y              DATA
 0002:00000500 00000000H .gfids$y                DATA
 0002:00000500 0000b170H .rdata                  DATA
 0002:0000b670 00000190H .rdata$00               DATA
 0002:0000b800 00000080H .rdata$CastGuardVftablesA DATA
 0002:0000b880 00000080H .rdata$CastGuardVftablesC DATA
 0002:0000b900 00000464H .rdata$r                DATA
 0002:0000bd64 00000818H .rdata$voltmd           DATA
 0002:0000c57c 000003ecH .rdata$zzzdbg           DATA
 0002:0000c968 00000008H .rtc$IAA                DATA
 0002:0000c970 00000008H .rtc$IZZ                DATA
 0002:0000c978 00000008H .rtc$TAA                DATA
 0002:0000c980 00000008H .rtc$TZZ                DATA
 0002:0000c988 00006390H .xdata                  DATA
 0002:00012d18 00000084H .xdata$x                DATA
 0002:00012d9c 00000000H .edata                  DATA
 0002:00012d9c 00000050H .idata$2                DATA
 0002:00012dec 00000014H .idata$3                DATA
 0002:00012e00 00000438H .idata$4                DATA
 0002:00013238 00000976H .idata$6                DATA
 0003:00000000 00000ae0H .data                   DATA
 0003:00000ae0 00000078H .data$r                 DATA
 0003:00000b58 000000f8H .data$rs                DATA
 0003:00000c50 00001a20H .bss                    DATA
 0004:00000000 00004b60H .pdata                  DATA
 0005:00000000 000001f4H _RDATA                  DATA
 0006:00000000 00000100H .fptable                DATA

  Address         Publics by Value              Rva+Base               Lib:Object

 0000:00000000       __AbsoluteZero             0000000000000000     <absolute>
 0000:00000000       ___safe_se_handler_count   0000000000000000     <absolute>
 0000:00000000       ___safe_se_handler_table   0000000000000000     <absolute>
 0000:00000000       __arm64x_extra_rfe_table   0000000000000000     <absolute>
 0000:00000000       __arm64x_extra_rfe_table_size 0000000000000000     <absolute>
 0000:00000000       __arm64x_native_entrypoint 0000000000000000     <absolute>
 0000:00000000       __arm64x_redirection_metadata 0000000000000000     <absolute>
 0000:00000000       __arm64x_redirection_metadata_count 0000000000000000     <absolute>
 0000:00000000       __dynamic_value_reloc_table 0000000000000000     <absolute>
 0000:00000000       __enclave_config           0000000000000000     <absolute>
 0000:00000000       __guard_check_icall_a64n_fptr 0000000000000000     <absolute>
 0000:00000000       __guard_eh_cont_count      0000000000000000     <absolute>
 0000:00000000       __guard_eh_cont_table      0000000000000000     <absolute>
 0000:00000000       __guard_fids_count         0000000000000000     <absolute>
 0000:00000000       __guard_fids_table         0000000000000000     <absolute>
 0000:00000000       __guard_iat_count          0000000000000000     <absolute>
 0000:00000000       __guard_iat_table          0000000000000000     <absolute>
 0000:00000000       __guard_longjmp_count      0000000000000000     <absolute>
 0000:00000000       __guard_longjmp_table      0000000000000000     <absolute>
 0000:00000000       __hybrid_auxiliary_delayload_iat 0000000000000000     <absolute>
 0000:00000000       __hybrid_auxiliary_delayload_iat_copy 0000000000000000     <absolute>
 0000:00000000       __hybrid_auxiliary_iat     0000000000000000     <absolute>
 0000:00000000       __hybrid_auxiliary_iat_copy 0000000000000000     <absolute>
 0000:00000000       __hybrid_code_map          0000000000000000     <absolute>
 0000:00000000       __hybrid_code_map_count    0000000000000000     <absolute>
 0000:00000000       __hybrid_image_info_bitfield 0000000000000000     <absolute>
 0000:00000000       __x64_code_ranges_to_entry_points 0000000000000000     <absolute>
 0000:00000000       __x64_code_ranges_to_entry_points_count 0000000000000000     <absolute>
 0000:00000100       __guard_flags              0000000000000100     <absolute>
 0000:00000000       __ImageBase                0000000140000000     <linker-defined>
 0001:00000000       ?PushSize_@@YAPEAXPEAUmemory_arena@@_K@Z 0000000140001000 f   win32_apart.obj
 0001:00000070       WinMain                    0000000140001070 f   win32_apart.obj
 0001:00001370       ?XInputGetStateStub@@YAKKPEAU_XINPUT_STATE@@@Z 0000000140002370 f   win32_apart.obj
 0001:00001390       ?XInputSetStateStub@@YAKKPEAU_XINPUT_STATE@@@Z 0000000140002390 f   win32_apart.obj
 0001:000013b0       ?DEBUGPlatformFreeFileMemory@@YAXPEAUthread_context@@PEAX@Z 00000001400023b0 f   win32_apart.obj
 0001:000013e0       ?DEBUGPlatformReadEntireFile@@YA?AUdebug_read_file_result@@PEAUthread_context@@PEAD@Z 00000001400023e0 f   win32_apart.obj
 0001:00001530       ?DEBUGPlatformWriteEntireFile@@YAHPEAUthread_context@@PEADIPEAX@Z 0000000140002530 f   win32_apart.obj
 0001:00001600       ?DEBUGPlatformWriteToFile@@YAHPEAUdebug_open_file_result@@PEAXI@Z 0000000140002600 f   win32_apart.obj
 0001:00001690       ?DEBUGPlatformOpenFile@@YA?AUdebug_open_file_result@@PEAD@Z 0000000140002690 f   win32_apart.obj
 0001:00001740       ?DEBUGPlatformCloseFile@@YAHPEAUdebug_open_file_result@@@Z 0000000140002740 f   win32_apart.obj
 0001:00002410       ?Win32MainWindowProc@@YA_JPEAUHWND__@@I_K_J@Z 0000000140003410 f   win32_apart.obj
 0001:00003350       ??$sprintf_s@$0PK@@@YAHAEAY0PK@DPEBDZZ 0000000140004350 f i win32_apart.obj
 0001:00003390       ?GetController@@YAPEAUgame_controller_input@@PEAUgame_input@@I@Z 0000000140004390 f i win32_apart.obj
 0001:000033c0       ?SafeTruncateUInt64@@YAI_K@Z 00000001400043c0 f i win32_apart.obj
 0001:000033f0       ?Win32GetLastWriteTime@@YA?AU_FILETIME@@PEAD@Z 00000001400043f0 f i win32_apart.obj
 0001:00003460       ?Win32GetSecondsElapsed@@YAMT_LARGE_INTEGER@@0@Z 0000000140004460 f i win32_apart.obj
 0001:000034a0       ?Win32GetWallClock@@YA?AT_LARGE_INTEGER@@XZ 00000001400044a0 f i win32_apart.obj
 0001:000034c0       __local_stdio_printf_options 00000001400044c0 f i win32_apart.obj
 0001:000034d0       _vsprintf_s_l              00000001400044d0 f i win32_apart.obj
 0001:00003540       vsprintf_s                 0000000140004540 f i win32_apart.obj
 0001:0000357e       wsprintfA                  000000014000457e f   user32:USER32.dll
 0001:00003584       TranslateMessage           0000000140004584 f   user32:USER32.dll
 0001:0000358a       DispatchMessageA           000000014000458a f   user32:USER32.dll
 0001:00003590       PeekMessageA               0000000140004590 f   user32:USER32.dll
 0001:00003596       DefWindowProcA             0000000140004596 f   user32:USER32.dll
 0001:0000359c       RegisterClassA             000000014000459c f   user32:USER32.dll
 0001:000035a2       CreateWindowExA            00000001400045a2 f   user32:USER32.dll
 0001:000035a8       SetWindowPos               00000001400045a8 f   user32:USER32.dll
 0001:000035ae       GetWindowPlacement         00000001400045ae f   user32:USER32.dll
 0001:000035b4       SetWindowPlacement         00000001400045b4 f   user32:USER32.dll
 0001:000035ba       GetKeyState                00000001400045ba f   user32:USER32.dll
 0001:000035c0       GetDC                      00000001400045c0 f   user32:USER32.dll
 0001:000035c6       ReleaseDC                  00000001400045c6 f   user32:USER32.dll
 0001:000035cc       BeginPaint                 00000001400045cc f   user32:USER32.dll
 0001:000035d2       EndPaint                   00000001400045d2 f   user32:USER32.dll
 0001:000035d8       GetClientRect              00000001400045d8 f   user32:USER32.dll
 0001:000035de       GetCursorPos               00000001400045de f   user32:USER32.dll
 0001:000035e4       ScreenToClient             00000001400045e4 f   user32:USER32.dll
 0001:000035ea       GetWindowLongA             00000001400045ea f   user32:USER32.dll
 0001:000035f0       SetWindowLongA             00000001400045f0 f   user32:USER32.dll
 0001:000035f6       MonitorFromWindow          00000001400045f6 f   user32:USER32.dll
 0001:000035fc       GetMonitorInfoA            00000001400045fc f   user32:USER32.dll
 0001:00003602       GetDeviceCaps              0000000140004602 f   gdi32:GDI32.dll
 0001:00003608       PatBlt                     0000000140004608 f   gdi32:GDI32.dll
 0001:0000360e       StretchDIBits              000000014000460e f   gdi32:GDI32.dll
 0001:00003614       timeBeginPeriod            0000000140004614 f   winmm:WINMM.dll
 0001:0000361c       __GSHandlerCheck           000000014000461c f   LIBCMT:gshandler.obj
 0001:0000363c       __GSHandlerCheckCommon     000000014000463c f   LIBCMT:gshandler.obj
 0001:000036b0       __chkstk                   00000001400046b0 f   LIBCMT:chkstk.obj
 0001:000036b0       _alloca_probe              00000001400046b0 f   LIBCMT:chkstk.obj
 0001:00003710       __security_check_cookie    0000000140004710 f   LIBCMT:amdsecgs.obj
 0001:0000399c       ?configure_argv@__scrt_narrow_argv_policy@@SAHXZ 000000014000499c f i LIBCMT:exe_winmain.obj
 0001:000039b0       ?initialize_environment@__scrt_narrow_environment_policy@@SAHXZ 00000001400049b0 f i LIBCMT:exe_winmain.obj
 0001:000039e4       ?set_app_type@__scrt_winmain_policy@@SAXXZ 00000001400049e4 f i LIBCMT:exe_winmain.obj
 0001:000039f0       ?set_commode@__scrt_file_policy@@SAXXZ 00000001400049f0 f i LIBCMT:exe_winmain.obj
 0001:00003a0c       ?set_fmode@__scrt_file_policy@@SAXXZ 0000000140004a0c f i LIBCMT:exe_winmain.obj
 0001:00003a20       WinMainCRTStartup          0000000140004a20 f   LIBCMT:exe_winmain.obj
 0001:00003a34       __raise_securityfailure    0000000140004a34 f   LIBCMT:gs_report.obj
 0001:00003a68       __report_gsfailure         0000000140004a68 f   LIBCMT:gs_report.obj
 0001:00003b3c       __report_rangecheckfailure 0000000140004b3c f   LIBCMT:gs_report.obj
 0001:00003b50       __report_securityfailure   0000000140004b50 f   LIBCMT:gs_report.obj
 0001:00003bec       __report_securityfailureEx 0000000140004bec f   LIBCMT:gs_report.obj
 0001:00003e5c       NtCurrentTeb               0000000140004e5c f i LIBCMT:utility.obj
 0001:00003e68       __scrt_acquire_startup_lock 0000000140004e68 f   LIBCMT:utility.obj
 0001:00003ea4       __scrt_dllmain_after_initialize_c 0000000140004ea4 f   LIBCMT:utility.obj
 0001:00003ed8       __scrt_dllmain_before_initialize_c 0000000140004ed8 f   LIBCMT:utility.obj
 0001:00003ef0       __scrt_dllmain_crt_thread_attach 0000000140004ef0 f   LIBCMT:utility.obj
 0001:00003f18       __scrt_dllmain_crt_thread_detach 0000000140004f18 f   LIBCMT:utility.obj
 0001:00003f30       __scrt_dllmain_exception_filter 0000000140004f30 f   LIBCMT:utility.obj
 0001:00003f90       __scrt_dllmain_uninitialize_c 0000000140004f90 f   LIBCMT:utility.obj
 0001:00003fc0       __scrt_dllmain_uninitialize_critical 0000000140004fc0 f   LIBCMT:utility.obj
 0001:00003fd4       __scrt_initialize_crt      0000000140004fd4 f   LIBCMT:utility.obj
 0001:00004010       __scrt_initialize_onexit_tables 0000000140005010 f   LIBCMT:utility.obj
 0001:0000409c       __scrt_is_nonwritable_in_current_image 000000014000509c f   LIBCMT:utility.obj
 0001:00004134       __scrt_release_startup_lock 0000000140005134 f   LIBCMT:utility.obj
 0001:00004158       __scrt_uninitialize_crt    0000000140005158 f   LIBCMT:utility.obj
 0001:00004184       _onexit                    0000000140005184 f   LIBCMT:utility.obj
 0001:000041c0       at_quick_exit              00000001400051c0 f   LIBCMT:utility.obj
 0001:000041e0       atexit                     00000001400051e0 f   LIBCMT:utility.obj
 0001:00004264       __security_init_cookie     0000000140005264 f   LIBCMT:gs_support.obj
 0001:00004310       _matherr                   0000000140005310 f   LIBCMT:matherr.obj
 0001:00004314       _get_startup_argv_mode     0000000140005314 f   LIBCMT:argv_mode.obj
 0001:0000431c       _get_startup_commit_mode   000000014000531c f   LIBCMT:commit_mode.obj
 0001:00004320       _get_startup_file_mode     0000000140005320 f   LIBCMT:file_mode.obj
 0001:00004328       _get_startup_new_mode      0000000140005328 f   LIBCMT:new_mode.obj
 0001:0000432c       _get_startup_thread_locale_mode 000000014000532c f   LIBCMT:thread_locale.obj
 0001:00004330       ?__scrt_initialize_type_info@@YAXXZ 0000000140005330 f   LIBCMT:tncleanup.obj
 0001:00004340       ?__scrt_uninitialize_type_info@@YAXXZ 0000000140005340 f   LIBCMT:tncleanup.obj
 0001:0000434c       _should_initialize_environment 000000014000534c f   LIBCMT:env_mode.obj
 0001:00004350       _initialize_invalid_parameter_handler 0000000140005350 f   LIBCMT:invalid_parameter_handler.obj
 0001:00004354       _initialize_denormal_control 0000000140005354 f   LIBCMT:denormal_control.obj
 0001:00004358       __local_stdio_scanf_options 0000000140005358 f i LIBCMT:default_local_stdio_options.obj
 0001:00004360       __scrt_initialize_default_local_stdio_options 0000000140005360 f   LIBCMT:default_local_stdio_options.obj
 0001:0000437c       __scrt_is_user_matherr_present 000000014000537c f   LIBCMT:matherr_detection.obj
 0001:00004388       __scrt_get_dyn_tls_init_callback 0000000140005388 f   LIBCMT:dyn_tls_init.obj
 0001:00004390       __scrt_get_dyn_tls_dtor_callback 0000000140005390 f   LIBCMT:dyn_tls_dtor.obj
 0001:00004398       __crt_debugger_hook        0000000140005398 f   LIBCMT:utility_desktop.obj
 0001:000043a0       __scrt_fastfail            00000001400053a0 f   LIBCMT:utility_desktop.obj
 0001:000044e8       __scrt_get_show_window_mode 00000001400054e8 f   LIBCMT:utility_desktop.obj
 0001:00004524       __scrt_initialize_mta      0000000140005524 f   LIBCMT:utility_desktop.obj
 0001:0000452c       __scrt_initialize_winrt    000000014000552c f   LIBCMT:utility_desktop.obj
 0001:00004530       __scrt_is_managed_app      0000000140005530 f   LIBCMT:utility_desktop.obj
 0001:00004584       __scrt_set_unhandled_exception_filter 0000000140005584 f   LIBCMT:utility_desktop.obj
 0001:00004594       __scrt_exe_initialize_mta  0000000140005594 f   LIBCMT:utility_desktop.obj
 0001:00004594       __scrt_stub_for_initialize_mta 0000000140005594 f   LIBCMT:utility_desktop.obj
 0001:00004598       __scrt_unhandled_exception_filter 0000000140005598 f   LIBCMT:utility_desktop.obj
 0001:000045f4       _RTC_Initialize            00000001400055f4 f   LIBCMT:initsect.obj
 0001:00004630       _RTC_Terminate             0000000140005630 f   LIBCMT:initsect.obj
 0001:0000466c       _guard_check_icall_nop     000000014000566c f i LIBCMT:guard_support.obj
 0001:00004670       ReadNoFence64              0000000140005670 f i LIBCMT:guard_support.obj
 0001:00004674       ReadPointerNoFence         0000000140005674 f i LIBCMT:guard_support.obj
 0001:00004678       __castguard_check_failure_debugbreak 0000000140005678 f i LIBCMT:guard_support.obj
 0001:00004694       __castguard_check_failure_fastfail 0000000140005694 f i LIBCMT:guard_support.obj
 0001:000046b8       __castguard_check_failure_nop 00000001400056b8 f i LIBCMT:guard_support.obj
 0001:000046bc       __castguard_check_failure_os_handled 00000001400056bc f i LIBCMT:guard_support.obj
 0001:00004708       __castguard_check_failure_user_handled 0000000140005708 f i LIBCMT:guard_support.obj
 0001:0000477c       __castguard_set_user_handler 000000014000577c f i LIBCMT:guard_support.obj
 0001:00004788       __castguard_slow_path_check_debugbreak 0000000140005788 f i LIBCMT:guard_support.obj
 0001:000047bc       __castguard_slow_path_check_fastfail 00000001400057bc f i LIBCMT:guard_support.obj
 0001:000047f8       __castguard_slow_path_check_nop 00000001400057f8 f i LIBCMT:guard_support.obj
 0001:000047fc       __castguard_slow_path_check_os_handled 00000001400057fc f i LIBCMT:guard_support.obj
 0001:00004848       __castguard_slow_path_check_user_handled 0000000140005848 f i LIBCMT:guard_support.obj
 0001:000048b4       _guard_icall_checks_enforced 00000001400058b4 f i LIBCMT:guard_support.obj
 0001:000048cc       _guard_rf_checks_enforced  00000001400058cc f i LIBCMT:guard_support.obj
 0001:000048d0       __isa_available_init       00000001400058d0 f   LIBCMT:cpu_disp.obj
 0001:00004a7c       __scrt_is_ucrt_dll_in_use  0000000140005a7c f   LIBCMT:ucrt_detection.obj
 0001:00004a90       CompareFileTime            0000000140005a90 f   kernel32:KERNEL32.dll
 0001:00004a96       CreateFileA                0000000140005a96 f   kernel32:KERNEL32.dll
 0001:00004a9c       GetFileAttributesExA       0000000140005a9c f   kernel32:KERNEL32.dll
 0001:00004aa2       GetFileSizeEx              0000000140005aa2 f   kernel32:KERNEL32.dll
 0001:00004aa8       ReadFile                   0000000140005aa8 f   kernel32:KERNEL32.dll
 0001:00004aae       WriteFile                  0000000140005aae f   kernel32:KERNEL32.dll
 0001:00004ab4       OutputDebugStringA         0000000140005ab4 f   kernel32:KERNEL32.dll
 0001:00004aba       CloseHandle                0000000140005aba f   kernel32:KERNEL32.dll
 0001:00004ac0       GetLastError               0000000140005ac0 f   kernel32:KERNEL32.dll
 0001:00004ac6       QueryPerformanceCounter    0000000140005ac6 f   kernel32:KERNEL32.dll
 0001:00004acc       QueryPerformanceFrequency  0000000140005acc f   kernel32:KERNEL32.dll
 0001:00004ad2       Sleep                      0000000140005ad2 f   kernel32:KERNEL32.dll
 0001:00004ad8       VirtualAlloc               0000000140005ad8 f   kernel32:KERNEL32.dll
 0001:00004ade       VirtualFree                0000000140005ade f   kernel32:KERNEL32.dll
 0001:00004ae4       MapViewOfFile              0000000140005ae4 f   kernel32:KERNEL32.dll
 0001:00004aea       FreeLibrary                0000000140005aea f   kernel32:KERNEL32.dll
 0001:00004af0       GetModuleFileNameA         0000000140005af0 f   kernel32:KERNEL32.dll
 0001:00004af6       GetProcAddress             0000000140005af6 f   kernel32:KERNEL32.dll
 0001:00004afc       CreateFileMappingA         0000000140005afc f   kernel32:KERNEL32.dll
 0001:00004b02       LoadLibraryA               0000000140005b02 f   kernel32:KERNEL32.dll
 0001:00004b08       CopyFileA                  0000000140005b08 f   kernel32:KERNEL32.dll
 0001:00004b0e       RtlCaptureContext          0000000140005b0e f   kernel32:KERNEL32.dll
 0001:00004b14       RtlLookupFunctionEntry     0000000140005b14 f   kernel32:KERNEL32.dll
 0001:00004b1a       RtlVirtualUnwind           0000000140005b1a f   kernel32:KERNEL32.dll
 0001:00004b20       UnhandledExceptionFilter   0000000140005b20 f   kernel32:KERNEL32.dll
 0001:00004b26       SetUnhandledExceptionFilter 0000000140005b26 f   kernel32:KERNEL32.dll
 0001:00004b2c       GetCurrentProcess          0000000140005b2c f   kernel32:KERNEL32.dll
 0001:00004b32       TerminateProcess           0000000140005b32 f   kernel32:KERNEL32.dll
 0001:00004b38       IsProcessorFeaturePresent  0000000140005b38 f   kernel32:KERNEL32.dll
 0001:00004b3e       GetCurrentProcessId        0000000140005b3e f   kernel32:KERNEL32.dll
 0001:00004b44       GetCurrentThreadId         0000000140005b44 f   kernel32:KERNEL32.dll
 0001:00004b4a       GetSystemTimeAsFileTime    0000000140005b4a f   kernel32:KERNEL32.dll
 0001:00004b50       InitializeSListHead        0000000140005b50 f   kernel32:KERNEL32.dll
 0001:00004b56       IsDebuggerPresent          0000000140005b56 f   kernel32:KERNEL32.dll
 0001:00004b5c       GetStartupInfoW            0000000140005b5c f   kernel32:KERNEL32.dll
 0001:00004b62       GetModuleHandleW           0000000140005b62 f   kernel32:KERNEL32.dll
 0001:00004b68       __C_specific_handler       0000000140005b68 f   libvcruntime:riscchandler.obj
 0001:00004d80       __vcrt_initialize          0000000140005d80 f   libvcruntime:initialization.obj
 0001:00004da8       __vcrt_thread_attach       0000000140005da8 f   libvcruntime:initialization.obj
 0001:00004dbc       __vcrt_thread_detach       0000000140005dbc f   libvcruntime:initialization.obj
 0001:00004dcc       __vcrt_uninitialize        0000000140005dcc f   libvcruntime:initialization.obj
 0001:00004de8       __vcrt_uninitialize_critical 0000000140005de8 f   libvcruntime:initialization.obj
 0001:00004e0c       ??$?RD@__crt_internal_free_policy@@QEBAXQEBD@Z 0000000140005e0c f i libvcruntime:std_type_info.obj
 0001:00004e14       ??$?RX@__crt_internal_free_policy@@QEBAXQEBX@Z 0000000140005e14 f i libvcruntime:std_type_info.obj
 0001:00004e1c       ??$__crt_interlocked_compare_exchange_pointer@$$CBDPEAD$$T@@YAPEBDPEDSEBDQEAD$$T@Z 0000000140005e1c f i libvcruntime:std_type_info.obj
 0001:00004e28       ??$__crt_interlocked_read_pointer@$$CBD@@YAPEBDPEDSEBD@Z 0000000140005e28 f i libvcruntime:std_type_info.obj
 0001:00004e30       ??0?$__crt_unique_heap_ptr@DU__crt_internal_free_policy@@@@QEAA@QEAD@Z 0000000140005e30 f i libvcruntime:std_type_info.obj
 0001:00004e38       ??0?$__crt_unique_heap_ptr@XU__crt_internal_free_policy@@@@QEAA@QEAX@Z 0000000140005e38 f i libvcruntime:std_type_info.obj
 0001:00004e40       ??1?$__crt_unique_heap_ptr@DU__crt_internal_free_policy@@@@QEAA@XZ 0000000140005e40 f i libvcruntime:std_type_info.obj
 0001:00004e5c       ??1?$__crt_unique_heap_ptr@XU__crt_internal_free_policy@@@@QEAA@XZ 0000000140005e5c f i libvcruntime:std_type_info.obj
 0001:00004e78       ??B?$__crt_unique_heap_ptr@DU__crt_internal_free_policy@@@@QEBA_NXZ 0000000140005e78 f i libvcruntime:std_type_info.obj
 0001:00004e80       ??B?$__crt_unique_heap_ptr@XU__crt_internal_free_policy@@@@QEBA_NXZ 0000000140005e80 f i libvcruntime:std_type_info.obj
 0001:00004e98       ?__crt_interlocked_read_64@@YA_JPED_J@Z 0000000140005e98 f i libvcruntime:std_type_info.obj
 0001:00004ea0       ?detach@?$__crt_unique_heap_ptr@XU__crt_internal_free_policy@@@@QEAAPEAXXZ 0000000140005ea0 f i libvcruntime:std_type_info.obj
 0001:00004ea8       ?get@?$__crt_unique_heap_ptr@DU__crt_internal_free_policy@@@@QEBAPEADXZ 0000000140005ea8 f i libvcruntime:std_type_info.obj
 0001:00004eac       ?get@?$__crt_unique_heap_ptr@XU__crt_internal_free_policy@@@@QEBAPEAXXZ 0000000140005eac f i libvcruntime:std_type_info.obj
 0001:00004eb0       ?is_valid@?$__crt_unique_heap_ptr@DU__crt_internal_free_policy@@@@QEBA_NXZ 0000000140005eb0 f i libvcruntime:std_type_info.obj
 0001:00004eb8       ?is_valid@?$__crt_unique_heap_ptr@XU__crt_internal_free_policy@@@@QEBA_NXZ 0000000140005eb8 f i libvcruntime:std_type_info.obj
 0001:00004ec0       ?release@?$__crt_unique_heap_ptr@DU__crt_internal_free_policy@@@@QEAAXXZ 0000000140005ec0 f i libvcruntime:std_type_info.obj
 0001:00004edc       ?release@?$__crt_unique_heap_ptr@XU__crt_internal_free_policy@@@@QEAAXXZ 0000000140005edc f i libvcruntime:std_type_info.obj
 0001:00004ef8       __std_type_info_compare    0000000140005ef8 f   libvcruntime:std_type_info.obj
 0001:00004f20       __std_type_info_destroy_list 0000000140005f20 f   libvcruntime:std_type_info.obj
 0001:00004f4c       __std_type_info_hash       0000000140005f4c f   libvcruntime:std_type_info.obj
 0001:00004f84       __std_type_info_name       0000000140005f84 f   libvcruntime:std_type_info.obj
 0001:0000509c       __DestructExceptionObject  000000014000609c f   libvcruntime:ehhelpers.obj
 0001:0000510c       ?_CallMemberFunction0@@YAXQEAX0@Z 000000014000610c f i libvcruntime:ehhelpers.obj
 0001:00005168       ?raw_name@type_info@@QEBAPEBDXZ 0000000140006168 f i libvcruntime:ehhelpers.obj
 0001:00005170       _IsExceptionObjectToBeDestroyed 0000000140006170 f   libvcruntime:ehhelpers.obj
 0001:000051a0       _SetWinRTOutOfMemoryExceptionCallback 00000001400061a0 f   libvcruntime:ehhelpers.obj
 0001:000051a8       __AdjustPointer            00000001400061a8 f   libvcruntime:ehhelpers.obj
 0001:000051cc       __FrameUnwindFilter        00000001400061cc f   libvcruntime:ehhelpers.obj
 0001:00005234       __GetPlatformExceptionInfo 0000000140006234 f   libvcruntime:ehhelpers.obj
 0001:00005290       __current_exception        0000000140006290 f   libvcruntime:ehhelpers.obj
 0001:000052a4       __current_exception_context 00000001400062a4 f   libvcruntime:ehhelpers.obj
 0001:000052b8       __processing_throw         00000001400062b8 f   libvcruntime:ehhelpers.obj
 0001:000052cc       __std_terminate            00000001400062cc f   libvcruntime:ehhelpers.obj
 0001:000052d8       _is_exception_typeof       00000001400062d8 f   libvcruntime:ehhelpers.obj
 0001:000053b0       _NLG_Notify                00000001400063b0 f   libvcruntime:notify.obj
 0001:000053d0       __NLG_Dispatch2            00000001400063d0 f   libvcruntime:notify.obj
 0001:000053e0       __NLG_Return2              00000001400063e0 f   libvcruntime:notify.obj
 0001:000053ec       __except_validate_context_record 00000001400063ec f   libvcruntime:jbcxrval.obj
 0001:00005424       __except_validate_jump_buffer 0000000140006424 f   libvcruntime:jbcxrval.obj
 0001:00005464       __except_validate_jump_buffer_common 0000000140006464 f i libvcruntime:jbcxrval.obj
 0001:000054c0       ??$?RU__vcrt_ptd@@@__crt_internal_free_policy@@QEBAXQEBU__vcrt_ptd@@@Z 00000001400064c0 f i libvcruntime:per_thread_data.obj
 0001:000054c8       ??0?$__crt_unique_heap_ptr@U__vcrt_ptd@@U__crt_internal_free_policy@@@@QEAA@QEAU__vcrt_ptd@@@Z 00000001400064c8 f i libvcruntime:per_thread_data.obj
 0001:000054ec       ??1?$__crt_unique_heap_ptr@U__vcrt_ptd@@U__crt_internal_free_policy@@@@QEAA@XZ 00000001400064ec f i libvcruntime:per_thread_data.obj
 0001:00005514       ??B?$__crt_unique_heap_ptr@U__vcrt_ptd@@U__crt_internal_free_policy@@@@QEBA_NXZ 0000000140006514 f i libvcruntime:per_thread_data.obj
 0001:0000551c       ?detach@?$__crt_unique_heap_ptr@U__vcrt_ptd@@U__crt_internal_free_policy@@@@QEAAPEAU__vcrt_ptd@@XZ 000000014000651c f i libvcruntime:per_thread_data.obj
 0001:00005524       ?get@?$__crt_unique_heap_ptr@U__vcrt_ptd@@U__crt_internal_free_policy@@@@QEBAPEAU__vcrt_ptd@@XZ 0000000140006524 f i libvcruntime:per_thread_data.obj
 0001:00005528       ?is_valid@?$__crt_unique_heap_ptr@U__vcrt_ptd@@U__crt_internal_free_policy@@@@QEBA_NXZ 0000000140006528 f i libvcruntime:per_thread_data.obj
 0001:00005530       ?release@?$__crt_unique_heap_ptr@U__vcrt_ptd@@U__crt_internal_free_policy@@@@QEAAXXZ 0000000140006530 f i libvcruntime:per_thread_data.obj
 0001:00005578       __vcrt_freefls             0000000140006578 f   libvcruntime:per_thread_data.obj
 0001:00005598       __vcrt_freeptd_for_this_thread 0000000140006598 f   libvcruntime:per_thread_data.obj
 0001:000055e0       __vcrt_getptd              00000001400065e0 f   libvcruntime:per_thread_data.obj
 0001:000055fc       __vcrt_getptd_noexit       00000001400065fc f   libvcruntime:per_thread_data.obj
 0001:000056bc       __vcrt_getptd_noinit       00000001400066bc f   libvcruntime:per_thread_data.obj
 0001:0000570c       __vcrt_initialize_ptd      000000014000670c f   libvcruntime:per_thread_data.obj
 0001:00005754       __vcrt_uninitialize_ptd    0000000140006754 f   libvcruntime:per_thread_data.obj
 0001:00005778       __vcrt_initialize_locks    0000000140006778 f   libvcruntime:locks.obj
 0001:000057c0       __vcrt_lock                00000001400067c0 f   libvcruntime:locks.obj
 0001:000057dc       __vcrt_uninitialize_locks  00000001400067dc f   libvcruntime:locks.obj
 0001:00005814       __vcrt_unlock              0000000140006814 f   libvcruntime:locks.obj
 0001:00005830       ??$?0$00@DName@@QEAA@PEBDU?$StringLifeSelector@$00@@@Z 0000000140006830 f i libvcruntime:undname.obj
 0001:00005870       ??$?0$00@pcharNode@@QEAA@PEBDHU?$StringLifeSelector@$00@@@Z 0000000140006870 f i libvcruntime:undname.obj
 0001:00005888       ??$?0$01@DName@@QEAA@PEBDU?$StringLifeSelector@$01@@@Z 0000000140006888 f i libvcruntime:undname.obj
 0001:000058c8       ??$?0$01@pcharNode@@QEAA@PEBDHU?$StringLifeSelector@$01@@@Z 00000001400068c8 f i libvcruntime:undname.obj
 0001:0000593c       ??$?0$0A@@DName@@QEAA@PEBDU?$StringLifeSelector@$0A@@@@Z 000000014000693c f i libvcruntime:undname.obj
 0001:0000597c       ??$?0$0A@@pcharNode@@QEAA@PEBDHU?$StringLifeSelector@$0A@@@@Z 000000014000697c f i libvcruntime:undname.obj
 0001:000059f0       ??$?0_K$0A@@?$optional@_K@std@@QEAA@$$QEA_K@Z 00000001400069f0 f i libvcruntime:undname.obj
 0001:00005a00       ??$?0_K@?$_Optional_construct_base@_K@std@@QEAA@Uin_place_t@1@$$QEA_K@Z 0000000140006a00 f i libvcruntime:undname.obj
 0001:00005a10       ??$?0_K@?$_Optional_destruct_base@_K$00@std@@QEAA@Uin_place_t@1@$$QEA_K@Z 0000000140006a10 f i libvcruntime:undname.obj
 0001:00005a20       ??$append@VDNameNode@@@DName@@AEAAXPEBVDNameNode@@@Z 0000000140006a20 f i libvcruntime:undname.obj
 0001:00005a84       ??$append@VDNameStatusNode@@@DName@@AEAAXPEBVDNameStatusNode@@@Z 0000000140006a84 f i libvcruntime:undname.obj
 0001:00005ae8       ??$append@VcharNode@@@DName@@AEAAXPEBVcharNode@@@Z 0000000140006ae8 f i libvcruntime:undname.obj
 0001:00005b4c       ??$append@VpDNameNode@@@DName@@AEAAXPEBVpDNameNode@@@Z 0000000140006b4c f i libvcruntime:undname.obj
 0001:00005bb0       ??$append@VpcharNode@@@DName@@AEAAXPEBVpcharNode@@@Z 0000000140006bb0 f i libvcruntime:undname.obj
 0001:00005c14       ??$doPchar@$00@DName@@AEAAXPEBDH@Z 0000000140006c14 f i libvcruntime:undname.obj
 0001:00005cb8       ??$doPchar@$01@DName@@AEAAXPEBDH@Z 0000000140006cb8 f i libvcruntime:undname.obj
 0001:00005d50       ??$doPchar@$0A@@DName@@AEAAXPEBDH@Z 0000000140006d50 f i libvcruntime:undname.obj
 0001:00005de8       ??$forward@_K@std@@YA$$QEA_KAEA_K@Z 0000000140006de8 f i libvcruntime:undname.obj
 0001:00005f08       ??$size@D$04@std@@YA_KAEAY04$$CBD@Z 0000000140006f08 f i libvcruntime:undname.obj
 0001:00005f10       ??0?$_Optional_construct_base@_K@std@@QEAA@XZ 0000000140006f10 f i libvcruntime:undname.obj
 0001:00005f18       ??0?$_Optional_destruct_base@_K$00@std@@QEAA@XZ 0000000140006f18 f i libvcruntime:undname.obj
 0001:00005f20       ??0?$optional@_K@std@@QEAA@XZ 0000000140006f20 f i libvcruntime:undname.obj
 0001:00005f28       ??0Block@_HeapManager@@QEAA@XZ 0000000140006f28 f i libvcruntime:undname.obj
 0001:00005f30       ??0DName@@QEAA@AEAPEBDD@Z  0000000140006f30 f   libvcruntime:undname.obj
 0001:00005fe0       ??0DName@@QEAA@AEBUStringLiteral@@@Z 0000000140006fe0 f   libvcruntime:undname.obj
 0001:0000600c       ??0DName@@QEAA@AEBV0@@Z    000000014000700c f i libvcruntime:undname.obj
 0001:0000601c       ??0DName@@QEAA@D@Z         000000014000701c f   libvcruntime:undname.obj
 0001:0000603c       ??0DName@@QEAA@PEAV0@@Z    000000014000703c f   libvcruntime:undname.obj
 0001:000060c0       ??0DName@@QEAA@W4DNameStatus@@@Z 00000001400070c0 f   libvcruntime:undname.obj
 0001:000060f0       ??0DName@@QEAA@XZ          00000001400070f0 f i libvcruntime:undname.obj
 0001:000060fc       ??0DName@@QEAA@_J@Z        00000001400070fc f   libvcruntime:undname.obj
 0001:000061a4       ??0DName@@QEAA@_K@Z        00000001400071a4 f   libvcruntime:undname.obj
 0001:0000622c       ??0DNameNode@@IEAA@XZ      000000014000722c f i libvcruntime:undname.obj
 0001:0000623c       ??0Replicator@@QEAA@XZ     000000014000723c f i libvcruntime:undname.obj
 0001:0000626c       ??0UnDecorator@@QEAA@PEBDP6APEADJ@ZK@Z 000000014000726c f i libvcruntime:undname.obj
 0001:00006318       ??0_Nontrivial_dummy_type@std@@QEAA@XZ 0000000140007318 f i libvcruntime:undname.obj
 0001:0000631c       ??0charNode@@QEAA@D@Z      000000014000731c f i libvcruntime:undname.obj
 0001:00006330       ??0pDNameNode@@QEAA@PEAVDName@@@Z 0000000140007330 f   libvcruntime:undname.obj
 0001:00006358       ??0pairNode@@QEAA@PEBVDNameNode@@0@Z 0000000140007358 f i libvcruntime:undname.obj
 0001:0000637c       ??2@YAPEAX_KAEAV_HeapManager@@H@Z 000000014000737c f   libvcruntime:undname.obj
 0001:000063a8       ??4DName@@QEAAAEAV0@AEBUStringLiteral@@@Z 00000001400073a8 f   libvcruntime:undname.obj
 0001:000063d0       ??4DName@@QEAAAEAV0@AEBV0@@Z 00000001400073d0 f   libvcruntime:undname.obj
 0001:000063e0       ??4DName@@QEAAAEAV0@D@Z    00000001400073e0 f i libvcruntime:undname.obj
 0001:00006400       ??4DName@@QEAAAEAV0@PEAV0@@Z 0000000140007400 f   libvcruntime:undname.obj
 0001:00006478       ??4DName@@QEAAAEAV0@W4DNameStatus@@@Z 0000000140007478 f   libvcruntime:undname.obj
 0001:000064a8       ??AReplicator@@QEBA?AVDName@@H@Z 00000001400074a8 f   libvcruntime:undname.obj
 0001:000064e8       ??B?$optional@_K@std@@QEBA_NXZ 00000001400074e8 f i libvcruntime:undname.obj
 0001:000064ec       ??D?$_Optional_construct_base@_K@std@@QEGAAAEA_KXZ 00000001400074ec f i libvcruntime:undname.obj
 0001:000064f0       ??H@YA?AVDName@@AEBUStringLiteral@@AEBV0@@Z 00000001400074f0 f i libvcruntime:undname.obj
 0001:00006528       ??H@YA?AVDName@@DAEBV0@@Z  0000000140007528 f i libvcruntime:undname.obj
 0001:0000656c       ??H@YA?AVDName@@W4DNameStatus@@AEBV0@@Z 000000014000756c f i libvcruntime:undname.obj
 0001:000065a4       ??HDName@@QEBA?AV0@AEBUStringLiteral@@@Z 00000001400075a4 f   libvcruntime:undname.obj
 0001:000065d0       ??HDName@@QEBA?AV0@AEBV0@@Z 00000001400075d0 f   libvcruntime:undname.obj
 0001:000065fc       ??HDName@@QEBA?AV0@D@Z     00000001400075fc f   libvcruntime:undname.obj
 0001:00006628       ??HDName@@QEBA?AV0@PEAV0@@Z 0000000140007628 f   libvcruntime:undname.obj
 0001:00006654       ??HDName@@QEBA?AV0@W4DNameStatus@@@Z 0000000140007654 f   libvcruntime:undname.obj
 0001:00006680       ??HStringLiteral@@QEBA?AU0@H@Z 0000000140007680 f i libvcruntime:undname.obj
 0001:00006698       ??YDName@@QEAAAEAV0@AEBUStringLiteral@@@Z 0000000140007698 f   libvcruntime:undname.obj
 0001:00006718       ??YDName@@QEAAAEAV0@AEBV0@@Z 0000000140007718 f   libvcruntime:undname.obj
 0001:00006770       ??YDName@@QEAAAEAV0@D@Z    0000000140007770 f   libvcruntime:undname.obj
 0001:000067dc       ??YDName@@QEAAAEAV0@PEAV0@@Z 00000001400077dc f   libvcruntime:undname.obj
 0001:00006870       ??YDName@@QEAAAEAV0@W4DNameStatus@@@Z 0000000140007870 f   libvcruntime:undname.obj
 0001:000068c8       ??YReplicator@@QEAAAEAV0@AEBVDName@@@Z 00000001400078c8 f   libvcruntime:undname.obj
 0001:00006920       ??_5DName@@QEAAAEAV0@AEBV0@@Z 0000000140007920 f   libvcruntime:undname.obj
 0001:00006938       ??__K_l@@YA?AUStringLiteral@@PEBD_K@Z 0000000140007938 f i libvcruntime:undname.obj
 0001:00006944       ?Constructor@_HeapManager@@QEAAXP6APEAX_K@ZP6AXPEAX@Z@Z 0000000140007944 f i libvcruntime:undname.obj
 0001:0000695c       ?Destructor@_HeapManager@@QEAAXXZ 000000014000795c f i libvcruntime:undname.obj
 0001:000069a8       ?UScore@UnDecorator@@SA?AUStringLiteral@@W4Tokens@@@Z 00000001400079a8 f   libvcruntime:undname.obj
 0001:000069f4       ?composeDeclaration@UnDecorator@@CA?AVDName@@AEBV2@@Z 00000001400079f4 f i libvcruntime:undname.obj
 0001:000079b8       ?doAccessSpecifiers@UnDecorator@@SAHXZ 00000001400089b8 f i libvcruntime:undname.obj
 0001:000079c8       ?doAllocationLanguage@UnDecorator@@SAHXZ 00000001400089c8 f i libvcruntime:undname.obj
 0001:000079d8       ?doAllocationModel@UnDecorator@@SAHXZ 00000001400089d8 f i libvcruntime:undname.obj
 0001:000079e8       ?doEcsu@UnDecorator@@SAHXZ 00000001400089e8 f i libvcruntime:undname.obj
 0001:000079f8       ?doEllipsis@UnDecorator@@SAHXZ 00000001400089f8 f i libvcruntime:undname.obj
 0001:00007a08       ?doFunctionReturns@UnDecorator@@SAHXZ 0000000140008a08 f i libvcruntime:undname.obj
 0001:00007a18       ?doMSKeywords@UnDecorator@@SAHXZ 0000000140008a18 f i libvcruntime:undname.obj
 0001:00007a28       ?doMemberTypes@UnDecorator@@SAHXZ 0000000140008a28 f i libvcruntime:undname.obj
 0001:00007a38       ?doNameOnly@UnDecorator@@SAHXZ 0000000140008a38 f i libvcruntime:undname.obj
 0001:00007a44       ?doNoIdentCharCheck@UnDecorator@@SAHXZ 0000000140008a44 f i libvcruntime:undname.obj
 0001:00007a50       ?doPchar@DName@@AEAAXD@Z   0000000140008a50 f   libvcruntime:undname.obj
 0001:00007aa0       ?doPtr64@UnDecorator@@SAHXZ 0000000140008aa0 f i libvcruntime:undname.obj
 0001:00007ab0       ?doRestrictionSpec@UnDecorator@@SAHXZ 0000000140008ab0 f i libvcruntime:undname.obj
 0001:00007ac0       ?doThisTypes@UnDecorator@@SAHXZ 0000000140008ac0 f i libvcruntime:undname.obj
 0001:00007ad4       ?doThrowTypes@UnDecorator@@SAHXZ 0000000140008ad4 f i libvcruntime:undname.obj
 0001:00007ae4       ?doTypeOnly@UnDecorator@@SAHXZ 0000000140008ae4 f i libvcruntime:undname.obj
 0001:00007af0       ?doUnderScore@UnDecorator@@SAHXZ 0000000140008af0 f i libvcruntime:undname.obj
 0001:00007afc       ?getAddressOf@UnDecorator@@CA?AVDName@@XZ 0000000140008afc f   libvcruntime:undname.obj
 0001:00007b8c       ?getArgumentList@UnDecorator@@CA?AVDName@@XZ 0000000140008b8c f   libvcruntime:undname.obj
 0001:00007d10       ?getArgumentTypes@UnDecorator@@CA?AVDName@@XZ 0000000140008d10 f   libvcruntime:undname.obj
 0001:00007e5c       ?getArrayAccess@UnDecorator@@CA?AVDName@@XZ 0000000140008e5c f   libvcruntime:undname.obj
 0001:00007ef8       ?getArrayObject@UnDecorator@@CA?AVDName@@XZ 0000000140008ef8 f   libvcruntime:undname.obj
 0001:00007fc8       ?getArrayType@UnDecorator@@CA?AVDName@@AEBV2@@Z 0000000140008fc8 f i libvcruntime:undname.obj
 0001:00008224       ?getBasedType@UnDecorator@@CA?AVDName@@XZ 0000000140009224 f   libvcruntime:undname.obj
 0001:0000831c       ?getBasicDataType@UnDecorator@@CA?AVDName@@AEBV2@@Z 000000014000931c f   libvcruntime:undname.obj
 0001:00008920       ?getCHPEName@UnDecorator@@QEAAPEADPEADH@Z 0000000140009920 f i libvcruntime:undname.obj
 0001:00008a40       ?getCallIndex@UnDecorator@@CA?AVDName@@XZ 0000000140009a40 f i libvcruntime:undname.obj
 0001:00008a5c       ?getCallingConvention@UnDecorator@@CA?AVDName@@XZ 0000000140009a5c f   libvcruntime:undname.obj
 0001:00008b7c       ?getDataIndirectType@UnDecorator@@CA?AVDName@@AEBV2@W4IndirectionKind@@0H@Z 0000000140009b7c f   libvcruntime:undname.obj
 0001:000094c4       ?getDataIndirectType@UnDecorator@@CA?AVDName@@XZ 000000014000a4c4 f i libvcruntime:undname.obj
 0001:00009500       ?getDataType@UnDecorator@@CA?AVDName@@PEAV2@@Z 000000014000a500 f   libvcruntime:undname.obj
 0001:00009614       ?getDecoratedName@UnDecorator@@CA?AVDName@@XZ 000000014000a614 f   libvcruntime:undname.obj
 0001:000098fc       ?getDimension@UnDecorator@@CA?AVDName@@_N@Z 000000014000a8fc f   libvcruntime:undname.obj
 0001:00009a44       ?getDispatchTarget@UnDecorator@@CA?AVDName@@XZ 000000014000aa44 f   libvcruntime:undname.obj
 0001:00009aa4       ?getDisplacement@UnDecorator@@CA?AVDName@@XZ 000000014000aaa4 f i libvcruntime:undname.obj
 0001:00009ac0       ?getECSUDataType@UnDecorator@@CA?AVDName@@XZ 000000014000aac0 f   libvcruntime:undname.obj
 0001:00009cbc       ?getECSUName@UnDecorator@@CA?AVDName@@XZ 000000014000acbc f i libvcruntime:undname.obj
 0001:00009cd4       ?getEnumType@UnDecorator@@CA?AVDName@@XZ 000000014000acd4 f i libvcruntime:undname.obj
 0001:00009dfc       ?getExtendedDataIndirectType@UnDecorator@@CA?AVDName@@AEAW4IndirectionKind@@AEA_NH@Z 000000014000adfc f   libvcruntime:undname.obj
 0001:0000a068       ?getExternalDataType@UnDecorator@@CA?AVDName@@AEBV2@@Z 000000014000b068 f i libvcruntime:undname.obj
 0001:0000a128       ?getFloatingPoint@UnDecorator@@CA?AVDName@@H@Z 000000014000b128 f   libvcruntime:undname.obj
 0001:0000a290       ?getFunctionIndirectType@UnDecorator@@CA?AVDName@@AEBV2@@Z 000000014000b290 f   libvcruntime:undname.obj
 0001:0000a7c4       ?getGuardNumber@UnDecorator@@CA?AVDName@@XZ 000000014000b7c4 f i libvcruntime:undname.obj
 0001:0000a7e0       ?getLastChar@DName@@QEBADXZ 000000014000b7e0 f i libvcruntime:undname.obj
 0001:0000a7fc       ?getLastChar@DNameStatusNode@@UEBADXZ 000000014000b7fc f i libvcruntime:undname.obj
 0001:0000a808       ?getLastChar@charNode@@UEBADXZ 000000014000b808 f i libvcruntime:undname.obj
 0001:0000a80c       ?getLastChar@pDNameNode@@UEBADXZ 000000014000b80c f i libvcruntime:undname.obj
 0001:0000a838       ?getLastChar@pairNode@@UEBADXZ 000000014000b838 f i libvcruntime:undname.obj
 0001:0000a870       ?getLastChar@pcharNode@@UEBADXZ 000000014000b870 f i libvcruntime:undname.obj
 0001:0000a884       ?getLexicalFrame@UnDecorator@@CA?AVDName@@XZ 000000014000b884 f i libvcruntime:undname.obj
 0001:0000a8e8       ?getMemberAccess@UnDecorator@@CA?AVDName@@XZ 000000014000b8e8 f   libvcruntime:undname.obj
 0001:0000a97c       ?getMemoryWithBuffer@_HeapManager@@QEAAPEAX_K@Z 000000014000b97c f   libvcruntime:undname.obj
 0001:0000aa0c       ?getMemoryWithoutBuffer@_HeapManager@@QEAAPEAX_K@Z 000000014000ba0c f   libvcruntime:undname.obj
 0001:0000aa20       ?getNoexcept@UnDecorator@@CA?AVDName@@XZ 000000014000ba20 f   libvcruntime:undname.obj
 0001:0000aa84       ?getNumberOfDimensions@UnDecorator@@CAHXZ 000000014000ba84 f   libvcruntime:undname.obj
 0001:0000aae0       ?getOperatorName@UnDecorator@@CA?AVDName@@_NPEA_N@Z 000000014000bae0 f i libvcruntime:undname.obj
 0001:0000b47c       ?getPointerToMember@UnDecorator@@CA?AVDName@@XZ 000000014000c47c f   libvcruntime:undname.obj
 0001:0000b574       ?getPointerType@UnDecorator@@CA?AVDName@@AEBV2@0@Z 000000014000c574 f i libvcruntime:undname.obj
 0001:0000b594       ?getPointerTypeArray@UnDecorator@@CA?AVDName@@AEBV2@0@Z 000000014000c594 f i libvcruntime:undname.obj
 0001:0000b5b0       ?getPrimaryDataType@UnDecorator@@CA?AVDName@@AEBV2@@Z 000000014000c5b0 f   libvcruntime:undname.obj
 0001:0000b868       ?getPtrRefDataType@UnDecorator@@CA?AVDName@@AEBV2@H@Z 000000014000c868 f   libvcruntime:undname.obj
 0001:0000ba34       ?getPtrRefType@UnDecorator@@CA?AVDName@@AEBV2@0W4IndirectionKind@@@Z 000000014000ca34 f   libvcruntime:undname.obj
 0001:0000bc1c       ?getReferenceType@UnDecorator@@CA?AVDName@@AEBV2@0W4IndirectionKind@@@Z 000000014000cc1c f i libvcruntime:undname.obj
 0001:0000bc34       ?getRestrictionSpec@UnDecorator@@CA?AVDName@@XZ 000000014000cc34 f   libvcruntime:undname.obj
 0001:0000be10       ?getReturnType@UnDecorator@@CA?AVDName@@PEAV2@@Z 000000014000ce10 f   libvcruntime:undname.obj
 0001:0000be44       ?getScope@UnDecorator@@CA?AVDName@@XZ 000000014000ce44 f   libvcruntime:undname.obj
 0001:0000c2fc       ?getScopedName@UnDecorator@@CA?AVDName@@XZ 000000014000d2fc f   libvcruntime:undname.obj
 0001:0000c440       ?getSignedDimension@UnDecorator@@CA?AVDName@@XZ 000000014000d440 f   libvcruntime:undname.obj
 0001:0000c4c8       ?getStorageConvention@UnDecorator@@CA?AVDName@@XZ 000000014000d4c8 f i libvcruntime:undname.obj
 0001:0000c504       ?getString@DName@@QEBAPEADPEAD0@Z 000000014000d504 f i libvcruntime:undname.obj
 0001:0000c520       ?getString@DName@@QEBAPEADPEADH@Z 000000014000d520 f i libvcruntime:undname.obj
 0001:0000c5b4       ?getString@DNameStatusNode@@UEBAPEADPEAD0@Z 000000014000d5b4 f i libvcruntime:undname.obj
 0001:0000c5fc       ?getString@charNode@@UEBAPEADPEAD0@Z 000000014000d5fc f i libvcruntime:undname.obj
 0001:0000c610       ?getString@pDNameNode@@UEBAPEADPEAD0@Z 000000014000d610 f i libvcruntime:undname.obj
 0001:0000c640       ?getString@pairNode@@UEBAPEADPEAD0@Z 000000014000d640 f i libvcruntime:undname.obj
 0001:0000c68c       ?getString@pcharNode@@UEBAPEADPEAD0@Z 000000014000d68c f i libvcruntime:undname.obj
 0001:0000c6c4       ?getStringEncoding@UnDecorator@@CA?AVDName@@W4PrefixKind@@H@Z 000000014000d6c4 f   libvcruntime:undname.obj
 0001:0000c7d4       ?getStringHelper@@YAPEADPEADPEBD1H@Z 000000014000d7d4 f i libvcruntime:undname.obj
 0001:0000c804       ?getStringObject@UnDecorator@@CA?AVDName@@XZ 000000014000d804 f   libvcruntime:undname.obj
 0001:0000c894       ?getSymbolName@UnDecorator@@CA?AVDName@@XZ 000000014000d894 f i libvcruntime:undname.obj
 0001:0000c8e0       ?getTemplateArgumentList@UnDecorator@@CA?AVDName@@XZ 000000014000d8e0 f   libvcruntime:undname.obj
 0001:0000cb00       ?getTemplateName@UnDecorator@@CA?AVDName@@_N@Z 000000014000db00 f   libvcruntime:undname.obj
 0001:0000cdb0       ?getTemplateNonTypeArgument@UnDecorator@@CA?AVDName@@XZ 000000014000ddb0 f   libvcruntime:undname.obj
 0001:0000d300       ?getTemplateTypeArgument@UnDecorator@@CA?AVDName@@XZ 000000014000e300 f   libvcruntime:undname.obj
 0001:0000d468       ?getThisType@UnDecorator@@CA?AVDName@@XZ 000000014000e468 f i libvcruntime:undname.obj
 0001:0000d4a8       ?getThrowTypes@UnDecorator@@CA?AVDName@@XZ 000000014000e4a8 f   libvcruntime:undname.obj
 0001:0000d4cc       ?getTypeEncoding@UnDecorator@@CAHXZ 000000014000e4cc f i libvcruntime:undname.obj
 0001:0000d888       ?getUndecoratedName@UnDecorator@@QEAAPEADPEADH@Z 000000014000e888 f i libvcruntime:undname.obj
 0001:0000d9dc       ?getUnionObject@UnDecorator@@CA?AVDName@@XZ 000000014000e9dc f   libvcruntime:undname.obj
 0001:0000dab4       ?getVCallThunkType@UnDecorator@@CA?AVDName@@XZ 000000014000eab4 f i libvcruntime:undname.obj
 0001:0000db2c       ?getValue@UnDecorator@@CA?AV?$optional@_K@std@@XZ 000000014000eb2c f   libvcruntime:undname.obj
 0001:0000db70       ?getValueObject@UnDecorator@@CA?AVDName@@XZ 000000014000eb70 f   libvcruntime:undname.obj
 0001:0000dcf4       ?getVbTableType@UnDecorator@@CA?AVDName@@AEBV2@@Z 000000014000ecf4 f i libvcruntime:undname.obj
 0001:0000dd0c       ?getVdispMapType@UnDecorator@@CA?AVDName@@AEBV2@@Z 000000014000ed0c f i libvcruntime:undname.obj
 0001:0000dd88       ?getVfTableType@UnDecorator@@CA?AVDName@@AEBV2@@Z 000000014000ed88 f i libvcruntime:undname.obj
 0001:0000df94       ?getZName@UnDecorator@@CA?AVDName@@_N0@Z 000000014000ef94 f   libvcruntime:undname.obj
 0001:0000e268       ?get_current_character_and_increment_buffer@UnDecorator@@CADXZ 000000014000f268 f i libvcruntime:undname.obj
 0001:0000e280       ?haveTemplateParameters@UnDecorator@@SAHXZ 000000014000f280 f i libvcruntime:undname.obj
 0001:0000e28c       ?increment_buffer@UnDecorator@@CA_N_K@Z 000000014000f28c f i libvcruntime:undname.obj
 0001:0000e2b8       ?increment_buffer_no_check@UnDecorator@@CAXXZ 000000014000f2b8 f i libvcruntime:undname.obj
 0001:0000e2c0       ?increment_buffer_no_check@UnDecorator@@CAX_K@Z 000000014000f2c0 f i libvcruntime:undname.obj
 0001:0000e2c8       ?isArray@DName@@QEBAHXZ    000000014000f2c8 f i libvcruntime:undname.obj
 0001:0000e2d4       ?isComArray@DName@@QEBAHXZ 000000014000f2d4 f i libvcruntime:undname.obj
 0001:0000e2e0       ?isEmpty@DName@@QEBAHXZ    000000014000f2e0 f i libvcruntime:undname.obj
 0001:0000e2ec       ?isFull@Replicator@@QEBAHXZ 000000014000f2ec f i libvcruntime:undname.obj
 0001:0000e2f8       ?isNoTE@DName@@QEBAHXZ     000000014000f2f8 f i libvcruntime:undname.obj
 0001:0000e304       ?isPinPtr@DName@@QEBAHXZ   000000014000f304 f i libvcruntime:undname.obj
 0001:0000e310       ?isPtrRef@DName@@QEBAHXZ   000000014000f310 f i libvcruntime:undname.obj
 0001:0000e31c       ?isUDC@DName@@QEBAHXZ      000000014000f31c f i libvcruntime:undname.obj
 0001:0000e334       ?isUDTThunk@DName@@QEBAHXZ 000000014000f334 f i libvcruntime:undname.obj
 0001:0000e34c       ?isVCallThunk@DName@@QEBAHXZ 000000014000f34c f i libvcruntime:undname.obj
 0001:0000e358       ?isValid@DName@@QEBAHXZ    000000014000f358 f i libvcruntime:undname.obj
 0001:0000e364       ?length@DName@@QEBAHXZ     000000014000f364 f i libvcruntime:undname.obj
 0001:0000e37c       ?length@DNameStatusNode@@UEBAHXZ 000000014000f37c f i libvcruntime:undname.obj
 0001:0000e380       ?length@charNode@@UEBAHXZ  000000014000f380 f i libvcruntime:undname.obj
 0001:0000e388       ?length@pDNameNode@@UEBAHXZ 000000014000f388 f i libvcruntime:undname.obj
 0001:0000e3b0       ?length@pairNode@@UEBAHXZ  000000014000f3b0 f i libvcruntime:undname.obj
 0001:0000e3f8       ?length@pcharNode@@UEBAHXZ 000000014000f3f8 f i libvcruntime:undname.obj
 0001:0000e3fc       ?make@DNameStatusNode@@SAPEBV1@W4DNameStatus@@@Z 000000014000f3fc f i libvcruntime:undname.obj
 0001:0000e41c       ?parseDecoratedName@UnDecorator@@CA?AVDName@@XZ 000000014000f41c f   libvcruntime:undname.obj
 0001:0000e534       ?raw_length@DNameStatusNode@@UEBAHXZ 000000014000f534 f i libvcruntime:undname.obj
 0001:0000e538       ?raw_length@charNode@@UEBAHXZ 000000014000f538 f i libvcruntime:undname.obj
 0001:0000e540       ?raw_length@pDNameNode@@UEBAHXZ 000000014000f540 f i libvcruntime:undname.obj
 0001:0000e544       ?raw_length@pairNode@@UEBAHXZ 000000014000f544 f i libvcruntime:undname.obj
 0001:0000e548       ?raw_length@pcharNode@@UEBAHXZ 000000014000f548 f i libvcruntime:undname.obj
 0001:0000e54c       ?setIsArray@DName@@QEAAXXZ 000000014000f54c f i libvcruntime:undname.obj
 0001:0000e554       ?setIsComArray@DName@@QEAAXXZ 000000014000f554 f i libvcruntime:undname.obj
 0001:0000e55c       ?setIsNoTE@DName@@QEAAXXZ  000000014000f55c f i libvcruntime:undname.obj
 0001:0000e564       ?setIsPinPtr@DName@@QEAAXXZ 000000014000f564 f i libvcruntime:undname.obj
 0001:0000e56c       ?setIsUDC@DName@@QEAAXXZ   000000014000f56c f i libvcruntime:undname.obj
 0001:0000e578       ?setIsVCallThunk@DName@@QEAAXXZ 000000014000f578 f i libvcruntime:undname.obj
 0001:0000e580       ?setPtrRef@DName@@QEAAAEAV1@XZ 000000014000f580 f i libvcruntime:undname.obj
 0001:0000e58c       ?status@DName@@QEBA?AW4DNameStatus@@XZ 000000014000f58c f i libvcruntime:undname.obj
 0001:0000e5f0       __unDName                  000000014000f5f0 f   libvcruntime:undname.obj
 0001:0000e618       __unDNameEx                000000014000f618 f   libvcruntime:undname.obj
 0001:0000e708       snprintf                   000000014000f708 f i libvcruntime:undname.obj
 0001:0000e760       sprintf_s                  000000014000f760 f i libvcruntime:undname.obj
 0001:0000e7b4       unDNameGenerateCHPE        000000014000f7b4 f   libvcruntime:undname.obj
 0001:0000e900       vsnprintf                  000000014000f900 f i libvcruntime:undname.obj
 0001:0000e964       ??$__crt_interlocked_exchange_pointer@UHINSTANCE__@@PEAU1@@@YAPEAUHINSTANCE__@@PEDSEAU0@QEAU0@@Z 000000014000f964 f i libvcruntime:winapi_downlevel.obj
 0001:0000e96c       ??$__crt_interlocked_exchange_pointer@UHINSTANCE__@@PEAX@@YAPEAUHINSTANCE__@@PEDSEAU0@QEAX@Z 000000014000f96c f i libvcruntime:winapi_downlevel.obj
 0001:0000e974       ??$__crt_interlocked_exchange_pointer@XPEAX@@YAPEAXPEDSEAXQEAX@Z 000000014000f974 f i libvcruntime:winapi_downlevel.obj
 0001:0000e97c       ??$__crt_interlocked_read_pointer@UHINSTANCE__@@@@YAPEAUHINSTANCE__@@PEDSEAU0@@Z 000000014000f97c f i libvcruntime:winapi_downlevel.obj
 0001:0000e984       ??$__crt_interlocked_read_pointer@X@@YAPEAXPEDSEAX@Z 000000014000f984 f i libvcruntime:winapi_downlevel.obj
 0001:0000eec4       __vcrt_FlsAlloc            000000014000fec4 f   libvcruntime:winapi_downlevel.obj
 0001:0000ef0c       __vcrt_FlsFree             000000014000ff0c f   libvcruntime:winapi_downlevel.obj
 0001:0000ef54       __vcrt_FlsGetValue         000000014000ff54 f   libvcruntime:winapi_downlevel.obj
 0001:0000ef9c       __vcrt_FlsSetValue         000000014000ff9c f   libvcruntime:winapi_downlevel.obj
 0001:0000eff0       __vcrt_InitializeCriticalSectionEx 000000014000fff0 f   libvcruntime:winapi_downlevel.obj
 0001:0000f054       ??$__crt_interlocked_exchange_pointer@$$A6AXXZP6AXXZ@@YAP6AXXZPEDS6AXXZQ6AXXZ@Z 0000000140010054 f i libvcruntime:purevirt.obj
 0001:0000f05c       ??$__crt_interlocked_read_pointer@$$A6AXXZ@@YAP6AXXZPEDS6AXXZ@Z 000000014001005c f i libvcruntime:purevirt.obj
 0001:0000f064       _get_purecall_handler      0000000140010064 f   libvcruntime:purevirt.obj
 0001:0000f070       _purecall                  0000000140010070 f   libvcruntime:purevirt.obj
 0001:0000f08c       _set_purecall_handler      000000014001008c f   libvcruntime:purevirt.obj
 0001:0000f098       ??$?0AEAViterator@TryBlockMap4@FH4@@AEAV012@$0A@@?$pair@Viterator@TryBlockMap4@FH4@@V123@@std@@QEAA@AEAViterator@TryBlockMap4@FH4@@0@Z 0000000140010098 f i libvcruntime:risctrnsctrl.obj
 0001:0000f0ac       ??$?0AEAViterator@TryBlockMap@__FrameHandler3@@AEAV012@$0A@@?$pair@Viterator@TryBlockMap@__FrameHandler3@@V123@@std@@QEAA@AEAViterator@TryBlockMap@__FrameHandler3@@0@Z 00000001400100ac f i libvcruntime:risctrnsctrl.obj
 0001:0000f230       ??$_CallSETranslator@V__FrameHandler3@@@@YAHPEAUEHExceptionRecord@@PEA_KPEAU_CONTEXT@@PEAU_xDISPATCHER_CONTEXT@@PEBU_s_FuncInfo@@K1H@Z 0000000140010230 f i libvcruntime:risctrnsctrl.obj
 0001:0000f284       ??$_CallSETranslator@V__FrameHandler4@@@@YAHPEAUEHExceptionRecord@@PEA_KPEAU_CONTEXT@@PEAU_xDISPATCHER_CONTEXT@@PEAUFuncInfo4@FH4@@K1H@Z 0000000140010284 f i libvcruntime:risctrnsctrl.obj
 0001:0000f2d8       ??$forward@AEAViterator@TryBlockMap4@FH4@@@std@@YAAEAViterator@TryBlockMap4@FH4@@AEAV123@@Z 00000001400102d8 f i libvcruntime:risctrnsctrl.obj
 0001:0000f2dc       ??$forward@AEAViterator@TryBlockMap@__FrameHandler3@@@std@@YAAEAViterator@TryBlockMap@__FrameHandler3@@AEAV123@@Z 00000001400102dc f i libvcruntime:risctrnsctrl.obj
 0001:0000f2e0       ??0FuncInfo4@FH4@@QEAA@XZ  00000001400102e0 f i libvcruntime:risctrnsctrl.obj
 0001:0000f2f4       ??0FuncInfoHeader@FH4@@QEAA@XZ 00000001400102f4 f i libvcruntime:risctrnsctrl.obj
 0001:0000f2fc       ??0iterator@TryBlockMap4@FH4@@QEAA@AEAV12@I@Z 00000001400102fc f i libvcruntime:risctrnsctrl.obj
 0001:0000f308       ??0iterator@TryBlockMap@__FrameHandler3@@QEAA@AEAV12@I@Z 0000000140010308 f i libvcruntime:risctrnsctrl.obj
 0001:0000f314       ??4iterator@TryBlockMap4@FH4@@QEAAAEAV012@AEBV012@@Z 0000000140010314 f i libvcruntime:risctrnsctrl.obj
 0001:0000f320       ??9iterator@TryBlockMap4@FH4@@QEBA_NAEBV012@@Z 0000000140010320 f i libvcruntime:risctrnsctrl.obj
 0001:0000f32c       ??Diterator@TryBlockMap4@FH4@@QEAA?AUTryBlockMapEntry4@2@XZ 000000014001032c f i libvcruntime:risctrnsctrl.obj
 0001:0000f33c       ??Eiterator@TryBlockMap4@FH4@@QEAAAEAV012@XZ 000000014001033c f i libvcruntime:risctrnsctrl.obj
 0001:0000f3d8       ?CatchTryBlock@__FrameHandler3@@SAPEBU_s_TryBlockMapEntry@@PEBU_s_FuncInfo@@H@Z 00000001400103d8 f   libvcruntime:risctrnsctrl.obj
 0001:0000f43c       ?DecompFuncInfo@FH4@@YA_JPEAEAEAUFuncInfo4@1@_KH@Z 000000014001043c f i libvcruntime:risctrnsctrl.obj
 0001:0000f450       ?DecompFuncInfo@FH4@@YA_JPEAEAEAUFuncInfo4@1@_KH_N@Z 0000000140010450 f i libvcruntime:risctrnsctrl.obj
 0001:0000f584       ?DecompTryBlock@TryBlockMap4@FH4@@AEAAXXZ 0000000140010584 f i libvcruntime:risctrnsctrl.obj
 0001:0000f618       ?ExecutionInCatch@__FrameHandler3@@SA_NPEAU_xDISPATCHER_CONTEXT@@PEBU_s_FuncInfo@@@Z 0000000140010618 f   libvcruntime:risctrnsctrl.obj
 0001:0000f644       ?ExecutionInCatch@__FrameHandler4@@SA_NPEAU_xDISPATCHER_CONTEXT@@PEAUFuncInfo4@FH4@@@Z 0000000140010644 f   libvcruntime:risctrnsctrl.obj
 0001:0000f64c       ?FrameUnwindToEmptyState@__FrameHandler3@@SAXPEA_KPEAU_xDISPATCHER_CONTEXT@@PEBU_s_FuncInfo@@@Z 000000014001064c f   libvcruntime:risctrnsctrl.obj
 0001:0000f6b0       ?FrameUnwindToEmptyState@__FrameHandler4@@SAXPEA_KPEAU_xDISPATCHER_CONTEXT@@PEAUFuncInfo4@FH4@@@Z 00000001400106b0 f   libvcruntime:risctrnsctrl.obj
 0001:0000f6e4       ?GetEstablisherFrame@__FrameHandler3@@SAPEA_KPEA_KPEAU_xDISPATCHER_CONTEXT@@PEBU_s_FuncInfo@@0@Z 00000001400106e4 f   libvcruntime:risctrnsctrl.obj
 0001:0000f7b4       ?GetEstablisherFrame@__FrameHandler4@@SAPEA_KPEA_KPEAU_xDISPATCHER_CONTEXT@@PEAUFuncInfo4@FH4@@0@Z 00000001400107b4 f   libvcruntime:risctrnsctrl.obj
 0001:0000f7d8       ?GetRangeOfTrysToCheck@__FrameHandler3@@SA?AU?$pair@Viterator@TryBlockMap@__FrameHandler3@@V123@@std@@AEAVTryBlockMap@1@HPEAU_xDISPATCHER_CONTEXT@@PEBU_s_FuncInfo@@H@Z 00000001400107d8 f   libvcruntime:risctrnsctrl.obj
 0001:0000f90c       ?GetRangeOfTrysToCheck@__FrameHandler4@@SA?AU?$pair@Viterator@TryBlockMap4@FH4@@V123@@std@@AEAVTryBlockMap4@FH4@@HPEAU_xDISPATCHER_CONTEXT@@PEAUFuncInfo4@5@H@Z 000000014001090c f   libvcruntime:risctrnsctrl.obj
 0001:0000fa78       ?ReadInt@FH4@@YAHPEAPEAE@Z 0000000140010a78 f i libvcruntime:risctrnsctrl.obj
 0001:0000fa88       ?ReadUnsigned@FH4@@YAIPEAPEAE@Z 0000000140010a88 f i libvcruntime:risctrnsctrl.obj
 0001:0000fab8       ?UnwindNestedFrames@__FrameHandler3@@SAXPEA_KPEAUEHExceptionRecord@@PEAU_CONTEXT@@0PEAXPEBU_s_FuncInfo@@HHPEBU_s_HandlerType@@PEAU_xDISPATCHER_CONTEXT@@E@Z 0000000140010ab8 f   libvcruntime:risctrnsctrl.obj
 0001:0000fbbc       ?UnwindNestedFrames@__FrameHandler4@@SAXPEA_KPEAUEHExceptionRecord@@PEAU_CONTEXT@@0PEAXPEAUFuncInfo4@FH4@@HHPEAUHandlerType4@5@PEAU_xDISPATCHER_CONTEXT@@E@Z 0000000140010bbc f   libvcruntime:risctrnsctrl.obj
 0001:0000fcdc       ?begin@TryBlockMap4@FH4@@QEAA?AViterator@12@XZ 0000000140010cdc f i libvcruntime:risctrnsctrl.obj
 0001:0000fce8       ?end@TryBlockMap4@FH4@@QEAA?AViterator@12@XZ 0000000140010ce8 f i libvcruntime:risctrnsctrl.obj
 0001:0000fcf4       ?imageRelToByteBuffer@FH4@@YAPEAE_KH@Z 0000000140010cf4 f i libvcruntime:risctrnsctrl.obj
 0001:0000fcfc       ?incrementToSentinel@iterator@TryBlockMap4@FH4@@QEAAXXZ 0000000140010cfc f i libvcruntime:risctrnsctrl.obj
 0001:0000fd00       ?setBuffer@TryBlockMap4@FH4@@QEAAXViterator@12@@Z 0000000140010d00 f i libvcruntime:risctrnsctrl.obj
 0001:0000fec4       _CreateFrameInfo           0000000140010ec4 f   libvcruntime:risctrnsctrl.obj
 0001:0000ff00       _FindAndUnlinkFrame        0000000140010f00 f   libvcruntime:risctrnsctrl.obj
 0001:0000ff54       _GetImageBase              0000000140010f54 f   libvcruntime:risctrnsctrl.obj
 0001:0000ff68       _GetThrowImageBase         0000000140010f68 f   libvcruntime:risctrnsctrl.obj
 0001:0000ff7c       _SetImageBase              0000000140010f7c f   libvcruntime:risctrnsctrl.obj
 0001:0000ff94       _SetThrowImageBase         0000000140010f94 f   libvcruntime:risctrnsctrl.obj
 0001:0000ffac       __CxxFrameHandler          0000000140010fac f   libvcruntime:risctrnsctrl.obj
 0001:0000ffb4       __CxxFrameHandler2         0000000140010fb4 f   libvcruntime:risctrnsctrl.obj
 0001:0000ffbc       __CxxFrameHandler3         0000000140010fbc f   libvcruntime:risctrnsctrl.obj
 0001:00010044       __CxxFrameHandler4         0000000140011044 f   libvcruntime:risctrnsctrl.obj
 0001:00010110       ?GetCurrentState@__FrameHandler3@@SAHPEA_KPEAU_xDISPATCHER_CONTEXT@@PEBU_s_FuncInfo@@@Z 0000000140011110 f   libvcruntime:ehstate.obj
 0001:00010138       ?GetUnwindTryBlock@__FrameHandler3@@SAHPEA_KPEAU_xDISPATCHER_CONTEXT@@PEBU_s_FuncInfo@@@Z 0000000140011138 f   libvcruntime:ehstate.obj
 0001:00010164       ?SetState@__FrameHandler3@@SAXPEA_KPEBU_s_FuncInfo@@H@Z 0000000140011164 f   libvcruntime:ehstate.obj
 0001:00010170       ?SetUnwindTryBlock@__FrameHandler3@@SAXPEA_KPEAU_xDISPATCHER_CONTEXT@@PEBU_s_FuncInfo@@H@Z 0000000140011170 f   libvcruntime:ehstate.obj
 0001:000101ac       ?StateFromControlPc@__FrameHandler3@@SAHPEBU_s_FuncInfo@@PEAU_xDISPATCHER_CONTEXT@@@Z 00000001400111ac f   libvcruntime:ehstate.obj
 0001:000101b4       ?StateFromControlPc@__FrameHandler4@@SAHPEAUFuncInfo4@FH4@@PEAU_xDISPATCHER_CONTEXT@@@Z 00000001400111b4 f   libvcruntime:ehstate.obj
 0001:000101bc       ?StateFromIp@__FrameHandler3@@SAHPEBU_s_FuncInfo@@PEAU_xDISPATCHER_CONTEXT@@_K@Z 00000001400111bc f   libvcruntime:ehstate.obj
 0001:00010224       ?StateFromIp@__FrameHandler4@@SAHPEAUFuncInfo4@FH4@@PEAU_xDISPATCHER_CONTEXT@@_K@Z 0000000140011224 f   libvcruntime:ehstate.obj
 0001:00010314       ?__FuncRelToRealOffset@@YA_KPEAU_xDISPATCHER_CONTEXT@@I@Z 0000000140011314 f i libvcruntime:ehstate.obj
 0001:00010324       ?__RVAtoRealOffset@@YA_KPEAU_xDISPATCHER_CONTEXT@@H@Z 0000000140011324 f i libvcruntime:ehstate.obj
 0001:00011998       ??$TypeMatchHelper@V__FrameHandler3@@@@YAHPEBU_s_HandlerType@@PEBU_s_CatchableType@@PEBU_s_ThrowInfo@@@Z 0000000140012998 f i libvcruntime:frame.obj
 0001:00011ad8       ??$TypeMatchHelper@V__FrameHandler4@@@@YAHPEAUHandlerType4@FH4@@PEBU_s_CatchableType@@PEBU_s_ThrowInfo@@@Z 0000000140012ad8 f i libvcruntime:frame.obj
 0001:00011c24       ??$__InternalCxxFrameHandler@V__FrameHandler3@@@@YA?AW4_EXCEPTION_DISPOSITION@@PEAUEHExceptionRecord@@PEA_KPEAU_CONTEXT@@PEAU_xDISPATCHER_CONTEXT@@PEBU_s_FuncInfo@@H1E@Z 0000000140012c24 f i libvcruntime:frame.obj
 0001:00011e5c       ??$__InternalCxxFrameHandler@V__FrameHandler4@@@@YA?AW4_EXCEPTION_DISPOSITION@@PEAUEHExceptionRecord@@PEA_KPEAU_CONTEXT@@PEAU_xDISPATCHER_CONTEXT@@PEAUFuncInfo4@FH4@@H1E@Z 0000000140012e5c f i libvcruntime:frame.obj
 0001:000120f0       ??$__InternalCxxFrameHandlerWrapper@V__FrameHandler3@@@@YA?AW4_EXCEPTION_DISPOSITION@@PEAUEHExceptionRecord@@PEA_KPEAU_CONTEXT@@PEAU_xDISPATCHER_CONTEXT@@PEBU_s_FuncInfo@@H1E@Z 00000001400130f0 f i libvcruntime:frame.obj
 0001:000120f8       ??$__InternalCxxFrameHandlerWrapper@V__FrameHandler4@@@@YA?AW4_EXCEPTION_DISPOSITION@@PEAUEHExceptionRecord@@PEA_KPEAU_CONTEXT@@PEAU_xDISPATCHER_CONTEXT@@PEAUFuncInfo4@FH4@@H1E@Z 00000001400130f8 f i libvcruntime:frame.obj
 0001:00012144       ??0HandlerMap4@FH4@@QEAA@PEBUTryBlockMapEntry4@1@_KH@Z 0000000140013144 f i libvcruntime:frame.obj
 0001:000121c8       ??0HandlerMap@__FrameHandler3@@QEAA@PEBU_s_TryBlockMapEntry@@_KI@Z 00000001400131c8 f i libvcruntime:frame.obj
 0001:000121dc       ??0HandlerType4@FH4@@QEAA@XZ 00000001400131dc f i libvcruntime:frame.obj
 0001:000121f4       ??0TryBlockMap4@FH4@@QEAA@PEBUFuncInfo4@1@_K@Z 00000001400131f4 f i libvcruntime:frame.obj
 0001:000122d8       ??0TryBlockMap@__FrameHandler3@@QEAA@PEBU_s_FuncInfo@@_K@Z 00000001400132d8 f i libvcruntime:frame.obj
 0001:000122e4       ??0UWMap4@FH4@@QEAA@PEBUFuncInfo4@1@_K@Z 00000001400132e4 f i libvcruntime:frame.obj
 0001:00012334       ??0bad_exception@std@@QEAA@AEBV01@@Z 0000000140013334 f i libvcruntime:frame.obj
 0001:00012370       ??0bad_exception@std@@QEAA@XZ 0000000140013370 f i libvcruntime:frame.obj
 0001:00012390       ??0exception@std@@QEAA@AEBV01@@Z 0000000140013390 f i libvcruntime:frame.obj
 0001:000123c4       ??0exception@std@@QEAA@QEBDH@Z 00000001400133c4 f i libvcruntime:frame.obj
 0001:000123dc       ??0iterator@HandlerMap4@FH4@@QEAA@AEAV12@I@Z 00000001400133dc f i libvcruntime:frame.obj
 0001:000123e8       ??0iterator@HandlerMap@__FrameHandler3@@QEAA@AEAV12@I@Z 00000001400133e8 f i libvcruntime:frame.obj
 0001:000123f4       ??0iterator@UWMap4@FH4@@QEAA@AEAV12@PEAE@Z 00000001400133f4 f i libvcruntime:frame.obj
 0001:00012400       ??1bad_exception@std@@UEAA@XZ 0000000140013400 f i libvcruntime:frame.obj
 0001:00012414       ??1exception@std@@UEAA@XZ  0000000140013414 f i libvcruntime:frame.obj
 0001:00012428       ??4iterator@UWMap4@FH4@@QEAAAEAV012@AEBV012@@Z 0000000140013428 f i libvcruntime:frame.obj
 0001:00012448       ??8iterator@HandlerMap4@FH4@@QEBA_NAEBV012@@Z 0000000140013448 f i libvcruntime:frame.obj
 0001:00012454       ??8iterator@HandlerMap@__FrameHandler3@@QEBA_NAEBV012@@Z 0000000140013454 f i libvcruntime:frame.obj
 0001:00012460       ??8type_info@@QEBA_NAEBV0@@Z 0000000140013460 f i libvcruntime:frame.obj
 0001:0001247c       ??9iterator@HandlerMap4@FH4@@QEBA_NAEBV012@@Z 000000014001347c f i libvcruntime:frame.obj
 0001:00012488       ??9iterator@HandlerMap@__FrameHandler3@@QEBA_NAEBV012@@Z 0000000140013488 f i libvcruntime:frame.obj
 0001:00012494       ??Diterator@HandlerMap4@FH4@@QEAA?AUHandlerType4@2@XZ 0000000140013494 f i libvcruntime:frame.obj
 0001:000124b4       ??Diterator@HandlerMap@__FrameHandler3@@QEAA?BU_s_HandlerType@@XZ 00000001400134b4 f i libvcruntime:frame.obj
 0001:000124d8       ??Diterator@TryBlockMap@__FrameHandler3@@QEAA?BU_s_TryBlockMapEntry@@XZ 00000001400134d8 f i libvcruntime:frame.obj
 0001:00012508       ??Diterator@UWMap4@FH4@@QEAA?AUUnwindMapEntry4@2@XZ 0000000140013508 f i libvcruntime:frame.obj
 0001:0001255c       ??Eiterator@HandlerMap4@FH4@@QEAAAEAV012@XZ 000000014001355c f i libvcruntime:frame.obj
 0001:0001257c       ??Eiterator@HandlerMap@__FrameHandler3@@QEAAAEAV012@XZ 000000014001357c f i libvcruntime:frame.obj
 0001:00012584       ??Eiterator@TryBlockMap@__FrameHandler3@@QEAAAEAV012@XZ 0000000140013584 f i libvcruntime:frame.obj
 0001:0001258c       ??Eiterator@UWMap4@FH4@@QEAAAEAV012@XZ 000000014001358c f i libvcruntime:frame.obj
 0001:000125ac       ??Giterator@UWMap4@FH4@@QEBA_JAEBV012@@Z 00000001400135ac f i libvcruntime:frame.obj
 0001:000125b8       ??Miterator@TryBlockMap4@FH4@@QEBA_NAEBV012@@Z 00000001400135b8 f i libvcruntime:frame.obj
 0001:000125c4       ??Miterator@TryBlockMap@__FrameHandler3@@QEBA_NAEBV012@@Z 00000001400135c4 f i libvcruntime:frame.obj
 0001:000125d0       ??Oiterator@UWMap4@FH4@@QEBA_NAEBV012@@Z 00000001400135d0 f i libvcruntime:frame.obj
 0001:000125dc       ??Piterator@UWMap4@FH4@@QEBA_NAEBV012@@Z 00000001400135dc f i libvcruntime:frame.obj
 0001:000125e8       ??_Ebad_exception@std@@UEAAPEAXI@Z 00000001400135e8 f i libvcruntime:frame.obj
 0001:000125e8       ??_Gbad_exception@std@@UEAAPEAXI@Z 00000001400135e8 f i libvcruntime:frame.obj
 0001:0001262c       ??_Eexception@std@@UEAAPEAXI@Z 000000014001362c f i libvcruntime:frame.obj
 0001:0001262c       ??_Gexception@std@@UEAAPEAXI@Z 000000014001362c f i libvcruntime:frame.obj
 0001:00012670       ?BuildCatchObject@__FrameHandler3@@SAXPEAUEHExceptionRecord@@PEAXPEBU_s_HandlerType@@PEBU_s_CatchableType@@@Z 0000000140013670 f   libvcruntime:frame.obj
 0001:00012678       ?BuildCatchObject@__FrameHandler4@@SAXPEAUEHExceptionRecord@@PEAXPEAUHandlerType4@FH4@@PEBU_s_CatchableType@@@Z 0000000140013678 f   libvcruntime:frame.obj
 0001:00012680       ?BuildCatchObjectHelper@__FrameHandler3@@SAHPEAUEHExceptionRecord@@PEAXPEBU_s_HandlerType@@PEBU_s_CatchableType@@@Z 0000000140013680 f   libvcruntime:frame.obj
 0001:00012688       ?BuildCatchObjectHelper@__FrameHandler4@@SAHPEAUEHExceptionRecord@@PEAXPEAUHandlerType4@FH4@@PEBU_s_CatchableType@@@Z 0000000140013688 f   libvcruntime:frame.obj
 0001:00012690       ?CxxCallCatchBlock@__FrameHandler3@@SAPEAXPEAU_EXCEPTION_RECORD@@@Z 0000000140013690 f   libvcruntime:frame.obj
 0001:0001287c       ?CxxCallCatchBlock@__FrameHandler4@@SAPEAXPEAU_EXCEPTION_RECORD@@@Z 000000014001387c f   libvcruntime:frame.obj
 0001:00012acc       ?DecompHandler@HandlerMap4@FH4@@AEAAXXZ 0000000140013acc f i libvcruntime:frame.obj
 0001:00012d14       ?FrameUnwindToState@__FrameHandler3@@SAXPEA_KPEAU_xDISPATCHER_CONTEXT@@PEBU_s_FuncInfo@@H@Z 0000000140013d14 f   libvcruntime:frame.obj
 0001:00012ea0       ?FrameUnwindToState@__FrameHandler4@@SAXPEA_KPEAU_xDISPATCHER_CONTEXT@@PEAUFuncInfo4@FH4@@H@Z 0000000140013ea0 f   libvcruntime:frame.obj
 0001:000131a8       ?GetHandlerSearchState@__FrameHandler3@@SAHPEA_KPEAU_xDISPATCHER_CONTEXT@@PEBU_s_FuncInfo@@@Z 00000001400141a8 f i libvcruntime:frame.obj
 0001:00013240       ?GetHandlerSearchState@__FrameHandler4@@SAHPEA_KPEAU_xDISPATCHER_CONTEXT@@PEAUFuncInfo4@FH4@@@Z 0000000140014240 f i libvcruntime:frame.obj
 0001:000132a4       ?GetMaxState@__FrameHandler3@@SAHPEAU_xDISPATCHER_CONTEXT@@PEBU_s_FuncInfo@@@Z 00000001400142a4 f i libvcruntime:frame.obj
 0001:000132a8       ?GetMaxState@__FrameHandler4@@SAHPEAU_xDISPATCHER_CONTEXT@@PEAUFuncInfo4@FH4@@@Z 00000001400142a8 f i libvcruntime:frame.obj
 0001:00013458       ?ReadEntry@UWMap4@FH4@@AEAAXPEAPEAE@Z 0000000140014458 f i libvcruntime:frame.obj
 0001:000134f4       ?TypeMatch@__FrameHandler3@@SAHPEBU_s_HandlerType@@PEBU_s_CatchableType@@PEBU_s_ThrowInfo@@@Z 00000001400144f4 f   libvcruntime:frame.obj
 0001:000134fc       ?TypeMatch@__FrameHandler4@@SAHPEAUHandlerType4@FH4@@PEBU_s_CatchableType@@PEBU_s_ThrowInfo@@@Z 00000001400144fc f   libvcruntime:frame.obj
 0001:00013504       ?WalkBack@UWMap4@FH4@@AEAAXPEAPEAE@Z 0000000140014504 f i libvcruntime:frame.obj
 0001:0001353c       ?WalkBack@iterator@UWMap4@FH4@@QEAAXXZ 000000014001453c f i libvcruntime:frame.obj
 0001:0001357c       ?WalkForward@UWMap4@FH4@@AEAAXPEAPEAE@Z 000000014001457c f i libvcruntime:frame.obj
 0001:00013584       ?_CallMemberFunction1@@YAXQEAX00@Z 0000000140014584 f i libvcruntime:frame.obj
 0001:00013590       ?_CallMemberFunction2@@YAXQEAX00H@Z 0000000140014590 f i libvcruntime:frame.obj
 0001:000135b4       ?begin@HandlerMap4@FH4@@QEAA?AViterator@12@XZ 00000001400145b4 f i libvcruntime:frame.obj
 0001:000135c0       ?begin@HandlerMap@__FrameHandler3@@QEAA?AViterator@12@XZ 00000001400145c0 f i libvcruntime:frame.obj
 0001:000135cc       ?begin@UWMap4@FH4@@QEAA?AViterator@12@XZ 00000001400145cc f i libvcruntime:frame.obj
 0001:000135dc       ?end@HandlerMap4@FH4@@QEAA?AViterator@12@XZ 00000001400145dc f i libvcruntime:frame.obj
 0001:000135e8       ?end@HandlerMap@__FrameHandler3@@QEAA?AViterator@12@XZ 00000001400145e8 f i libvcruntime:frame.obj
 0001:000135f4       ?getESTypes@__FrameHandler3@@SAPEBU_s_ESTypeList@@PEBU_s_FuncInfo@@@Z 00000001400145f4 f i libvcruntime:frame.obj
 0001:0001361c       ?getESTypes@__FrameHandler4@@SAPEBU_s_ESTypeList@@PEAUFuncInfo4@FH4@@@Z 000000014001461c f i libvcruntime:frame.obj
 0001:00013620       ?getLastEntry@HandlerMap4@FH4@@QEAAPEAUHandlerType4@2@XZ 0000000140014620 f i libvcruntime:frame.obj
 0001:00013670       ?getLastEntry@HandlerMap@__FrameHandler3@@QEAAPEBU_s_HandlerType@@XZ 0000000140014670 f i libvcruntime:frame.obj
 0001:00013684       ?getMagicNum@__FrameHandler3@@SAIPEBU_s_FuncInfo@@@Z 0000000140014684 f i libvcruntime:frame.obj
 0001:0001368c       ?getMagicNum@__FrameHandler4@@SAIPEAUFuncInfo4@FH4@@@Z 000000014001468c f i libvcruntime:frame.obj
 0001:00013694       ?getNumTryBlocks@TryBlockMap4@FH4@@QEAAIXZ 0000000140014694 f i libvcruntime:frame.obj
 0001:00013698       ?getNumTryBlocks@TryBlockMap@__FrameHandler3@@QEAAIXZ 0000000140014698 f i libvcruntime:frame.obj
 0001:000136a0       ?getStartStop@UWMap4@FH4@@QEAAXHHAEAViterator@12@0@Z 00000001400146a0 f i libvcruntime:frame.obj
 0001:00013770       ?getStateFromIterators@UWMap4@FH4@@SAHAEBViterator@12@H0H0@Z 0000000140014770 f i libvcruntime:frame.obj
 0001:00013820       ?isEHs@__FrameHandler3@@SA_NPEBU_s_FuncInfo@@@Z 0000000140014820 f i libvcruntime:frame.obj
 0001:00013828       ?isEHs@__FrameHandler4@@SA_NPEAUFuncInfo4@FH4@@@Z 0000000140014828 f i libvcruntime:frame.obj
 0001:00013830       ?isNoExcept@__FrameHandler3@@SA_NPEBU_s_FuncInfo@@@Z 0000000140014830 f i libvcruntime:frame.obj
 0001:0001383c       ?isNoExcept@__FrameHandler4@@SA_NPEAUFuncInfo4@FH4@@@Z 000000014001483c f i libvcruntime:frame.obj
 0001:00013844       ?reset@HandlerType4@FH4@@QEAAXXZ 0000000140014844 f i libvcruntime:frame.obj
 0001:00013858       ?resetBuffer@HandlerMap4@FH4@@QEAAXXZ 0000000140014858 f i libvcruntime:frame.obj
 0001:00013868       ?setBuffer@HandlerMap4@FH4@@QEAAXI@Z 0000000140014868 f i libvcruntime:frame.obj
 0001:000138a4       ?what@exception@std@@UEBAPEBDXZ 00000001400148a4 f i libvcruntime:frame.obj
 0001:000138b8       __BuildCatchObject         00000001400148b8 f   libvcruntime:frame.obj
 0001:000138c0       __BuildCatchObjectHelper   00000001400148c0 f   libvcruntime:frame.obj
 0001:000138c8       __TypeMatch                00000001400148c8 f   libvcruntime:frame.obj
 0001:000138d0       __vcrt_EncodePointer       00000001400148d0 f i libvcruntime:frame.obj
 0001:00013920       _CallSettingFrame          0000000140014920 f   libvcruntime:handlers.obj
 0001:00013960       _CallSettingFrame_LookupContinuationIndex 0000000140014960 f   libvcruntime:handlers.obj
 0001:00013990       _CallSettingFrame_NotifyContinuationAddr 0000000140014990 f   libvcruntime:handlers.obj
 0001:000139c0       _CallSettingFrameEncoded   00000001400149c0 f   libvcruntime:handlers.obj
 0001:00013a08       ??$?RD@__crt_public_free_policy@@QEBAXQEBD@Z 0000000140014a08 f i libvcruntime:std_exception.obj
 0001:00013a10       ??0?$__crt_unique_heap_ptr@DU__crt_public_free_policy@@@@QEAA@QEAD@Z 0000000140014a10 f i libvcruntime:std_exception.obj
 0001:00013a18       ??1?$__crt_unique_heap_ptr@DU__crt_public_free_policy@@@@QEAA@XZ 0000000140014a18 f i libvcruntime:std_exception.obj
 0001:00013a34       ??B?$__crt_unique_heap_ptr@DU__crt_public_free_policy@@@@QEBA_NXZ 0000000140014a34 f i libvcruntime:std_exception.obj
 0001:00013a3c       ?detach@?$__crt_unique_heap_ptr@DU__crt_public_free_policy@@@@QEAAPEADXZ 0000000140014a3c f i libvcruntime:std_exception.obj
 0001:00013a44       ?get@?$__crt_unique_heap_ptr@DU__crt_public_free_policy@@@@QEBAPEADXZ 0000000140014a44 f i libvcruntime:std_exception.obj
 0001:00013a48       ?is_valid@?$__crt_unique_heap_ptr@DU__crt_public_free_policy@@@@QEBA_NXZ 0000000140014a48 f i libvcruntime:std_exception.obj
 0001:00013a50       ?release@?$__crt_unique_heap_ptr@DU__crt_public_free_policy@@@@QEAAXXZ 0000000140014a50 f i libvcruntime:std_exception.obj
 0001:00013a6c       __std_exception_copy       0000000140014a6c f   libvcruntime:std_exception.obj
 0001:00013afc       __std_exception_destroy    0000000140014afc f   libvcruntime:std_exception.obj
 0001:00013b24       _CxxThrowException         0000000140014b24 f   libvcruntime:throw.obj
 0001:00013be0       memcpy_avx_ermsb_Intel     0000000140014be0 f   libvcruntime:memcpy_avx_ermsb_aligned.obj
 0001:00014010       memcpy_avx_ermsb_amd       0000000140015010 f   libvcruntime:memcpy_avx_ermsb_aligned_amd.obj
 0001:00014440       memcpy_sse2_ermsb_Intel    0000000140015440 f   libvcruntime:memcpy_sse2_ermsb_aligned.obj
 0001:000146f0       memcpy_sse2_ermsb_amd      00000001400156f0 f   libvcruntime:memcpy_sse2_ermsb_aligned_amd.obj
 0001:000149a0       memcpy_repmovs_Intel       00000001400159a0 f   libvcruntime:memcpy_repmovs.obj
 0001:000149c0       memcpy_CopyDown_Intel      00000001400159c0 f   libvcruntime:memcpy_CopyDown.obj
 0001:00014ab0       memcpy_repmovs_amd         0000000140015ab0 f   libvcruntime:memcpy_repmovs_amd.obj
 0001:00014ad0       memcpy_CopyDown_amd        0000000140015ad0 f   libvcruntime:memcpy_CopyDown_amd.obj
 0001:00014bb0       ??$?0AEBV?$stream_output_adapter@D@__crt_stdio_output@@AEB_KAEBQEBDAEAV__crt_cached_ptd_host@@AEBQEAD@?$format_validation_base@DV?$stream_output_adapter@D@__crt_stdio_output@@@__crt_stdio_output@@IEAA@AEBV?$stream_output_adapter@D@1@AEB_KAEBQEBDAEAV__crt_cached_ptd_host@@AEBQEAD@Z 0000000140015bb0 f i libucrt:output.obj
 0001:00014c20       ??$?0AEBV?$stream_output_adapter@D@__crt_stdio_output@@AEB_KAEBQEBDAEAV__crt_cached_ptd_host@@AEBQEAD@?$positional_parameter_base@DV?$stream_output_adapter@D@__crt_stdio_output@@@__crt_stdio_output@@IEAA@AEBV?$stream_output_adapter@D@1@AEB_KAEBQEBDAEAV__crt_cached_ptd_host@@AEBQEAD@Z 0000000140015c20 f i libucrt:output.obj
 0001:00014cb0       ??$?0AEBV?$stream_output_adapter@D@__crt_stdio_output@@AEB_KAEBQEBDAEAV__crt_cached_ptd_host@@AEBQEAD@?$standard_base@DV?$stream_output_adapter@D@__crt_stdio_output@@@__crt_stdio_output@@IEAA@AEBV?$stream_output_adapter@D@1@AEB_KAEBQEBDAEAV__crt_cached_ptd_host@@AEBQEAD@Z 0000000140015cb0 f i libucrt:output.obj
 0001:00014d20       ??$?0AEBV?$stream_output_adapter@_W@__crt_stdio_output@@AEB_KAEBQEB_WAEAV__crt_cached_ptd_host@@AEBQEAD@?$format_validation_base@_WV?$stream_output_adapter@_W@__crt_stdio_output@@@__crt_stdio_output@@IEAA@AEBV?$stream_output_adapter@_W@1@AEB_KAEBQEB_WAEAV__crt_cached_ptd_host@@AEBQEAD@Z 0000000140015d20 f i libucrt:output.obj
 0001:00014d94       ??$?0AEBV?$stream_output_adapter@_W@__crt_stdio_output@@AEB_KAEBQEB_WAEAV__crt_cached_ptd_host@@AEBQEAD@?$positional_parameter_base@_WV?$stream_output_adapter@_W@__crt_stdio_output@@@__crt_stdio_output@@IEAA@AEBV?$stream_output_adapter@_W@1@AEB_KAEBQEB_WAEAV__crt_cached_ptd_host@@AEBQEAD@Z 0000000140015d94 f i libucrt:output.obj
 0001:00014e28       ??$?0AEBV?$stream_output_adapter@_W@__crt_stdio_output@@AEB_KAEBQEB_WAEAV__crt_cached_ptd_host@@AEBQEAD@?$standard_base@_WV?$stream_output_adapter@_W@__crt_stdio_output@@@__crt_stdio_output@@IEAA@AEBV?$stream_output_adapter@_W@1@AEB_KAEBQEB_WAEAV__crt_cached_ptd_host@@AEBQEAD@Z 0000000140015e28 f i libucrt:output.obj
 0001:00014e9c       ??$?0AEBV?$string_output_adapter@D@__crt_stdio_output@@AEB_KAEBQEBDAEAV__crt_cached_ptd_host@@AEBQEAD@?$format_validation_base@DV?$string_output_adapter@D@__crt_stdio_output@@@__crt_stdio_output@@IEAA@AEBV?$string_output_adapter@D@1@AEB_KAEBQEBDAEAV__crt_cached_ptd_host@@AEBQEAD@Z 0000000140015e9c f i libucrt:output.obj
 0001:00014f0c       ??$?0AEBV?$string_output_adapter@D@__crt_stdio_output@@AEB_KAEBQEBDAEAV__crt_cached_ptd_host@@AEBQEAD@?$positional_parameter_base@DV?$string_output_adapter@D@__crt_stdio_output@@@__crt_stdio_output@@IEAA@AEBV?$string_output_adapter@D@1@AEB_KAEBQEBDAEAV__crt_cached_ptd_host@@AEBQEAD@Z 0000000140015f0c f i libucrt:output.obj
 0001:00014f9c       ??$?0AEBV?$string_output_adapter@D@__crt_stdio_output@@AEB_KAEBQEBDAEAV__crt_cached_ptd_host@@AEBQEAD@?$standard_base@DV?$string_output_adapter@D@__crt_stdio_output@@@__crt_stdio_output@@IEAA@AEBV?$string_output_adapter@D@1@AEB_KAEBQEBDAEAV__crt_cached_ptd_host@@AEBQEAD@Z 0000000140015f9c f i libucrt:output.obj
 0001:0001500c       ??$?0AEBV?$string_output_adapter@_W@__crt_stdio_output@@AEB_KAEBQEB_WAEAV__crt_cached_ptd_host@@AEBQEAD@?$format_validation_base@_WV?$string_output_adapter@_W@__crt_stdio_output@@@__crt_stdio_output@@IEAA@AEBV?$string_output_adapter@_W@1@AEB_KAEBQEB_WAEAV__crt_cached_ptd_host@@AEBQEAD@Z 000000014001600c f i libucrt:output.obj
 0001:00015080       ??$?0AEBV?$string_output_adapter@_W@__crt_stdio_output@@AEB_KAEBQEB_WAEAV__crt_cached_ptd_host@@AEBQEAD@?$positional_parameter_base@_WV?$string_output_adapter@_W@__crt_stdio_output@@@__crt_stdio_output@@IEAA@AEBV?$string_output_adapter@_W@1@AEB_KAEBQEB_WAEAV__crt_cached_ptd_host@@AEBQEAD@Z 0000000140016080 f i libucrt:output.obj
 0001:00015114       ??$?0AEBV?$string_output_adapter@_W@__crt_stdio_output@@AEB_KAEBQEB_WAEAV__crt_cached_ptd_host@@AEBQEAD@?$standard_base@_WV?$string_output_adapter@_W@__crt_stdio_output@@@__crt_stdio_output@@IEAA@AEBV?$string_output_adapter@_W@1@AEB_KAEBQEB_WAEAV__crt_cached_ptd_host@@AEBQEAD@Z 0000000140016114 f i libucrt:output.obj
 0001:000153f8       ??$__crt_interlocked_read@J@@YAJPEDJ@Z 00000001400163f8 f i libucrt:output.obj
 0001:000153fc       ??$_tcstol_internal@DPEAPEAD$0A@@@YAJAEAV__crt_cached_ptd_host@@QEBDQEAPEADH@Z 00000001400163fc f i libucrt:output.obj
 0001:0001542c       ??$_tcstol_internal@_WPEAPEA_W$0A@@@YAJAEAV__crt_cached_ptd_host@@QEB_WQEAPEA_WH@Z 000000014001642c f i libucrt:output.obj
 0001:0001656c       ??$count@D@formatting_buffer@__crt_stdio_output@@QEBA_KXZ 000000014001756c f i libucrt:output.obj
 0001:00016588       ??$count@_W@formatting_buffer@__crt_stdio_output@@QEBA_KXZ 0000000140017588 f i libucrt:output.obj
 0001:000165a4       ??$data@D@formatting_buffer@__crt_stdio_output@@QEAAPEADXZ 00000001400175a4 f i libucrt:output.obj
 0001:000165b4       ??$data@_W@formatting_buffer@__crt_stdio_output@@QEAAPEA_WXZ 00000001400175b4 f i libucrt:output.obj
 0001:000165c4       ??$ensure_buffer_is_big_enough@D@formatting_buffer@__crt_stdio_output@@QEAA_N_KAEAV__crt_cached_ptd_host@@@Z 00000001400175c4 f i libucrt:output.obj
 0001:0001666c       ??$ensure_buffer_is_big_enough@_W@formatting_buffer@__crt_stdio_output@@QEAA_N_KAEAV__crt_cached_ptd_host@@@Z 000000014001766c f i libucrt:output.obj
 0001:00016718       ??$extract_argument_from_va_list@C_J@?$positional_parameter_base@DV?$stream_output_adapter@D@__crt_stdio_output@@@__crt_stdio_output@@IEAA_NAEA_J@Z 0000000140017718 f i libucrt:output.obj
 0001:00016824       ??$extract_argument_from_va_list@C_J@?$positional_parameter_base@DV?$string_output_adapter@D@__crt_stdio_output@@@__crt_stdio_output@@IEAA_NAEA_J@Z 0000000140017824 f i libucrt:output.obj
 0001:00016930       ??$extract_argument_from_va_list@C_J@?$positional_parameter_base@_WV?$stream_output_adapter@_W@__crt_stdio_output@@@__crt_stdio_output@@IEAA_NAEA_J@Z 0000000140017930 f i libucrt:output.obj
 0001:00016a3c       ??$extract_argument_from_va_list@C_J@?$positional_parameter_base@_WV?$string_output_adapter@_W@__crt_stdio_output@@@__crt_stdio_output@@IEAA_NAEA_J@Z 0000000140017a3c f i libucrt:output.obj
 0001:00016b48       ??$extract_argument_from_va_list@C_J@?$standard_base@DV?$stream_output_adapter@D@__crt_stdio_output@@@__crt_stdio_output@@IEAA_NAEA_J@Z 0000000140017b48 f i libucrt:output.obj
 0001:00016b60       ??$extract_argument_from_va_list@C_J@?$standard_base@DV?$string_output_adapter@D@__crt_stdio_output@@@__crt_stdio_output@@IEAA_NAEA_J@Z 0000000140017b60 f i libucrt:output.obj
 0001:00016b78       ??$extract_argument_from_va_list@C_J@?$standard_base@_WV?$stream_output_adapter@_W@__crt_stdio_output@@@__crt_stdio_output@@IEAA_NAEA_J@Z 0000000140017b78 f i libucrt:output.obj
 0001:00016b90       ??$extract_argument_from_va_list@C_J@?$standard_base@_WV?$string_output_adapter@_W@__crt_stdio_output@@@__crt_stdio_output@@IEAA_NAEA_J@Z 0000000140017b90 f i libucrt:output.obj
 0001:00016ba8       ??$extract_argument_from_va_list@E_J@?$positional_parameter_base@DV?$stream_output_adapter@D@__crt_stdio_output@@@__crt_stdio_output@@IEAA_NAEA_J@Z 0000000140017ba8 f i libucrt:output.obj
 0001:00016cb0       ??$extract_argument_from_va_list@E_J@?$positional_parameter_base@DV?$string_output_adapter@D@__crt_stdio_output@@@__crt_stdio_output@@IEAA_NAEA_J@Z 0000000140017cb0 f i libucrt:output.obj
 0001:00016db8       ??$extract_argument_from_va_list@E_J@?$positional_parameter_base@_WV?$stream_output_adapter@_W@__crt_stdio_output@@@__crt_stdio_output@@IEAA_NAEA_J@Z 0000000140017db8 f i libucrt:output.obj
 0001:00016ec4       ??$extract_argument_from_va_list@E_J@?$positional_parameter_base@_WV?$string_output_adapter@_W@__crt_stdio_output@@@__crt_stdio_output@@IEAA_NAEA_J@Z 0000000140017ec4 f i libucrt:output.obj
 0001:00016fd0       ??$extract_argument_from_va_list@E_J@?$standard_base@DV?$stream_output_adapter@D@__crt_stdio_output@@@__crt_stdio_output@@IEAA_NAEA_J@Z 0000000140017fd0 f i libucrt:output.obj
 0001:00016fe8       ??$extract_argument_from_va_list@E_J@?$standard_base@DV?$string_output_adapter@D@__crt_stdio_output@@@__crt_stdio_output@@IEAA_NAEA_J@Z 0000000140017fe8 f i libucrt:output.obj
 0001:00017000       ??$extract_argument_from_va_list@E_J@?$standard_base@_WV?$stream_output_adapter@_W@__crt_stdio_output@@@__crt_stdio_output@@IEAA_NAEA_J@Z 0000000140018000 f i libucrt:output.obj
 0001:00017018       ??$extract_argument_from_va_list@E_J@?$standard_base@_WV?$string_output_adapter@_W@__crt_stdio_output@@@__crt_stdio_output@@IEAA_NAEA_J@Z 0000000140018018 f i libucrt:output.obj
 0001:00017030       ??$extract_argument_from_va_list@F_J@?$positional_parameter_base@DV?$stream_output_adapter@D@__crt_stdio_output@@@__crt_stdio_output@@IEAA_NAEA_J@Z 0000000140018030 f i libucrt:output.obj
 0001:0001713c       ??$extract_argument_from_va_list@F_J@?$positional_parameter_base@DV?$string_output_adapter@D@__crt_stdio_output@@@__crt_stdio_output@@IEAA_NAEA_J@Z 000000014001813c f i libucrt:output.obj
 0001:00017248       ??$extract_argument_from_va_list@F_J@?$positional_parameter_base@_WV?$stream_output_adapter@_W@__crt_stdio_output@@@__crt_stdio_output@@IEAA_NAEA_J@Z 0000000140018248 f i libucrt:output.obj
 0001:00017354       ??$extract_argument_from_va_list@F_J@?$positional_parameter_base@_WV?$string_output_adapter@_W@__crt_stdio_output@@@__crt_stdio_output@@IEAA_NAEA_J@Z 0000000140018354 f i libucrt:output.obj
 0001:00017460       ??$extract_argument_from_va_list@F_J@?$standard_base@DV?$stream_output_adapter@D@__crt_stdio_output@@@__crt_stdio_output@@IEAA_NAEA_J@Z 0000000140018460 f i libucrt:output.obj
 0001:00017478       ??$extract_argument_from_va_list@F_J@?$standard_base@DV?$string_output_adapter@D@__crt_stdio_output@@@__crt_stdio_output@@IEAA_NAEA_J@Z 0000000140018478 f i libucrt:output.obj
 0001:00017490       ??$extract_argument_from_va_list@F_J@?$standard_base@_WV?$stream_output_adapter@_W@__crt_stdio_output@@@__crt_stdio_output@@IEAA_NAEA_J@Z 0000000140018490 f i libucrt:output.obj
 0001:000174a8       ??$extract_argument_from_va_list@F_J@?$standard_base@_WV?$string_output_adapter@_W@__crt_stdio_output@@@__crt_stdio_output@@IEAA_NAEA_J@Z 00000001400184a8 f i libucrt:output.obj
 0001:000174c0       ??$extract_argument_from_va_list@GD@?$positional_parameter_base@DV?$stream_output_adapter@D@__crt_stdio_output@@@__crt_stdio_output@@IEAA_NAEAD@Z 00000001400184c0 f i libucrt:output.obj
 0001:000175c4       ??$extract_argument_from_va_list@GD@?$positional_parameter_base@DV?$string_output_adapter@D@__crt_stdio_output@@@__crt_stdio_output@@IEAA_NAEAD@Z 00000001400185c4 f i libucrt:output.obj
 0001:000176c8       ??$extract_argument_from_va_list@GD@?$standard_base@DV?$stream_output_adapter@D@__crt_stdio_output@@@__crt_stdio_output@@IEAA_NAEAD@Z 00000001400186c8 f i libucrt:output.obj
 0001:000176dc       ??$extract_argument_from_va_list@GD@?$standard_base@DV?$string_output_adapter@D@__crt_stdio_output@@@__crt_stdio_output@@IEAA_NAEAD@Z 00000001400186dc f i libucrt:output.obj
 0001:000176f0       ??$extract_argument_from_va_list@G_J@?$positional_parameter_base@DV?$stream_output_adapter@D@__crt_stdio_output@@@__crt_stdio_output@@IEAA_NAEA_J@Z 00000001400186f0 f i libucrt:output.obj
 0001:000177f8       ??$extract_argument_from_va_list@G_J@?$positional_parameter_base@DV?$string_output_adapter@D@__crt_stdio_output@@@__crt_stdio_output@@IEAA_NAEA_J@Z 00000001400187f8 f i libucrt:output.obj
 0001:00017900       ??$extract_argument_from_va_list@G_J@?$positional_parameter_base@_WV?$stream_output_adapter@_W@__crt_stdio_output@@@__crt_stdio_output@@IEAA_NAEA_J@Z 0000000140018900 f i libucrt:output.obj
 0001:00017a0c       ??$extract_argument_from_va_list@G_J@?$positional_parameter_base@_WV?$string_output_adapter@_W@__crt_stdio_output@@@__crt_stdio_output@@IEAA_NAEA_J@Z 0000000140018a0c f i libucrt:output.obj
 0001:00017b18       ??$extract_argument_from_va_list@G_J@?$standard_base@DV?$stream_output_adapter@D@__crt_stdio_output@@@__crt_stdio_output@@IEAA_NAEA_J@Z 0000000140018b18 f i libucrt:output.obj
 0001:00017b30       ??$extract_argument_from_va_list@G_J@?$standard_base@DV?$string_output_adapter@D@__crt_stdio_output@@@__crt_stdio_output@@IEAA_NAEA_J@Z 0000000140018b30 f i libucrt:output.obj
 0001:00017b48       ??$extract_argument_from_va_list@G_J@?$standard_base@_WV?$stream_output_adapter@_W@__crt_stdio_output@@@__crt_stdio_output@@IEAA_NAEA_J@Z 0000000140018b48 f i libucrt:output.obj
 0001:00017b60       ??$extract_argument_from_va_list@G_J@?$standard_base@_WV?$string_output_adapter@_W@__crt_stdio_output@@@__crt_stdio_output@@IEAA_NAEA_J@Z 0000000140018b60 f i libucrt:output.obj
 0001:00017b78       ??$extract_argument_from_va_list@H_J@?$positional_parameter_base@DV?$stream_output_adapter@D@__crt_stdio_output@@@__crt_stdio_output@@IEAA_NAEA_J@Z 0000000140018b78 f i libucrt:output.obj
 0001:00017c80       ??$extract_argument_from_va_list@H_J@?$positional_parameter_base@DV?$string_output_adapter@D@__crt_stdio_output@@@__crt_stdio_output@@IEAA_NAEA_J@Z 0000000140018c80 f i libucrt:output.obj
 0001:00017d88       ??$extract_argument_from_va_list@H_J@?$positional_parameter_base@_WV?$stream_output_adapter@_W@__crt_stdio_output@@@__crt_stdio_output@@IEAA_NAEA_J@Z 0000000140018d88 f i libucrt:output.obj
 0001:00017e94       ??$extract_argument_from_va_list@H_J@?$positional_parameter_base@_WV?$string_output_adapter@_W@__crt_stdio_output@@@__crt_stdio_output@@IEAA_NAEA_J@Z 0000000140018e94 f i libucrt:output.obj
 0001:00017fa0       ??$extract_argument_from_va_list@H_J@?$standard_base@DV?$stream_output_adapter@D@__crt_stdio_output@@@__crt_stdio_output@@IEAA_NAEA_J@Z 0000000140018fa0 f i libucrt:output.obj
 0001:00017fb8       ??$extract_argument_from_va_list@H_J@?$standard_base@DV?$string_output_adapter@D@__crt_stdio_output@@@__crt_stdio_output@@IEAA_NAEA_J@Z 0000000140018fb8 f i libucrt:output.obj
 0001:00017fd0       ??$extract_argument_from_va_list@H_J@?$standard_base@_WV?$stream_output_adapter@_W@__crt_stdio_output@@@__crt_stdio_output@@IEAA_NAEA_J@Z 0000000140018fd0 f i libucrt:output.obj
 0001:00017fe8       ??$extract_argument_from_va_list@H_J@?$standard_base@_WV?$string_output_adapter@_W@__crt_stdio_output@@@__crt_stdio_output@@IEAA_NAEA_J@Z 0000000140018fe8 f i libucrt:output.obj
 0001:00018000       ??$extract_argument_from_va_list@I_J@?$positional_parameter_base@DV?$stream_output_adapter@D@__crt_stdio_output@@@__crt_stdio_output@@IEAA_NAEA_J@Z 0000000140019000 f i libucrt:output.obj
 0001:00018108       ??$extract_argument_from_va_list@I_J@?$positional_parameter_base@DV?$string_output_adapter@D@__crt_stdio_output@@@__crt_stdio_output@@IEAA_NAEA_J@Z 0000000140019108 f i libucrt:output.obj
 0001:00018210       ??$extract_argument_from_va_list@I_J@?$positional_parameter_base@_WV?$stream_output_adapter@_W@__crt_stdio_output@@@__crt_stdio_output@@IEAA_NAEA_J@Z 0000000140019210 f i libucrt:output.obj
 0001:00018318       ??$extract_argument_from_va_list@I_J@?$positional_parameter_base@_WV?$string_output_adapter@_W@__crt_stdio_output@@@__crt_stdio_output@@IEAA_NAEA_J@Z 0000000140019318 f i libucrt:output.obj
 0001:00018420       ??$extract_argument_from_va_list@I_J@?$standard_base@DV?$stream_output_adapter@D@__crt_stdio_output@@@__crt_stdio_output@@IEAA_NAEA_J@Z 0000000140019420 f i libucrt:output.obj
 0001:00018438       ??$extract_argument_from_va_list@I_J@?$standard_base@DV?$string_output_adapter@D@__crt_stdio_output@@@__crt_stdio_output@@IEAA_NAEA_J@Z 0000000140019438 f i libucrt:output.obj
 0001:00018450       ??$extract_argument_from_va_list@I_J@?$standard_base@_WV?$stream_output_adapter@_W@__crt_stdio_output@@@__crt_stdio_output@@IEAA_NAEA_J@Z 0000000140019450 f i libucrt:output.obj
 0001:00018468       ??$extract_argument_from_va_list@I_J@?$standard_base@_WV?$string_output_adapter@_W@__crt_stdio_output@@@__crt_stdio_output@@IEAA_NAEA_J@Z 0000000140019468 f i libucrt:output.obj
 0001:00018480       ??$extract_argument_from_va_list@PEADPEAD@?$positional_parameter_base@DV?$stream_output_adapter@D@__crt_stdio_output@@@__crt_stdio_output@@IEAA_NAEAPEAD@Z 0000000140019480 f i libucrt:output.obj
 0001:00018588       ??$extract_argument_from_va_list@PEADPEAD@?$positional_parameter_base@DV?$string_output_adapter@D@__crt_stdio_output@@@__crt_stdio_output@@IEAA_NAEAPEAD@Z 0000000140019588 f i libucrt:output.obj
 0001:00018690       ??$extract_argument_from_va_list@PEADPEAD@?$positional_parameter_base@_WV?$stream_output_adapter@_W@__crt_stdio_output@@@__crt_stdio_output@@IEAA_NAEAPEAD@Z 0000000140019690 f i libucrt:output.obj
 0001:0001879c       ??$extract_argument_from_va_list@PEADPEAD@?$positional_parameter_base@_WV?$string_output_adapter@_W@__crt_stdio_output@@@__crt_stdio_output@@IEAA_NAEAPEAD@Z 000000014001979c f i libucrt:output.obj
 0001:000188a8       ??$extract_argument_from_va_list@PEADPEAD@?$standard_base@DV?$stream_output_adapter@D@__crt_stdio_output@@@__crt_stdio_output@@IEAA_NAEAPEAD@Z 00000001400198a8 f i libucrt:output.obj
 0001:000188c0       ??$extract_argument_from_va_list@PEADPEAD@?$standard_base@DV?$string_output_adapter@D@__crt_stdio_output@@@__crt_stdio_output@@IEAA_NAEAPEAD@Z 00000001400198c0 f i libucrt:output.obj
 0001:000188d8       ??$extract_argument_from_va_list@PEADPEAD@?$standard_base@_WV?$stream_output_adapter@_W@__crt_stdio_output@@@__crt_stdio_output@@IEAA_NAEAPEAD@Z 00000001400198d8 f i libucrt:output.obj
 0001:000188f0       ??$extract_argument_from_va_list@PEADPEAD@?$standard_base@_WV?$string_output_adapter@_W@__crt_stdio_output@@@__crt_stdio_output@@IEAA_NAEAPEAD@Z 00000001400198f0 f i libucrt:output.obj
 0001:00018908       ??$extract_argument_from_va_list@PEAUansi_string@?1??type_case_Z@?$output_processor@DV?$stream_output_adapter@D@__crt_stdio_output@@V?$format_validation_base@DV?$stream_output_adapter@D@__crt_stdio_output@@@2@@__crt_stdio_output@@AEAA_NXZ@PEAU1?1??234@AEAA_NXZ@@?$standard_base@DV?$stream_output_adapter@D@__crt_stdio_output@@@__crt_stdio_output@@IEAA_NAEAPEAUansi_string@?1??type_case_Z@?$output_processor@DV?$stream_output_adapter@D@__crt_stdio_output@@V?$format_validation_base@DV?$stream_output_adapter@D@__crt_stdio_output@@@2@@1@AEAA_NXZ@@Z 0000000140019908 f i libucrt:output.obj
 0001:00018920       ??$extract_argument_from_va_list@PEAUansi_string@?1??type_case_Z@?$output_processor@DV?$stream_output_adapter@D@__crt_stdio_output@@V?$positional_parameter_base@DV?$stream_output_adapter@D@__crt_stdio_output@@@2@@__crt_stdio_output@@AEAA_NXZ@PEAU1?1??234@AEAA_NXZ@@?$positional_parameter_base@DV?$stream_output_adapter@D@__crt_stdio_output@@@__crt_stdio_output@@IEAA_NAEAPEAUansi_string@?1??type_case_Z@?$output_processor@DV?$stream_output_adapter@D@__crt_stdio_output@@V?$positional_parameter_base@DV?$stream_output_adapter@D@__crt_stdio_output@@@2@@1@AEAA_NXZ@@Z 0000000140019920 f i libucrt:output.obj
 0001:00018a28       ??$extract_argument_from_va_list@PEAUansi_string@?1??type_case_Z@?$output_processor@DV?$stream_output_adapter@D@__crt_stdio_output@@V?$positional_parameter_base@DV?$stream_output_adapter@D@__crt_stdio_output@@@2@@__crt_stdio_output@@AEAA_NXZ@PEAU1?1??234@AEAA_NXZ@@?$standard_base@DV?$stream_output_adapter@D@__crt_stdio_output@@@__crt_stdio_output@@IEAA_NAEAPEAUansi_string@?1??type_case_Z@?$output_processor@DV?$stream_output_adapter@D@__crt_stdio_output@@V?$positional_parameter_base@DV?$stream_output_adapter@D@__crt_stdio_output@@@2@@1@AEAA_NXZ@@Z 0000000140019a28 f i libucrt:output.obj
 0001:00018a40       ??$extract_argument_from_va_list@PEAUansi_string@?1??type_case_Z@?$output_processor@DV?$stream_output_adapter@D@__crt_stdio_output@@V?$standard_base@DV?$stream_output_adapter@D@__crt_stdio_output@@@2@@__crt_stdio_output@@AEAA_NXZ@PEAU1?1??234@AEAA_NXZ@@?$standard_base@DV?$stream_output_adapter@D@__crt_stdio_output@@@__crt_stdio_output@@IEAA_NAEAPEAUansi_string@?1??type_case_Z@?$output_processor@DV?$stream_output_adapter@D@__crt_stdio_output@@V?$standard_base@DV?$stream_output_adapter@D@__crt_stdio_output@@@2@@1@AEAA_NXZ@@Z 0000000140019a40 f i libucrt:output.obj
 0001:00018a58       ??$extract_argument_from_va_list@PEAUansi_string@?1??type_case_Z@?$output_processor@DV?$string_output_adapter@D@__crt_stdio_output@@V?$format_validation_base@DV?$string_output_adapter@D@__crt_stdio_output@@@2@@__crt_stdio_output@@AEAA_NXZ@PEAU1?1??234@AEAA_NXZ@@?$standard_base@DV?$string_output_adapter@D@__crt_stdio_output@@@__crt_stdio_output@@IEAA_NAEAPEAUansi_string@?1??type_case_Z@?$output_processor@DV?$string_output_adapter@D@__crt_stdio_output@@V?$format_validation_base@DV?$string_output_adapter@D@__crt_stdio_output@@@2@@1@AEAA_NXZ@@Z 0000000140019a58 f i libucrt:output.obj
 0001:00018a70       ??$extract_argument_from_va_list@PEAUansi_string@?1??type_case_Z@?$output_processor@DV?$string_output_adapter@D@__crt_stdio_output@@V?$positional_parameter_base@DV?$string_output_adapter@D@__crt_stdio_output@@@2@@__crt_stdio_output@@AEAA_NXZ@PEAU1?1??234@AEAA_NXZ@@?$positional_parameter_base@DV?$string_output_adapter@D@__crt_stdio_output@@@__crt_stdio_output@@IEAA_NAEAPEAUansi_string@?1??type_case_Z@?$output_processor@DV?$string_output_adapter@D@__crt_stdio_output@@V?$positional_parameter_base@DV?$string_output_adapter@D@__crt_stdio_output@@@2@@1@AEAA_NXZ@@Z 0000000140019a70 f i libucrt:output.obj
 0001:00018b78       ??$extract_argument_from_va_list@PEAUansi_string@?1??type_case_Z@?$output_processor@DV?$string_output_adapter@D@__crt_stdio_output@@V?$positional_parameter_base@DV?$string_output_adapter@D@__crt_stdio_output@@@2@@__crt_stdio_output@@AEAA_NXZ@PEAU1?1??234@AEAA_NXZ@@?$standard_base@DV?$string_output_adapter@D@__crt_stdio_output@@@__crt_stdio_output@@IEAA_NAEAPEAUansi_string@?1??type_case_Z@?$output_processor@DV?$string_output_adapter@D@__crt_stdio_output@@V?$positional_parameter_base@DV?$string_output_adapter@D@__crt_stdio_output@@@2@@1@AEAA_NXZ@@Z 0000000140019b78 f i libucrt:output.obj
 0001:00018b90       ??$extract_argument_from_va_list@PEAUansi_string@?1??type_case_Z@?$output_processor@DV?$string_output_adapter@D@__crt_stdio_output@@V?$standard_base@DV?$string_output_adapter@D@__crt_stdio_output@@@2@@__crt_stdio_output@@AEAA_NXZ@PEAU1?1??234@AEAA_NXZ@@?$standard_base@DV?$string_output_adapter@D@__crt_stdio_output@@@__crt_stdio_output@@IEAA_NAEAPEAUansi_string@?1??type_case_Z@?$output_processor@DV?$string_output_adapter@D@__crt_stdio_output@@V?$standard_base@DV?$string_output_adapter@D@__crt_stdio_output@@@2@@1@AEAA_NXZ@@Z 0000000140019b90 f i libucrt:output.obj
 0001:00018ba8       ??$extract_argument_from_va_list@PEAUansi_string@?1??type_case_Z@?$output_processor@_WV?$stream_output_adapter@_W@__crt_stdio_output@@V?$format_validation_base@_WV?$stream_output_adapter@_W@__crt_stdio_output@@@2@@__crt_stdio_output@@AEAA_NXZ@PEAU1?1??234@AEAA_NXZ@@?$standard_base@_WV?$stream_output_adapter@_W@__crt_stdio_output@@@__crt_stdio_output@@IEAA_NAEAPEAUansi_string@?1??type_case_Z@?$output_processor@_WV?$stream_output_adapter@_W@__crt_stdio_output@@V?$format_validation_base@_WV?$stream_output_adapter@_W@__crt_stdio_output@@@2@@1@AEAA_NXZ@@Z 0000000140019ba8 f i libucrt:output.obj
 0001:00018bc0       ??$extract_argument_from_va_list@PEAUansi_string@?1??type_case_Z@?$output_processor@_WV?$stream_output_adapter@_W@__crt_stdio_output@@V?$positional_parameter_base@_WV?$stream_output_adapter@_W@__crt_stdio_output@@@2@@__crt_stdio_output@@AEAA_NXZ@PEAU1?1??234@AEAA_NXZ@@?$positional_parameter_base@_WV?$stream_output_adapter@_W@__crt_stdio_output@@@__crt_stdio_output@@IEAA_NAEAPEAUansi_string@?1??type_case_Z@?$output_processor@_WV?$stream_output_adapter@_W@__crt_stdio_output@@V?$positional_parameter_base@_WV?$stream_output_adapter@_W@__crt_stdio_output@@@2@@1@AEAA_NXZ@@Z 0000000140019bc0 f i libucrt:output.obj
 0001:00018ccc       ??$extract_argument_from_va_list@PEAUansi_string@?1??type_case_Z@?$output_processor@_WV?$stream_output_adapter@_W@__crt_stdio_output@@V?$positional_parameter_base@_WV?$stream_output_adapter@_W@__crt_stdio_output@@@2@@__crt_stdio_output@@AEAA_NXZ@PEAU1?1??234@AEAA_NXZ@@?$standard_base@_WV?$stream_output_adapter@_W@__crt_stdio_output@@@__crt_stdio_output@@IEAA_NAEAPEAUansi_string@?1??type_case_Z@?$output_processor@_WV?$stream_output_adapter@_W@__crt_stdio_output@@V?$positional_parameter_base@_WV?$stream_output_adapter@_W@__crt_stdio_output@@@2@@1@AEAA_NXZ@@Z 0000000140019ccc f i libucrt:output.obj
 0001:00018ce4       ??$extract_argument_from_va_list@PEAUansi_string@?1??type_case_Z@?$output_processor@_WV?$stream_output_adapter@_W@__crt_stdio_output@@V?$standard_base@_WV?$stream_output_adapter@_W@__crt_stdio_output@@@2@@__crt_stdio_output@@AEAA_NXZ@PEAU1?1??234@AEAA_NXZ@@?$standard_base@_WV?$stream_output_adapter@_W@__crt_stdio_output@@@__crt_stdio_output@@IEAA_NAEAPEAUansi_string@?1??type_case_Z@?$output_processor@_WV?$stream_output_adapter@_W@__crt_stdio_output@@V?$standard_base@_WV?$stream_output_adapter@_W@__crt_stdio_output@@@2@@1@AEAA_NXZ@@Z 0000000140019ce4 f i libucrt:output.obj
 0001:00018cfc       ??$extract_argument_from_va_list@PEAUansi_string@?1??type_case_Z@?$output_processor@_WV?$string_output_adapter@_W@__crt_stdio_output@@V?$format_validation_base@_WV?$string_output_adapter@_W@__crt_stdio_output@@@2@@__crt_stdio_output@@AEAA_NXZ@PEAU1?1??234@AEAA_NXZ@@?$standard_base@_WV?$string_output_adapter@_W@__crt_stdio_output@@@__crt_stdio_output@@IEAA_NAEAPEAUansi_string@?1??type_case_Z@?$output_processor@_WV?$string_output_adapter@_W@__crt_stdio_output@@V?$format_validation_base@_WV?$string_output_adapter@_W@__crt_stdio_output@@@2@@1@AEAA_NXZ@@Z 0000000140019cfc f i libucrt:output.obj
 0001:00018d14       ??$extract_argument_from_va_list@PEAUansi_string@?1??type_case_Z@?$output_processor@_WV?$string_output_adapter@_W@__crt_stdio_output@@V?$positional_parameter_base@_WV?$string_output_adapter@_W@__crt_stdio_output@@@2@@__crt_stdio_output@@AEAA_NXZ@PEAU1?1??234@AEAA_NXZ@@?$positional_parameter_base@_WV?$string_output_adapter@_W@__crt_stdio_output@@@__crt_stdio_output@@IEAA_NAEAPEAUansi_string@?1??type_case_Z@?$output_processor@_WV?$string_output_adapter@_W@__crt_stdio_output@@V?$positional_parameter_base@_WV?$string_output_adapter@_W@__crt_stdio_output@@@2@@1@AEAA_NXZ@@Z 0000000140019d14 f i libucrt:output.obj
 0001:00018e20       ??$extract_argument_from_va_list@PEAUansi_string@?1??type_case_Z@?$output_processor@_WV?$string_output_adapter@_W@__crt_stdio_output@@V?$positional_parameter_base@_WV?$string_output_adapter@_W@__crt_stdio_output@@@2@@__crt_stdio_output@@AEAA_NXZ@PEAU1?1??234@AEAA_NXZ@@?$standard_base@_WV?$string_output_adapter@_W@__crt_stdio_output@@@__crt_stdio_output@@IEAA_NAEAPEAUansi_string@?1??type_case_Z@?$output_processor@_WV?$string_output_adapter@_W@__crt_stdio_output@@V?$positional_parameter_base@_WV?$string_output_adapter@_W@__crt_stdio_output@@@2@@1@AEAA_NXZ@@Z 0000000140019e20 f i libucrt:output.obj
 0001:00018e38       ??$extract_argument_from_va_list@PEAUansi_string@?1??type_case_Z@?$output_processor@_WV?$string_output_adapter@_W@__crt_stdio_output@@V?$standard_base@_WV?$string_output_adapter@_W@__crt_stdio_output@@@2@@__crt_stdio_output@@AEAA_NXZ@PEAU1?1??234@AEAA_NXZ@@?$standard_base@_WV?$string_output_adapter@_W@__crt_stdio_output@@@__crt_stdio_output@@IEAA_NAEAPEAUansi_string@?1??type_case_Z@?$output_processor@_WV?$string_output_adapter@_W@__crt_stdio_output@@V?$standard_base@_WV?$string_output_adapter@_W@__crt_stdio_output@@@2@@1@AEAA_NXZ@@Z 0000000140019e38 f i libucrt:output.obj
 0001:00018e50       ??$extract_argument_from_va_list@PEAXPEAX@?$positional_parameter_base@DV?$stream_output_adapter@D@__crt_stdio_output@@@__crt_stdio_output@@IEAA_NAEAPEAX@Z 0000000140019e50 f i libucrt:output.obj
 0001:00018f58       ??$extract_argument_from_va_list@PEAXPEAX@?$positional_parameter_base@DV?$string_output_adapter@D@__crt_stdio_output@@@__crt_stdio_output@@IEAA_NAEAPEAX@Z 0000000140019f58 f i libucrt:output.obj
 0001:00019060       ??$extract_argument_from_va_list@PEAXPEAX@?$positional_parameter_base@_WV?$stream_output_adapter@_W@__crt_stdio_output@@@__crt_stdio_output@@IEAA_NAEAPEAX@Z 000000014001a060 f i libucrt:output.obj
 0001:0001916c       ??$extract_argument_from_va_list@PEAXPEAX@?$positional_parameter_base@_WV?$string_output_adapter@_W@__crt_stdio_output@@@__crt_stdio_output@@IEAA_NAEAPEAX@Z 000000014001a16c f i libucrt:output.obj
 0001:00019278       ??$extract_argument_from_va_list@PEAXPEAX@?$standard_base@DV?$stream_output_adapter@D@__crt_stdio_output@@@__crt_stdio_output@@IEAA_NAEAPEAX@Z 000000014001a278 f i libucrt:output.obj
 0001:00019290       ??$extract_argument_from_va_list@PEAXPEAX@?$standard_base@DV?$string_output_adapter@D@__crt_stdio_output@@@__crt_stdio_output@@IEAA_NAEAPEAX@Z 000000014001a290 f i libucrt:output.obj
 0001:000192a8       ??$extract_argument_from_va_list@PEAXPEAX@?$standard_base@_WV?$stream_output_adapter@_W@__crt_stdio_output@@@__crt_stdio_output@@IEAA_NAEAPEAX@Z 000000014001a2a8 f i libucrt:output.obj
 0001:000192c0       ??$extract_argument_from_va_list@PEAXPEAX@?$standard_base@_WV?$string_output_adapter@_W@__crt_stdio_output@@@__crt_stdio_output@@IEAA_NAEAPEAX@Z 000000014001a2c0 f i libucrt:output.obj
 0001:000192d8       ??$extract_argument_from_va_list@U_CRT_DOUBLE@@U1@@?$positional_parameter_base@DV?$stream_output_adapter@D@__crt_stdio_output@@@__crt_stdio_output@@IEAA_NAEAU_CRT_DOUBLE@@@Z 000000014001a2d8 f i libucrt:output.obj
 0001:000193e0       ??$extract_argument_from_va_list@U_CRT_DOUBLE@@U1@@?$positional_parameter_base@DV?$string_output_adapter@D@__crt_stdio_output@@@__crt_stdio_output@@IEAA_NAEAU_CRT_DOUBLE@@@Z 000000014001a3e0 f i libucrt:output.obj
 0001:000194e8       ??$extract_argument_from_va_list@U_CRT_DOUBLE@@U1@@?$positional_parameter_base@_WV?$stream_output_adapter@_W@__crt_stdio_output@@@__crt_stdio_output@@IEAA_NAEAU_CRT_DOUBLE@@@Z 000000014001a4e8 f i libucrt:output.obj
 0001:000195f4       ??$extract_argument_from_va_list@U_CRT_DOUBLE@@U1@@?$positional_parameter_base@_WV?$string_output_adapter@_W@__crt_stdio_output@@@__crt_stdio_output@@IEAA_NAEAU_CRT_DOUBLE@@@Z 000000014001a5f4 f i libucrt:output.obj
 0001:00019700       ??$extract_argument_from_va_list@U_CRT_DOUBLE@@U1@@?$standard_base@DV?$stream_output_adapter@D@__crt_stdio_output@@@__crt_stdio_output@@IEAA_NAEAU_CRT_DOUBLE@@@Z 000000014001a700 f i libucrt:output.obj
 0001:00019718       ??$extract_argument_from_va_list@U_CRT_DOUBLE@@U1@@?$standard_base@DV?$string_output_adapter@D@__crt_stdio_output@@@__crt_stdio_output@@IEAA_NAEAU_CRT_DOUBLE@@@Z 000000014001a718 f i libucrt:output.obj
 0001:00019730       ??$extract_argument_from_va_list@U_CRT_DOUBLE@@U1@@?$standard_base@_WV?$stream_output_adapter@_W@__crt_stdio_output@@@__crt_stdio_output@@IEAA_NAEAU_CRT_DOUBLE@@@Z 000000014001a730 f i libucrt:output.obj
 0001:00019748       ??$extract_argument_from_va_list@U_CRT_DOUBLE@@U1@@?$standard_base@_WV?$string_output_adapter@_W@__crt_stdio_output@@@__crt_stdio_output@@IEAA_NAEAU_CRT_DOUBLE@@@Z 000000014001a748 f i libucrt:output.obj
 0001:00019760       ??$extract_argument_from_va_list@_J_J@?$positional_parameter_base@DV?$stream_output_adapter@D@__crt_stdio_output@@@__crt_stdio_output@@IEAA_NAEA_J@Z 000000014001a760 f i libucrt:output.obj
 0001:00019868       ??$extract_argument_from_va_list@_J_J@?$positional_parameter_base@DV?$string_output_adapter@D@__crt_stdio_output@@@__crt_stdio_output@@IEAA_NAEA_J@Z 000000014001a868 f i libucrt:output.obj
 0001:00019970       ??$extract_argument_from_va_list@_J_J@?$positional_parameter_base@_WV?$stream_output_adapter@_W@__crt_stdio_output@@@__crt_stdio_output@@IEAA_NAEA_J@Z 000000014001a970 f i libucrt:output.obj
 0001:00019a7c       ??$extract_argument_from_va_list@_J_J@?$positional_parameter_base@_WV?$string_output_adapter@_W@__crt_stdio_output@@@__crt_stdio_output@@IEAA_NAEA_J@Z 000000014001aa7c f i libucrt:output.obj
 0001:00019b88       ??$extract_argument_from_va_list@_J_J@?$standard_base@DV?$stream_output_adapter@D@__crt_stdio_output@@@__crt_stdio_output@@IEAA_NAEA_J@Z 000000014001ab88 f i libucrt:output.obj
 0001:00019ba0       ??$extract_argument_from_va_list@_J_J@?$standard_base@DV?$string_output_adapter@D@__crt_stdio_output@@@__crt_stdio_output@@IEAA_NAEA_J@Z 000000014001aba0 f i libucrt:output.obj
 0001:00019bb8       ??$extract_argument_from_va_list@_J_J@?$standard_base@_WV?$stream_output_adapter@_W@__crt_stdio_output@@@__crt_stdio_output@@IEAA_NAEA_J@Z 000000014001abb8 f i libucrt:output.obj
 0001:00019bd0       ??$extract_argument_from_va_list@_J_J@?$standard_base@_WV?$string_output_adapter@_W@__crt_stdio_output@@@__crt_stdio_output@@IEAA_NAEA_J@Z 000000014001abd0 f i libucrt:output.obj
 0001:00019be8       ??$extract_argument_from_va_list@_K_J@?$positional_parameter_base@DV?$stream_output_adapter@D@__crt_stdio_output@@@__crt_stdio_output@@IEAA_NAEA_J@Z 000000014001abe8 f i libucrt:output.obj
 0001:00019cf0       ??$extract_argument_from_va_list@_K_J@?$positional_parameter_base@DV?$string_output_adapter@D@__crt_stdio_output@@@__crt_stdio_output@@IEAA_NAEA_J@Z 000000014001acf0 f i libucrt:output.obj
 0001:00019df8       ??$extract_argument_from_va_list@_K_J@?$positional_parameter_base@_WV?$stream_output_adapter@_W@__crt_stdio_output@@@__crt_stdio_output@@IEAA_NAEA_J@Z 000000014001adf8 f i libucrt:output.obj
 0001:00019f04       ??$extract_argument_from_va_list@_K_J@?$positional_parameter_base@_WV?$string_output_adapter@_W@__crt_stdio_output@@@__crt_stdio_output@@IEAA_NAEA_J@Z 000000014001af04 f i libucrt:output.obj
 0001:0001a010       ??$extract_argument_from_va_list@_K_J@?$standard_base@DV?$stream_output_adapter@D@__crt_stdio_output@@@__crt_stdio_output@@IEAA_NAEA_J@Z 000000014001b010 f i libucrt:output.obj
 0001:0001a028       ??$extract_argument_from_va_list@_K_J@?$standard_base@DV?$string_output_adapter@D@__crt_stdio_output@@@__crt_stdio_output@@IEAA_NAEA_J@Z 000000014001b028 f i libucrt:output.obj
 0001:0001a040       ??$extract_argument_from_va_list@_K_J@?$standard_base@_WV?$stream_output_adapter@_W@__crt_stdio_output@@@__crt_stdio_output@@IEAA_NAEA_J@Z 000000014001b040 f i libucrt:output.obj
 0001:0001a058       ??$extract_argument_from_va_list@_K_J@?$standard_base@_WV?$string_output_adapter@_W@__crt_stdio_output@@@__crt_stdio_output@@IEAA_NAEA_J@Z 000000014001b058 f i libucrt:output.obj
 0001:0001a070       ??$extract_argument_from_va_list@_W_W@?$positional_parameter_base@DV?$stream_output_adapter@D@__crt_stdio_output@@@__crt_stdio_output@@IEAA_NAEA_W@Z 000000014001b070 f i libucrt:output.obj
 0001:0001a178       ??$extract_argument_from_va_list@_W_W@?$positional_parameter_base@DV?$string_output_adapter@D@__crt_stdio_output@@@__crt_stdio_output@@IEAA_NAEA_W@Z 000000014001b178 f i libucrt:output.obj
 0001:0001a280       ??$extract_argument_from_va_list@_W_W@?$positional_parameter_base@_WV?$stream_output_adapter@_W@__crt_stdio_output@@@__crt_stdio_output@@IEAA_NAEA_W@Z 000000014001b280 f i libucrt:output.obj
 0001:0001a38c       ??$extract_argument_from_va_list@_W_W@?$positional_parameter_base@_WV?$string_output_adapter@_W@__crt_stdio_output@@@__crt_stdio_output@@IEAA_NAEA_W@Z 000000014001b38c f i libucrt:output.obj
 0001:0001a498       ??$extract_argument_from_va_list@_W_W@?$standard_base@DV?$stream_output_adapter@D@__crt_stdio_output@@@__crt_stdio_output@@IEAA_NAEA_W@Z 000000014001b498 f i libucrt:output.obj
 0001:0001a4b0       ??$extract_argument_from_va_list@_W_W@?$standard_base@DV?$string_output_adapter@D@__crt_stdio_output@@@__crt_stdio_output@@IEAA_NAEA_W@Z 000000014001b4b0 f i libucrt:output.obj
 0001:0001a4c8       ??$extract_argument_from_va_list@_W_W@?$standard_base@_WV?$stream_output_adapter@_W@__crt_stdio_output@@@__crt_stdio_output@@IEAA_NAEA_W@Z 000000014001b4c8 f i libucrt:output.obj
 0001:0001a4e0       ??$extract_argument_from_va_list@_W_W@?$standard_base@_WV?$string_output_adapter@_W@__crt_stdio_output@@@__crt_stdio_output@@IEAA_NAEA_W@Z 000000014001b4e0 f i libucrt:output.obj
 0001:0001a4f8       ??$get_parameter_type@D@?$positional_parameter_base@DV?$stream_output_adapter@D@__crt_stdio_output@@@__crt_stdio_output@@CA?AW4parameter_type@01@PEAD@Z 000000014001b4f8 f i libucrt:output.obj
 0001:0001a500       ??$get_parameter_type@D@?$positional_parameter_base@DV?$string_output_adapter@D@__crt_stdio_output@@@__crt_stdio_output@@CA?AW4parameter_type@01@PEAD@Z 000000014001b500 f i libucrt:output.obj
 0001:0001a508       ??$get_parameter_type@D@?$positional_parameter_base@_WV?$stream_output_adapter@_W@__crt_stdio_output@@@__crt_stdio_output@@CA?AW4parameter_type@01@PEAD@Z 000000014001b508 f i libucrt:output.obj
 0001:0001a510       ??$get_parameter_type@D@?$positional_parameter_base@_WV?$string_output_adapter@_W@__crt_stdio_output@@@__crt_stdio_output@@CA?AW4parameter_type@01@PEAD@Z 000000014001b510 f i libucrt:output.obj
 0001:0001a518       ??$get_parameter_type@Uansi_string@?1??type_case_Z@?$output_processor@DV?$stream_output_adapter@D@__crt_stdio_output@@V?$positional_parameter_base@DV?$stream_output_adapter@D@__crt_stdio_output@@@2@@__crt_stdio_output@@AEAA_NXZ@@?$positional_parameter_base@DV?$stream_output_adapter@D@__crt_stdio_output@@@__crt_stdio_output@@CA?AW4parameter_type@01@PEAUansi_string@?1??type_case_Z@?$output_processor@DV?$stream_output_adapter@D@__crt_stdio_output@@V?$positional_parameter_base@DV?$stream_output_adapter@D@__crt_stdio_output@@@2@@1@AEAA_NXZ@@Z 000000014001b518 f i libucrt:output.obj
 0001:0001a520       ??$get_parameter_type@Uansi_string@?1??type_case_Z@?$output_processor@DV?$string_output_adapter@D@__crt_stdio_output@@V?$positional_parameter_base@DV?$string_output_adapter@D@__crt_stdio_output@@@2@@__crt_stdio_output@@AEAA_NXZ@@?$positional_parameter_base@DV?$string_output_adapter@D@__crt_stdio_output@@@__crt_stdio_output@@CA?AW4parameter_type@01@PEAUansi_string@?1??type_case_Z@?$output_processor@DV?$string_output_adapter@D@__crt_stdio_output@@V?$positional_parameter_base@DV?$string_output_adapter@D@__crt_stdio_output@@@2@@1@AEAA_NXZ@@Z 000000014001b520 f i libucrt:output.obj
 0001:0001a528       ??$get_parameter_type@Uansi_string@?1??type_case_Z@?$output_processor@_WV?$stream_output_adapter@_W@__crt_stdio_output@@V?$positional_parameter_base@_WV?$stream_output_adapter@_W@__crt_stdio_output@@@2@@__crt_stdio_output@@AEAA_NXZ@@?$positional_parameter_base@_WV?$stream_output_adapter@_W@__crt_stdio_output@@@__crt_stdio_output@@CA?AW4parameter_type@01@PEAUansi_string@?1??type_case_Z@?$output_processor@_WV?$stream_output_adapter@_W@__crt_stdio_output@@V?$positional_parameter_base@_WV?$stream_output_adapter@_W@__crt_stdio_output@@@2@@1@AEAA_NXZ@@Z 000000014001b528 f i libucrt:output.obj
 0001:0001a530       ??$get_parameter_type@Uansi_string@?1??type_case_Z@?$output_processor@_WV?$string_output_adapter@_W@__crt_stdio_output@@V?$positional_parameter_base@_WV?$string_output_adapter@_W@__crt_stdio_output@@@2@@__crt_stdio_output@@AEAA_NXZ@@?$positional_parameter_base@_WV?$string_output_adapter@_W@__crt_stdio_output@@@__crt_stdio_output@@CA?AW4parameter_type@01@PEAUansi_string@?1??type_case_Z@?$output_processor@_WV?$string_output_adapter@_W@__crt_stdio_output@@V?$positional_parameter_base@_WV?$string_output_adapter@_W@__crt_stdio_output@@@2@@1@AEAA_NXZ@@Z 000000014001b530 f i libucrt:output.obj
 0001:0001a538       ??$get_parameter_type@X@?$positional_parameter_base@DV?$stream_output_adapter@D@__crt_stdio_output@@@__crt_stdio_output@@CA?AW4parameter_type@01@PEAX@Z 000000014001b538 f i libucrt:output.obj
 0001:0001a540       ??$get_parameter_type@X@?$positional_parameter_base@DV?$string_output_adapter@D@__crt_stdio_output@@@__crt_stdio_output@@CA?AW4parameter_type@01@PEAX@Z 000000014001b540 f i libucrt:output.obj
 0001:0001a548       ??$get_parameter_type@X@?$positional_parameter_base@_WV?$stream_output_adapter@_W@__crt_stdio_output@@@__crt_stdio_output@@CA?AW4parameter_type@01@PEAX@Z 000000014001b548 f i libucrt:output.obj
 0001:0001a550       ??$get_parameter_type@X@?$positional_parameter_base@_WV?$string_output_adapter@_W@__crt_stdio_output@@@__crt_stdio_output@@CA?AW4parameter_type@01@PEAX@Z 000000014001b550 f i libucrt:output.obj
 0001:0001a558       ??$is_character_specifier@D@?$positional_parameter_base@DV?$stream_output_adapter@D@__crt_stdio_output@@@__crt_stdio_output@@CA_ND@Z 000000014001b558 f i libucrt:output.obj
 0001:0001a564       ??$is_character_specifier@D@?$positional_parameter_base@DV?$string_output_adapter@D@__crt_stdio_output@@@__crt_stdio_output@@CA_ND@Z 000000014001b564 f i libucrt:output.obj
 0001:0001a570       ??$is_character_specifier@_W@?$positional_parameter_base@_WV?$stream_output_adapter@_W@__crt_stdio_output@@@__crt_stdio_output@@CA_N_W@Z 000000014001b570 f i libucrt:output.obj
 0001:0001a580       ??$is_character_specifier@_W@?$positional_parameter_base@_WV?$string_output_adapter@_W@__crt_stdio_output@@@__crt_stdio_output@@CA_N_W@Z 000000014001b580 f i libucrt:output.obj
 0001:0001a590       ??$is_integral_specifier@D@?$positional_parameter_base@DV?$stream_output_adapter@D@__crt_stdio_output@@@__crt_stdio_output@@CA_ND@Z 000000014001b590 f i libucrt:output.obj
 0001:0001a5b4       ??$is_integral_specifier@D@?$positional_parameter_base@DV?$string_output_adapter@D@__crt_stdio_output@@@__crt_stdio_output@@CA_ND@Z 000000014001b5b4 f i libucrt:output.obj
 0001:0001a5d8       ??$is_integral_specifier@_W@?$positional_parameter_base@_WV?$stream_output_adapter@_W@__crt_stdio_output@@@__crt_stdio_output@@CA_N_W@Z 000000014001b5d8 f i libucrt:output.obj
 0001:0001a600       ??$is_integral_specifier@_W@?$positional_parameter_base@_WV?$string_output_adapter@_W@__crt_stdio_output@@@__crt_stdio_output@@CA_N_W@Z 000000014001b600 f i libucrt:output.obj
 0001:0001a628       ??$is_overflow_condition@K@__crt_strtox@@YA_NIK@Z 000000014001b628 f i libucrt:output.obj
 0001:0001a650       ??$is_pointer_specifier@D@?$positional_parameter_base@DV?$stream_output_adapter@D@__crt_stdio_output@@@__crt_stdio_output@@CA_ND@Z 000000014001b650 f i libucrt:output.obj
 0001:0001a658       ??$is_pointer_specifier@D@?$positional_parameter_base@DV?$string_output_adapter@D@__crt_stdio_output@@@__crt_stdio_output@@CA_ND@Z 000000014001b658 f i libucrt:output.obj
 0001:0001a660       ??$is_pointer_specifier@_W@?$positional_parameter_base@_WV?$stream_output_adapter@_W@__crt_stdio_output@@@__crt_stdio_output@@CA_N_W@Z 000000014001b660 f i libucrt:output.obj
 0001:0001a668       ??$is_pointer_specifier@_W@?$positional_parameter_base@_WV?$string_output_adapter@_W@__crt_stdio_output@@@__crt_stdio_output@@CA_N_W@Z 000000014001b668 f i libucrt:output.obj
 0001:0001a670       ??$is_string_specifier@D@?$positional_parameter_base@DV?$stream_output_adapter@D@__crt_stdio_output@@@__crt_stdio_output@@CA_ND@Z 000000014001b670 f i libucrt:output.obj
 0001:0001a67c       ??$is_string_specifier@D@?$positional_parameter_base@DV?$string_output_adapter@D@__crt_stdio_output@@@__crt_stdio_output@@CA_ND@Z 000000014001b67c f i libucrt:output.obj
 0001:0001a688       ??$is_string_specifier@_W@?$positional_parameter_base@_WV?$stream_output_adapter@_W@__crt_stdio_output@@@__crt_stdio_output@@CA_N_W@Z 000000014001b688 f i libucrt:output.obj
 0001:0001a698       ??$is_string_specifier@_W@?$positional_parameter_base@_WV?$string_output_adapter@_W@__crt_stdio_output@@@__crt_stdio_output@@CA_N_W@Z 000000014001b698 f i libucrt:output.obj
 0001:0001a6a8       ??$is_wide_character_specifier@D@__crt_stdio_output@@YA_N_KDW4length_modifier@0@@Z 000000014001b6a8 f i libucrt:output.obj
 0001:0001a6d0       ??$is_wide_character_specifier@_W@__crt_stdio_output@@YA_N_K_WW4length_modifier@0@@Z 000000014001b6d0 f i libucrt:output.obj
 0001:0001a710       ??$make_c_string_character_source@DPEAPEAD@__crt_strtox@@YA?AV?$c_string_character_source@D@0@QEBDQEAPEAD@Z 000000014001b710 f i libucrt:output.obj
 0001:0001a724       ??$make_c_string_character_source@_WPEAPEA_W@__crt_strtox@@YA?AV?$c_string_character_source@_W@0@QEB_WQEAPEA_W@Z 000000014001b724 f i libucrt:output.obj
 0001:0001a738       ??$parse_integer@KV?$c_string_character_source@D@__crt_strtox@@$0A@@__crt_strtox@@YAKAEAV__crt_cached_ptd_host@@V?$c_string_character_source@D@0@H_N@Z 000000014001b738 f i libucrt:output.obj
 0001:0001a9ec       ??$parse_integer@KV?$c_string_character_source@_W@__crt_strtox@@$0A@@__crt_strtox@@YAKAEAV__crt_cached_ptd_host@@V?$c_string_character_source@_W@0@H_N@Z 000000014001b9ec f i libucrt:output.obj
 0001:0001b158       ??$peek_va_arg@C@__crt_stdio_output@@YACPEAD@Z 000000014001c158 f i libucrt:output.obj
 0001:0001b15c       ??$peek_va_arg@E@__crt_stdio_output@@YAEPEAD@Z 000000014001c15c f i libucrt:output.obj
 0001:0001b160       ??$peek_va_arg@F@__crt_stdio_output@@YAFPEAD@Z 000000014001c160 f i libucrt:output.obj
 0001:0001b164       ??$peek_va_arg@G@__crt_stdio_output@@YAGPEAD@Z 000000014001c164 f i libucrt:output.obj
 0001:0001b168       ??$peek_va_arg@H@__crt_stdio_output@@YAHPEAD@Z 000000014001c168 f i libucrt:output.obj
 0001:0001b16c       ??$peek_va_arg@I@__crt_stdio_output@@YAIPEAD@Z 000000014001c16c f i libucrt:output.obj
 0001:0001b170       ??$peek_va_arg@PEAD@__crt_stdio_output@@YAPEADPEAD@Z 000000014001c170 f i libucrt:output.obj
 0001:0001b174       ??$peek_va_arg@PEAUansi_string@?1??type_case_Z@?$output_processor@DV?$stream_output_adapter@D@__crt_stdio_output@@V?$positional_parameter_base@DV?$stream_output_adapter@D@__crt_stdio_output@@@2@@__crt_stdio_output@@AEAA_NXZ@@__crt_stdio_output@@YAPEAUansi_string@?1??type_case_Z@?$output_processor@DV?$stream_output_adapter@D@__crt_stdio_output@@V?$positional_parameter_base@DV?$stream_output_adapter@D@__crt_stdio_output@@@2@@0@AEAA_NXZ@PEAD@Z 000000014001c174 f i libucrt:output.obj
 0001:0001b178       ??$peek_va_arg@PEAUansi_string@?1??type_case_Z@?$output_processor@DV?$string_output_adapter@D@__crt_stdio_output@@V?$positional_parameter_base@DV?$string_output_adapter@D@__crt_stdio_output@@@2@@__crt_stdio_output@@AEAA_NXZ@@__crt_stdio_output@@YAPEAUansi_string@?1??type_case_Z@?$output_processor@DV?$string_output_adapter@D@__crt_stdio_output@@V?$positional_parameter_base@DV?$string_output_adapter@D@__crt_stdio_output@@@2@@0@AEAA_NXZ@PEAD@Z 000000014001c178 f i libucrt:output.obj
 0001:0001b17c       ??$peek_va_arg@PEAUansi_string@?1??type_case_Z@?$output_processor@_WV?$stream_output_adapter@_W@__crt_stdio_output@@V?$positional_parameter_base@_WV?$stream_output_adapter@_W@__crt_stdio_output@@@2@@__crt_stdio_output@@AEAA_NXZ@@__crt_stdio_output@@YAPEAUansi_string@?1??type_case_Z@?$output_processor@_WV?$stream_output_adapter@_W@__crt_stdio_output@@V?$positional_parameter_base@_WV?$stream_output_adapter@_W@__crt_stdio_output@@@2@@0@AEAA_NXZ@PEAD@Z 000000014001c17c f i libucrt:output.obj
 0001:0001b180       ??$peek_va_arg@PEAUansi_string@?1??type_case_Z@?$output_processor@_WV?$string_output_adapter@_W@__crt_stdio_output@@V?$positional_parameter_base@_WV?$string_output_adapter@_W@__crt_stdio_output@@@2@@__crt_stdio_output@@AEAA_NXZ@@__crt_stdio_output@@YAPEAUansi_string@?1??type_case_Z@?$output_processor@_WV?$string_output_adapter@_W@__crt_stdio_output@@V?$positional_parameter_base@_WV?$string_output_adapter@_W@__crt_stdio_output@@@2@@0@AEAA_NXZ@PEAD@Z 000000014001c180 f i libucrt:output.obj
 0001:0001b184       ??$peek_va_arg@PEAX@__crt_stdio_output@@YAPEAXPEAD@Z 000000014001c184 f i libucrt:output.obj
 0001:0001b188       ??$peek_va_arg@U_CRT_DOUBLE@@@__crt_stdio_output@@YA?AU_CRT_DOUBLE@@PEAD@Z 000000014001c188 f i libucrt:output.obj
 0001:0001b18c       ??$peek_va_arg@_J@__crt_stdio_output@@YA_JPEAD@Z 000000014001c18c f i libucrt:output.obj
 0001:0001b190       ??$peek_va_arg@_K@__crt_stdio_output@@YA_KPEAD@Z 000000014001c190 f i libucrt:output.obj
 0001:0001b194       ??$peek_va_arg@_W@__crt_stdio_output@@YA_WPEAD@Z 000000014001c194 f i libucrt:output.obj
 0001:0001b198       ??$puttc_nolock_internal@AEBDPEAU_iobuf@@AEAV__crt_cached_ptd_host@@@?$__crt_char_traits@D@@SAHAEBD$$QEAPEAU_iobuf@@AEAV__crt_cached_ptd_host@@@Z 000000014001c198 f i libucrt:output.obj
 0001:0001b1a4       ??$puttc_nolock_internal@AEB_WPEAU_iobuf@@AEAV__crt_cached_ptd_host@@@?$__crt_char_traits@_W@@SAGAEB_W$$QEAPEAU_iobuf@@AEAV__crt_cached_ptd_host@@@Z 000000014001c1a4 f i libucrt:output.obj
 0001:0001b1b0       ??$read_va_arg@C@__crt_stdio_output@@YACAEAPEAD@Z 000000014001c1b0 f i libucrt:output.obj
 0001:0001b1c0       ??$read_va_arg@E@__crt_stdio_output@@YAEAEAPEAD@Z 000000014001c1c0 f i libucrt:output.obj
 0001:0001b1d0       ??$read_va_arg@F@__crt_stdio_output@@YAFAEAPEAD@Z 000000014001c1d0 f i libucrt:output.obj
 0001:0001b1e0       ??$read_va_arg@G@__crt_stdio_output@@YAGAEAPEAD@Z 000000014001c1e0 f i libucrt:output.obj
 0001:0001b1f0       ??$read_va_arg@H@__crt_stdio_output@@YAHAEAPEAD@Z 000000014001c1f0 f i libucrt:output.obj
 0001:0001b200       ??$read_va_arg@I@__crt_stdio_output@@YAIAEAPEAD@Z 000000014001c200 f i libucrt:output.obj
 0001:0001b210       ??$read_va_arg@PEAD@__crt_stdio_output@@YAPEADAEAPEAD@Z 000000014001c210 f i libucrt:output.obj
 0001:0001b220       ??$read_va_arg@PEAUansi_string@?1??type_case_Z@?$output_processor@DV?$stream_output_adapter@D@__crt_stdio_output@@V?$format_validation_base@DV?$stream_output_adapter@D@__crt_stdio_output@@@2@@__crt_stdio_output@@AEAA_NXZ@@__crt_stdio_output@@YAPEAUansi_string@?1??type_case_Z@?$output_processor@DV?$stream_output_adapter@D@__crt_stdio_output@@V?$format_validation_base@DV?$stream_output_adapter@D@__crt_stdio_output@@@2@@0@AEAA_NXZ@AEAPEAD@Z 000000014001c220 f i libucrt:output.obj
 0001:0001b230       ??$read_va_arg@PEAUansi_string@?1??type_case_Z@?$output_processor@DV?$stream_output_adapter@D@__crt_stdio_output@@V?$positional_parameter_base@DV?$stream_output_adapter@D@__crt_stdio_output@@@2@@__crt_stdio_output@@AEAA_NXZ@@__crt_stdio_output@@YAPEAUansi_string@?1??type_case_Z@?$output_processor@DV?$stream_output_adapter@D@__crt_stdio_output@@V?$positional_parameter_base@DV?$stream_output_adapter@D@__crt_stdio_output@@@2@@0@AEAA_NXZ@AEAPEAD@Z 000000014001c230 f i libucrt:output.obj
 0001:0001b240       ??$read_va_arg@PEAUansi_string@?1??type_case_Z@?$output_processor@DV?$stream_output_adapter@D@__crt_stdio_output@@V?$standard_base@DV?$stream_output_adapter@D@__crt_stdio_output@@@2@@__crt_stdio_output@@AEAA_NXZ@@__crt_stdio_output@@YAPEAUansi_string@?1??type_case_Z@?$output_processor@DV?$stream_output_adapter@D@__crt_stdio_output@@V?$standard_base@DV?$stream_output_adapter@D@__crt_stdio_output@@@2@@0@AEAA_NXZ@AEAPEAD@Z 000000014001c240 f i libucrt:output.obj
 0001:0001b250       ??$read_va_arg@PEAUansi_string@?1??type_case_Z@?$output_processor@DV?$string_output_adapter@D@__crt_stdio_output@@V?$format_validation_base@DV?$string_output_adapter@D@__crt_stdio_output@@@2@@__crt_stdio_output@@AEAA_NXZ@@__crt_stdio_output@@YAPEAUansi_string@?1??type_case_Z@?$output_processor@DV?$string_output_adapter@D@__crt_stdio_output@@V?$format_validation_base@DV?$string_output_adapter@D@__crt_stdio_output@@@2@@0@AEAA_NXZ@AEAPEAD@Z 000000014001c250 f i libucrt:output.obj
 0001:0001b260       ??$read_va_arg@PEAUansi_string@?1??type_case_Z@?$output_processor@DV?$string_output_adapter@D@__crt_stdio_output@@V?$positional_parameter_base@DV?$string_output_adapter@D@__crt_stdio_output@@@2@@__crt_stdio_output@@AEAA_NXZ@@__crt_stdio_output@@YAPEAUansi_string@?1??type_case_Z@?$output_processor@DV?$string_output_adapter@D@__crt_stdio_output@@V?$positional_parameter_base@DV?$string_output_adapter@D@__crt_stdio_output@@@2@@0@AEAA_NXZ@AEAPEAD@Z 000000014001c260 f i libucrt:output.obj
 0001:0001b270       ??$read_va_arg@PEAUansi_string@?1??type_case_Z@?$output_processor@DV?$string_output_adapter@D@__crt_stdio_output@@V?$standard_base@DV?$string_output_adapter@D@__crt_stdio_output@@@2@@__crt_stdio_output@@AEAA_NXZ@@__crt_stdio_output@@YAPEAUansi_string@?1??type_case_Z@?$output_processor@DV?$string_output_adapter@D@__crt_stdio_output@@V?$standard_base@DV?$string_output_adapter@D@__crt_stdio_output@@@2@@0@AEAA_NXZ@AEAPEAD@Z 000000014001c270 f i libucrt:output.obj
 0001:0001b280       ??$read_va_arg@PEAUansi_string@?1??type_case_Z@?$output_processor@_WV?$stream_output_adapter@_W@__crt_stdio_output@@V?$format_validation_base@_WV?$stream_output_adapter@_W@__crt_stdio_output@@@2@@__crt_stdio_output@@AEAA_NXZ@@__crt_stdio_output@@YAPEAUansi_string@?1??type_case_Z@?$output_processor@_WV?$stream_output_adapter@_W@__crt_stdio_output@@V?$format_validation_base@_WV?$stream_output_adapter@_W@__crt_stdio_output@@@2@@0@AEAA_NXZ@AEAPEAD@Z 000000014001c280 f i libucrt:output.obj
 0001:0001b290       ??$read_va_arg@PEAUansi_string@?1??type_case_Z@?$output_processor@_WV?$stream_output_adapter@_W@__crt_stdio_output@@V?$positional_parameter_base@_WV?$stream_output_adapter@_W@__crt_stdio_output@@@2@@__crt_stdio_output@@AEAA_NXZ@@__crt_stdio_output@@YAPEAUansi_string@?1??type_case_Z@?$output_processor@_WV?$stream_output_adapter@_W@__crt_stdio_output@@V?$positional_parameter_base@_WV?$stream_output_adapter@_W@__crt_stdio_output@@@2@@0@AEAA_NXZ@AEAPEAD@Z 000000014001c290 f i libucrt:output.obj
 0001:0001b2a0       ??$read_va_arg@PEAUansi_string@?1??type_case_Z@?$output_processor@_WV?$stream_output_adapter@_W@__crt_stdio_output@@V?$standard_base@_WV?$stream_output_adapter@_W@__crt_stdio_output@@@2@@__crt_stdio_output@@AEAA_NXZ@@__crt_stdio_output@@YAPEAUansi_string@?1??type_case_Z@?$output_processor@_WV?$stream_output_adapter@_W@__crt_stdio_output@@V?$standard_base@_WV?$stream_output_adapter@_W@__crt_stdio_output@@@2@@0@AEAA_NXZ@AEAPEAD@Z 000000014001c2a0 f i libucrt:output.obj
 0001:0001b2b0       ??$read_va_arg@PEAUansi_string@?1??type_case_Z@?$output_processor@_WV?$string_output_adapter@_W@__crt_stdio_output@@V?$format_validation_base@_WV?$string_output_adapter@_W@__crt_stdio_output@@@2@@__crt_stdio_output@@AEAA_NXZ@@__crt_stdio_output@@YAPEAUansi_string@?1??type_case_Z@?$output_processor@_WV?$string_output_adapter@_W@__crt_stdio_output@@V?$format_validation_base@_WV?$string_output_adapter@_W@__crt_stdio_output@@@2@@0@AEAA_NXZ@AEAPEAD@Z 000000014001c2b0 f i libucrt:output.obj
 0001:0001b2c0       ??$read_va_arg@PEAUansi_string@?1??type_case_Z@?$output_processor@_WV?$string_output_adapter@_W@__crt_stdio_output@@V?$positional_parameter_base@_WV?$string_output_adapter@_W@__crt_stdio_output@@@2@@__crt_stdio_output@@AEAA_NXZ@@__crt_stdio_output@@YAPEAUansi_string@?1??type_case_Z@?$output_processor@_WV?$string_output_adapter@_W@__crt_stdio_output@@V?$positional_parameter_base@_WV?$string_output_adapter@_W@__crt_stdio_output@@@2@@0@AEAA_NXZ@AEAPEAD@Z 000000014001c2c0 f i libucrt:output.obj
 0001:0001b2d0       ??$read_va_arg@PEAUansi_string@?1??type_case_Z@?$output_processor@_WV?$string_output_adapter@_W@__crt_stdio_output@@V?$standard_base@_WV?$string_output_adapter@_W@__crt_stdio_output@@@2@@__crt_stdio_output@@AEAA_NXZ@@__crt_stdio_output@@YAPEAUansi_string@?1??type_case_Z@?$output_processor@_WV?$string_output_adapter@_W@__crt_stdio_output@@V?$standard_base@_WV?$string_output_adapter@_W@__crt_stdio_output@@@2@@0@AEAA_NXZ@AEAPEAD@Z 000000014001c2d0 f i libucrt:output.obj
 0001:0001b2e0       ??$read_va_arg@PEAX@__crt_stdio_output@@YAPEAXAEAPEAD@Z 000000014001c2e0 f i libucrt:output.obj
 0001:0001b2f0       ??$read_va_arg@U_CRT_DOUBLE@@@__crt_stdio_output@@YA?AU_CRT_DOUBLE@@AEAPEAD@Z 000000014001c2f0 f i libucrt:output.obj
 0001:0001b300       ??$read_va_arg@_J@__crt_stdio_output@@YA_JAEAPEAD@Z 000000014001c300 f i libucrt:output.obj
 0001:0001b310       ??$read_va_arg@_K@__crt_stdio_output@@YA_KAEAPEAD@Z 000000014001c310 f i libucrt:output.obj
 0001:0001b320       ??$read_va_arg@_W@__crt_stdio_output@@YA_WAEAPEAD@Z 000000014001c320 f i libucrt:output.obj
 0001:0001b330       ??$scratch_count@D@formatting_buffer@__crt_stdio_output@@QEBA_KXZ 000000014001c330 f i libucrt:output.obj
 0001:0001b34c       ??$scratch_data@D@formatting_buffer@__crt_stdio_output@@QEAAPEADXZ 000000014001c34c f i libucrt:output.obj
 0001:0001b370       ??$type_case_integer@$07@?$output_processor@DV?$stream_output_adapter@D@__crt_stdio_output@@V?$format_validation_base@DV?$stream_output_adapter@D@__crt_stdio_output@@@2@@__crt_stdio_output@@AEAA_N_N@Z 000000014001c370 f i libucrt:output.obj
 0001:0001b574       ??$type_case_integer@$07@?$output_processor@DV?$stream_output_adapter@D@__crt_stdio_output@@V?$positional_parameter_base@DV?$stream_output_adapter@D@__crt_stdio_output@@@2@@__crt_stdio_output@@AEAA_N_N@Z 000000014001c574 f i libucrt:output.obj
 0001:0001b7ac       ??$type_case_integer@$07@?$output_processor@DV?$stream_output_adapter@D@__crt_stdio_output@@V?$standard_base@DV?$stream_output_adapter@D@__crt_stdio_output@@@2@@__crt_stdio_output@@AEAA_N_N@Z 000000014001c7ac f i libucrt:output.obj
 0001:0001b9b0       ??$type_case_integer@$07@?$output_processor@DV?$string_output_adapter@D@__crt_stdio_output@@V?$format_validation_base@DV?$string_output_adapter@D@__crt_stdio_output@@@2@@__crt_stdio_output@@AEAA_N_N@Z 000000014001c9b0 f i libucrt:output.obj
 0001:0001bbb4       ??$type_case_integer@$07@?$output_processor@DV?$string_output_adapter@D@__crt_stdio_output@@V?$positional_parameter_base@DV?$string_output_adapter@D@__crt_stdio_output@@@2@@__crt_stdio_output@@AEAA_N_N@Z 000000014001cbb4 f i libucrt:output.obj
 0001:0001bdec       ??$type_case_integer@$07@?$output_processor@DV?$string_output_adapter@D@__crt_stdio_output@@V?$standard_base@DV?$string_output_adapter@D@__crt_stdio_output@@@2@@__crt_stdio_output@@AEAA_N_N@Z 000000014001cdec f i libucrt:output.obj
 0001:0001bff0       ??$type_case_integer@$07@?$output_processor@_WV?$stream_output_adapter@_W@__crt_stdio_output@@V?$format_validation_base@_WV?$stream_output_adapter@_W@__crt_stdio_output@@@2@@__crt_stdio_output@@AEAA_N_N@Z 000000014001cff0 f i libucrt:output.obj
 0001:0001c1fc       ??$type_case_integer@$07@?$output_processor@_WV?$stream_output_adapter@_W@__crt_stdio_output@@V?$positional_parameter_base@_WV?$stream_output_adapter@_W@__crt_stdio_output@@@2@@__crt_stdio_output@@AEAA_N_N@Z 000000014001d1fc f i libucrt:output.obj
 0001:0001c438       ??$type_case_integer@$07@?$output_processor@_WV?$stream_output_adapter@_W@__crt_stdio_output@@V?$standard_base@_WV?$stream_output_adapter@_W@__crt_stdio_output@@@2@@__crt_stdio_output@@AEAA_N_N@Z 000000014001d438 f i libucrt:output.obj
 0001:0001c644       ??$type_case_integer@$07@?$output_processor@_WV?$string_output_adapter@_W@__crt_stdio_output@@V?$format_validation_base@_WV?$string_output_adapter@_W@__crt_stdio_output@@@2@@__crt_stdio_output@@AEAA_N_N@Z 000000014001d644 f i libucrt:output.obj
 0001:0001c850       ??$type_case_integer@$07@?$output_processor@_WV?$string_output_adapter@_W@__crt_stdio_output@@V?$positional_parameter_base@_WV?$string_output_adapter@_W@__crt_stdio_output@@@2@@__crt_stdio_output@@AEAA_N_N@Z 000000014001d850 f i libucrt:output.obj
 0001:0001ca8c       ??$type_case_integer@$07@?$output_processor@_WV?$string_output_adapter@_W@__crt_stdio_output@@V?$standard_base@_WV?$string_output_adapter@_W@__crt_stdio_output@@@2@@__crt_stdio_output@@AEAA_N_N@Z 000000014001da8c f i libucrt:output.obj
 0001:0001cc98       ??$type_case_integer@$09@?$output_processor@DV?$stream_output_adapter@D@__crt_stdio_output@@V?$format_validation_base@DV?$stream_output_adapter@D@__crt_stdio_output@@@2@@__crt_stdio_output@@AEAA_N_N@Z 000000014001dc98 f i libucrt:output.obj
 0001:0001ce9c       ??$type_case_integer@$09@?$output_processor@DV?$stream_output_adapter@D@__crt_stdio_output@@V?$positional_parameter_base@DV?$stream_output_adapter@D@__crt_stdio_output@@@2@@__crt_stdio_output@@AEAA_N_N@Z 000000014001de9c f i libucrt:output.obj
 0001:0001d0d4       ??$type_case_integer@$09@?$output_processor@DV?$stream_output_adapter@D@__crt_stdio_output@@V?$standard_base@DV?$stream_output_adapter@D@__crt_stdio_output@@@2@@__crt_stdio_output@@AEAA_N_N@Z 000000014001e0d4 f i libucrt:output.obj
 0001:0001d2d8       ??$type_case_integer@$09@?$output_processor@DV?$string_output_adapter@D@__crt_stdio_output@@V?$format_validation_base@DV?$string_output_adapter@D@__crt_stdio_output@@@2@@__crt_stdio_output@@AEAA_N_N@Z 000000014001e2d8 f i libucrt:output.obj
 0001:0001d4dc       ??$type_case_integer@$09@?$output_processor@DV?$string_output_adapter@D@__crt_stdio_output@@V?$positional_parameter_base@DV?$string_output_adapter@D@__crt_stdio_output@@@2@@__crt_stdio_output@@AEAA_N_N@Z 000000014001e4dc f i libucrt:output.obj
 0001:0001d714       ??$type_case_integer@$09@?$output_processor@DV?$string_output_adapter@D@__crt_stdio_output@@V?$standard_base@DV?$string_output_adapter@D@__crt_stdio_output@@@2@@__crt_stdio_output@@AEAA_N_N@Z 000000014001e714 f i libucrt:output.obj
 0001:0001d918       ??$type_case_integer@$09@?$output_processor@_WV?$stream_output_adapter@_W@__crt_stdio_output@@V?$format_validation_base@_WV?$stream_output_adapter@_W@__crt_stdio_output@@@2@@__crt_stdio_output@@AEAA_N_N@Z 000000014001e918 f i libucrt:output.obj
 0001:0001db24       ??$type_case_integer@$09@?$output_processor@_WV?$stream_output_adapter@_W@__crt_stdio_output@@V?$positional_parameter_base@_WV?$stream_output_adapter@_W@__crt_stdio_output@@@2@@__crt_stdio_output@@AEAA_N_N@Z 000000014001eb24 f i libucrt:output.obj
 0001:0001dd60       ??$type_case_integer@$09@?$output_processor@_WV?$stream_output_adapter@_W@__crt_stdio_output@@V?$standard_base@_WV?$stream_output_adapter@_W@__crt_stdio_output@@@2@@__crt_stdio_output@@AEAA_N_N@Z 000000014001ed60 f i libucrt:output.obj
 0001:0001df6c       ??$type_case_integer@$09@?$output_processor@_WV?$string_output_adapter@_W@__crt_stdio_output@@V?$format_validation_base@_WV?$string_output_adapter@_W@__crt_stdio_output@@@2@@__crt_stdio_output@@AEAA_N_N@Z 000000014001ef6c f i libucrt:output.obj
 0001:0001e178       ??$type_case_integer@$09@?$output_processor@_WV?$string_output_adapter@_W@__crt_stdio_output@@V?$positional_parameter_base@_WV?$string_output_adapter@_W@__crt_stdio_output@@@2@@__crt_stdio_output@@AEAA_N_N@Z 000000014001f178 f i libucrt:output.obj
 0001:0001e3b4       ??$type_case_integer@$09@?$output_processor@_WV?$string_output_adapter@_W@__crt_stdio_output@@V?$standard_base@_WV?$string_output_adapter@_W@__crt_stdio_output@@@2@@__crt_stdio_output@@AEAA_N_N@Z 000000014001f3b4 f i libucrt:output.obj
 0001:0001e5c0       ??$type_case_integer@$0BA@@?$output_processor@DV?$stream_output_adapter@D@__crt_stdio_output@@V?$format_validation_base@DV?$stream_output_adapter@D@__crt_stdio_output@@@2@@__crt_stdio_output@@AEAA_N_N@Z 000000014001f5c0 f i libucrt:output.obj
 0001:0001e7c4       ??$type_case_integer@$0BA@@?$output_processor@DV?$stream_output_adapter@D@__crt_stdio_output@@V?$positional_parameter_base@DV?$stream_output_adapter@D@__crt_stdio_output@@@2@@__crt_stdio_output@@AEAA_N_N@Z 000000014001f7c4 f i libucrt:output.obj
 0001:0001e9fc       ??$type_case_integer@$0BA@@?$output_processor@DV?$stream_output_adapter@D@__crt_stdio_output@@V?$standard_base@DV?$stream_output_adapter@D@__crt_stdio_output@@@2@@__crt_stdio_output@@AEAA_N_N@Z 000000014001f9fc f i libucrt:output.obj
 0001:0001ec00       ??$type_case_integer@$0BA@@?$output_processor@DV?$string_output_adapter@D@__crt_stdio_output@@V?$format_validation_base@DV?$string_output_adapter@D@__crt_stdio_output@@@2@@__crt_stdio_output@@AEAA_N_N@Z 000000014001fc00 f i libucrt:output.obj
 0001:0001ee04       ??$type_case_integer@$0BA@@?$output_processor@DV?$string_output_adapter@D@__crt_stdio_output@@V?$positional_parameter_base@DV?$string_output_adapter@D@__crt_stdio_output@@@2@@__crt_stdio_output@@AEAA_N_N@Z 000000014001fe04 f i libucrt:output.obj
 0001:0001f03c       ??$type_case_integer@$0BA@@?$output_processor@DV?$string_output_adapter@D@__crt_stdio_output@@V?$standard_base@DV?$string_output_adapter@D@__crt_stdio_output@@@2@@__crt_stdio_output@@AEAA_N_N@Z 000000014002003c f i libucrt:output.obj
 0001:0001f240       ??$type_case_integer@$0BA@@?$output_processor@_WV?$stream_output_adapter@_W@__crt_stdio_output@@V?$format_validation_base@_WV?$stream_output_adapter@_W@__crt_stdio_output@@@2@@__crt_stdio_output@@AEAA_N_N@Z 0000000140020240 f i libucrt:output.obj
 0001:0001f44c       ??$type_case_integer@$0BA@@?$output_processor@_WV?$stream_output_adapter@_W@__crt_stdio_output@@V?$positional_parameter_base@_WV?$stream_output_adapter@_W@__crt_stdio_output@@@2@@__crt_stdio_output@@AEAA_N_N@Z 000000014002044c f i libucrt:output.obj
 0001:0001f688       ??$type_case_integer@$0BA@@?$output_processor@_WV?$stream_output_adapter@_W@__crt_stdio_output@@V?$standard_base@_WV?$stream_output_adapter@_W@__crt_stdio_output@@@2@@__crt_stdio_output@@AEAA_N_N@Z 0000000140020688 f i libucrt:output.obj
 0001:0001f894       ??$type_case_integer@$0BA@@?$output_processor@_WV?$string_output_adapter@_W@__crt_stdio_output@@V?$format_validation_base@_WV?$string_output_adapter@_W@__crt_stdio_output@@@2@@__crt_stdio_output@@AEAA_N_N@Z 0000000140020894 f i libucrt:output.obj
 0001:0001faa0       ??$type_case_integer@$0BA@@?$output_processor@_WV?$string_output_adapter@_W@__crt_stdio_output@@V?$positional_parameter_base@_WV?$string_output_adapter@_W@__crt_stdio_output@@@2@@__crt_stdio_output@@AEAA_N_N@Z 0000000140020aa0 f i libucrt:output.obj
 0001:0001fcdc       ??$type_case_integer@$0BA@@?$output_processor@_WV?$string_output_adapter@_W@__crt_stdio_output@@V?$standard_base@_WV?$string_output_adapter@_W@__crt_stdio_output@@@2@@__crt_stdio_output@@AEAA_N_N@Z 0000000140020cdc f i libucrt:output.obj
 0001:0001fee8       ??$type_case_integer_parse_into_buffer@I$07@?$output_processor@DV?$stream_output_adapter@D@__crt_stdio_output@@V?$format_validation_base@DV?$stream_output_adapter@D@__crt_stdio_output@@@2@@__crt_stdio_output@@AEAAXI_N@Z 0000000140020ee8 f i libucrt:output.obj
 0001:0001ff58       ??$type_case_integer_parse_into_buffer@I$07@?$output_processor@DV?$stream_output_adapter@D@__crt_stdio_output@@V?$positional_parameter_base@DV?$stream_output_adapter@D@__crt_stdio_output@@@2@@__crt_stdio_output@@AEAAXI_N@Z 0000000140020f58 f i libucrt:output.obj
 0001:0001ffc8       ??$type_case_integer_parse_into_buffer@I$07@?$output_processor@DV?$stream_output_adapter@D@__crt_stdio_output@@V?$standard_base@DV?$stream_output_adapter@D@__crt_stdio_output@@@2@@__crt_stdio_output@@AEAAXI_N@Z 0000000140020fc8 f i libucrt:output.obj
 0001:00020038       ??$type_case_integer_parse_into_buffer@I$07@?$output_processor@DV?$string_output_adapter@D@__crt_stdio_output@@V?$format_validation_base@DV?$string_output_adapter@D@__crt_stdio_output@@@2@@__crt_stdio_output@@AEAAXI_N@Z 0000000140021038 f i libucrt:output.obj
 0001:000200a8       ??$type_case_integer_parse_into_buffer@I$07@?$output_processor@DV?$string_output_adapter@D@__crt_stdio_output@@V?$positional_parameter_base@DV?$string_output_adapter@D@__crt_stdio_output@@@2@@__crt_stdio_output@@AEAAXI_N@Z 00000001400210a8 f i libucrt:output.obj
 0001:00020118       ??$type_case_integer_parse_into_buffer@I$07@?$output_processor@DV?$string_output_adapter@D@__crt_stdio_output@@V?$standard_base@DV?$string_output_adapter@D@__crt_stdio_output@@@2@@__crt_stdio_output@@AEAAXI_N@Z 0000000140021118 f i libucrt:output.obj
 0001:00020188       ??$type_case_integer_parse_into_buffer@I$07@?$output_processor@_WV?$stream_output_adapter@_W@__crt_stdio_output@@V?$format_validation_base@_WV?$stream_output_adapter@_W@__crt_stdio_output@@@2@@__crt_stdio_output@@AEAAXI_N@Z 0000000140021188 f i libucrt:output.obj
 0001:0002020c       ??$type_case_integer_parse_into_buffer@I$07@?$output_processor@_WV?$stream_output_adapter@_W@__crt_stdio_output@@V?$positional_parameter_base@_WV?$stream_output_adapter@_W@__crt_stdio_output@@@2@@__crt_stdio_output@@AEAAXI_N@Z 000000014002120c f i libucrt:output.obj
 0001:00020290       ??$type_case_integer_parse_into_buffer@I$07@?$output_processor@_WV?$stream_output_adapter@_W@__crt_stdio_output@@V?$standard_base@_WV?$stream_output_adapter@_W@__crt_stdio_output@@@2@@__crt_stdio_output@@AEAAXI_N@Z 0000000140021290 f i libucrt:output.obj
 0001:00020314       ??$type_case_integer_parse_into_buffer@I$07@?$output_processor@_WV?$string_output_adapter@_W@__crt_stdio_output@@V?$format_validation_base@_WV?$string_output_adapter@_W@__crt_stdio_output@@@2@@__crt_stdio_output@@AEAAXI_N@Z 0000000140021314 f i libucrt:output.obj
 0001:00020398       ??$type_case_integer_parse_into_buffer@I$07@?$output_processor@_WV?$string_output_adapter@_W@__crt_stdio_output@@V?$positional_parameter_base@_WV?$string_output_adapter@_W@__crt_stdio_output@@@2@@__crt_stdio_output@@AEAAXI_N@Z 0000000140021398 f i libucrt:output.obj
 0001:0002041c       ??$type_case_integer_parse_into_buffer@I$07@?$output_processor@_WV?$string_output_adapter@_W@__crt_stdio_output@@V?$standard_base@_WV?$string_output_adapter@_W@__crt_stdio_output@@@2@@__crt_stdio_output@@AEAAXI_N@Z 000000014002141c f i libucrt:output.obj
 0001:000204a0       ??$type_case_integer_parse_into_buffer@I$09@?$output_processor@DV?$stream_output_adapter@D@__crt_stdio_output@@V?$format_validation_base@DV?$stream_output_adapter@D@__crt_stdio_output@@@2@@__crt_stdio_output@@AEAAXI_N@Z 00000001400214a0 f i libucrt:output.obj
 0001:0002054c       ??$type_case_integer_parse_into_buffer@I$09@?$output_processor@DV?$stream_output_adapter@D@__crt_stdio_output@@V?$positional_parameter_base@DV?$stream_output_adapter@D@__crt_stdio_output@@@2@@__crt_stdio_output@@AEAAXI_N@Z 000000014002154c f i libucrt:output.obj
 0001:000205f8       ??$type_case_integer_parse_into_buffer@I$09@?$output_processor@DV?$stream_output_adapter@D@__crt_stdio_output@@V?$standard_base@DV?$stream_output_adapter@D@__crt_stdio_output@@@2@@__crt_stdio_output@@AEAAXI_N@Z 00000001400215f8 f i libucrt:output.obj
 0001:000206a4       ??$type_case_integer_parse_into_buffer@I$09@?$output_processor@DV?$string_output_adapter@D@__crt_stdio_output@@V?$format_validation_base@DV?$string_output_adapter@D@__crt_stdio_output@@@2@@__crt_stdio_output@@AEAAXI_N@Z 00000001400216a4 f i libucrt:output.obj
 0001:00020750       ??$type_case_integer_parse_into_buffer@I$09@?$output_processor@DV?$string_output_adapter@D@__crt_stdio_output@@V?$positional_parameter_base@DV?$string_output_adapter@D@__crt_stdio_output@@@2@@__crt_stdio_output@@AEAAXI_N@Z 0000000140021750 f i libucrt:output.obj
 0001:000207fc       ??$type_case_integer_parse_into_buffer@I$09@?$output_processor@DV?$string_output_adapter@D@__crt_stdio_output@@V?$standard_base@DV?$string_output_adapter@D@__crt_stdio_output@@@2@@__crt_stdio_output@@AEAAXI_N@Z 00000001400217fc f i libucrt:output.obj
 0001:000208a8       ??$type_case_integer_parse_into_buffer@I$09@?$output_processor@_WV?$stream_output_adapter@_W@__crt_stdio_output@@V?$format_validation_base@_WV?$stream_output_adapter@_W@__crt_stdio_output@@@2@@__crt_stdio_output@@AEAAXI_N@Z 00000001400218a8 f i libucrt:output.obj
 0001:00020968       ??$type_case_integer_parse_into_buffer@I$09@?$output_processor@_WV?$stream_output_adapter@_W@__crt_stdio_output@@V?$positional_parameter_base@_WV?$stream_output_adapter@_W@__crt_stdio_output@@@2@@__crt_stdio_output@@AEAAXI_N@Z 0000000140021968 f i libucrt:output.obj
 0001:00020a28       ??$type_case_integer_parse_into_buffer@I$09@?$output_processor@_WV?$stream_output_adapter@_W@__crt_stdio_output@@V?$standard_base@_WV?$stream_output_adapter@_W@__crt_stdio_output@@@2@@__crt_stdio_output@@AEAAXI_N@Z 0000000140021a28 f i libucrt:output.obj
 0001:00020ae8       ??$type_case_integer_parse_into_buffer@I$09@?$output_processor@_WV?$string_output_adapter@_W@__crt_stdio_output@@V?$format_validation_base@_WV?$string_output_adapter@_W@__crt_stdio_output@@@2@@__crt_stdio_output@@AEAAXI_N@Z 0000000140021ae8 f i libucrt:output.obj
 0001:00020ba8       ??$type_case_integer_parse_into_buffer@I$09@?$output_processor@_WV?$string_output_adapter@_W@__crt_stdio_output@@V?$positional_parameter_base@_WV?$string_output_adapter@_W@__crt_stdio_output@@@2@@__crt_stdio_output@@AEAAXI_N@Z 0000000140021ba8 f i libucrt:output.obj
 0001:00020c68       ??$type_case_integer_parse_into_buffer@I$09@?$output_processor@_WV?$string_output_adapter@_W@__crt_stdio_output@@V?$standard_base@_WV?$string_output_adapter@_W@__crt_stdio_output@@@2@@__crt_stdio_output@@AEAAXI_N@Z 0000000140021c68 f i libucrt:output.obj
 0001:00020d28       ??$type_case_integer_parse_into_buffer@I$0BA@@?$output_processor@DV?$stream_output_adapter@D@__crt_stdio_output@@V?$format_validation_base@DV?$stream_output_adapter@D@__crt_stdio_output@@@2@@__crt_stdio_output@@AEAAXI_N@Z 0000000140021d28 f i libucrt:output.obj
 0001:00020dac       ??$type_case_integer_parse_into_buffer@I$0BA@@?$output_processor@DV?$stream_output_adapter@D@__crt_stdio_output@@V?$positional_parameter_base@DV?$stream_output_adapter@D@__crt_stdio_output@@@2@@__crt_stdio_output@@AEAAXI_N@Z 0000000140021dac f i libucrt:output.obj
 0001:00020e30       ??$type_case_integer_parse_into_buffer@I$0BA@@?$output_processor@DV?$stream_output_adapter@D@__crt_stdio_output@@V?$standard_base@DV?$stream_output_adapter@D@__crt_stdio_output@@@2@@__crt_stdio_output@@AEAAXI_N@Z 0000000140021e30 f i libucrt:output.obj
 0001:00020eb4       ??$type_case_integer_parse_into_buffer@I$0BA@@?$output_processor@DV?$string_output_adapter@D@__crt_stdio_output@@V?$format_validation_base@DV?$string_output_adapter@D@__crt_stdio_output@@@2@@__crt_stdio_output@@AEAAXI_N@Z 0000000140021eb4 f i libucrt:output.obj
 0001:00020f38       ??$type_case_integer_parse_into_buffer@I$0BA@@?$output_processor@DV?$string_output_adapter@D@__crt_stdio_output@@V?$positional_parameter_base@DV?$string_output_adapter@D@__crt_stdio_output@@@2@@__crt_stdio_output@@AEAAXI_N@Z 0000000140021f38 f i libucrt:output.obj
 0001:00020fbc       ??$type_case_integer_parse_into_buffer@I$0BA@@?$output_processor@DV?$string_output_adapter@D@__crt_stdio_output@@V?$standard_base@DV?$string_output_adapter@D@__crt_stdio_output@@@2@@__crt_stdio_output@@AEAAXI_N@Z 0000000140021fbc f i libucrt:output.obj
 0001:00021040       ??$type_case_integer_parse_into_buffer@I$0BA@@?$output_processor@_WV?$stream_output_adapter@_W@__crt_stdio_output@@V?$format_validation_base@_WV?$stream_output_adapter@_W@__crt_stdio_output@@@2@@__crt_stdio_output@@AEAAXI_N@Z 0000000140022040 f i libucrt:output.obj
 0001:000210e0       ??$type_case_integer_parse_into_buffer@I$0BA@@?$output_processor@_WV?$stream_output_adapter@_W@__crt_stdio_output@@V?$positional_parameter_base@_WV?$stream_output_adapter@_W@__crt_stdio_output@@@2@@__crt_stdio_output@@AEAAXI_N@Z 00000001400220e0 f i libucrt:output.obj
 0001:00021180       ??$type_case_integer_parse_into_buffer@I$0BA@@?$output_processor@_WV?$stream_output_adapter@_W@__crt_stdio_output@@V?$standard_base@_WV?$stream_output_adapter@_W@__crt_stdio_output@@@2@@__crt_stdio_output@@AEAAXI_N@Z 0000000140022180 f i libucrt:output.obj
 0001:00021220       ??$type_case_integer_parse_into_buffer@I$0BA@@?$output_processor@_WV?$string_output_adapter@_W@__crt_stdio_output@@V?$format_validation_base@_WV?$string_output_adapter@_W@__crt_stdio_output@@@2@@__crt_stdio_output@@AEAAXI_N@Z 0000000140022220 f i libucrt:output.obj
 0001:000212c0       ??$type_case_integer_parse_into_buffer@I$0BA@@?$output_processor@_WV?$string_output_adapter@_W@__crt_stdio_output@@V?$positional_parameter_base@_WV?$string_output_adapter@_W@__crt_stdio_output@@@2@@__crt_stdio_output@@AEAAXI_N@Z 00000001400222c0 f i libucrt:output.obj
 0001:00021360       ??$type_case_integer_parse_into_buffer@I$0BA@@?$output_processor@_WV?$string_output_adapter@_W@__crt_stdio_output@@V?$standard_base@_WV?$string_output_adapter@_W@__crt_stdio_output@@@2@@__crt_stdio_output@@AEAAXI_N@Z 0000000140022360 f i libucrt:output.obj
 0001:00021400       ??$type_case_integer_parse_into_buffer@_K$07@?$output_processor@DV?$stream_output_adapter@D@__crt_stdio_output@@V?$format_validation_base@DV?$stream_output_adapter@D@__crt_stdio_output@@@2@@__crt_stdio_output@@AEAAX_K_N@Z 0000000140022400 f i libucrt:output.obj
 0001:00021470       ??$type_case_integer_parse_into_buffer@_K$07@?$output_processor@DV?$stream_output_adapter@D@__crt_stdio_output@@V?$positional_parameter_base@DV?$stream_output_adapter@D@__crt_stdio_output@@@2@@__crt_stdio_output@@AEAAX_K_N@Z 0000000140022470 f i libucrt:output.obj
 0001:000214e0       ??$type_case_integer_parse_into_buffer@_K$07@?$output_processor@DV?$stream_output_adapter@D@__crt_stdio_output@@V?$standard_base@DV?$stream_output_adapter@D@__crt_stdio_output@@@2@@__crt_stdio_output@@AEAAX_K_N@Z 00000001400224e0 f i libucrt:output.obj
 0001:00021550       ??$type_case_integer_parse_into_buffer@_K$07@?$output_processor@DV?$string_output_adapter@D@__crt_stdio_output@@V?$format_validation_base@DV?$string_output_adapter@D@__crt_stdio_output@@@2@@__crt_stdio_output@@AEAAX_K_N@Z 0000000140022550 f i libucrt:output.obj
 0001:000215c0       ??$type_case_integer_parse_into_buffer@_K$07@?$output_processor@DV?$string_output_adapter@D@__crt_stdio_output@@V?$positional_parameter_base@DV?$string_output_adapter@D@__crt_stdio_output@@@2@@__crt_stdio_output@@AEAAX_K_N@Z 00000001400225c0 f i libucrt:output.obj
 0001:00021630       ??$type_case_integer_parse_into_buffer@_K$07@?$output_processor@DV?$string_output_adapter@D@__crt_stdio_output@@V?$standard_base@DV?$string_output_adapter@D@__crt_stdio_output@@@2@@__crt_stdio_output@@AEAAX_K_N@Z 0000000140022630 f i libucrt:output.obj
 0001:000216a0       ??$type_case_integer_parse_into_buffer@_K$07@?$output_processor@_WV?$stream_output_adapter@_W@__crt_stdio_output@@V?$format_validation_base@_WV?$stream_output_adapter@_W@__crt_stdio_output@@@2@@__crt_stdio_output@@AEAAX_K_N@Z 00000001400226a0 f i libucrt:output.obj
 0001:00021728       ??$type_case_integer_parse_into_buffer@_K$07@?$output_processor@_WV?$stream_output_adapter@_W@__crt_stdio_output@@V?$positional_parameter_base@_WV?$stream_output_adapter@_W@__crt_stdio_output@@@2@@__crt_stdio_output@@AEAAX_K_N@Z 0000000140022728 f i libucrt:output.obj
 0001:000217b0       ??$type_case_integer_parse_into_buffer@_K$07@?$output_processor@_WV?$stream_output_adapter@_W@__crt_stdio_output@@V?$standard_base@_WV?$stream_output_adapter@_W@__crt_stdio_output@@@2@@__crt_stdio_output@@AEAAX_K_N@Z 00000001400227b0 f i libucrt:output.obj
 0001:00021838       ??$type_case_integer_parse_into_buffer@_K$07@?$output_processor@_WV?$string_output_adapter@_W@__crt_stdio_output@@V?$format_validation_base@_WV?$string_output_adapter@_W@__crt_stdio_output@@@2@@__crt_stdio_output@@AEAAX_K_N@Z 0000000140022838 f i libucrt:output.obj
 0001:000218c0       ??$type_case_integer_parse_into_buffer@_K$07@?$output_processor@_WV?$string_output_adapter@_W@__crt_stdio_output@@V?$positional_parameter_base@_WV?$string_output_adapter@_W@__crt_stdio_output@@@2@@__crt_stdio_output@@AEAAX_K_N@Z 00000001400228c0 f i libucrt:output.obj
 0001:00021948       ??$type_case_integer_parse_into_buffer@_K$07@?$output_processor@_WV?$string_output_adapter@_W@__crt_stdio_output@@V?$standard_base@_WV?$string_output_adapter@_W@__crt_stdio_output@@@2@@__crt_stdio_output@@AEAAX_K_N@Z 0000000140022948 f i libucrt:output.obj
 0001:000219d0       ??$type_case_integer_parse_into_buffer@_K$09@?$output_processor@DV?$stream_output_adapter@D@__crt_stdio_output@@V?$format_validation_base@DV?$stream_output_adapter@D@__crt_stdio_output@@@2@@__crt_stdio_output@@AEAAX_K_N@Z 00000001400229d0 f i libucrt:output.obj
 0001:00021a80       ??$type_case_integer_parse_into_buffer@_K$09@?$output_processor@DV?$stream_output_adapter@D@__crt_stdio_output@@V?$positional_parameter_base@DV?$stream_output_adapter@D@__crt_stdio_output@@@2@@__crt_stdio_output@@AEAAX_K_N@Z 0000000140022a80 f i libucrt:output.obj
 0001:00021b30       ??$type_case_integer_parse_into_buffer@_K$09@?$output_processor@DV?$stream_output_adapter@D@__crt_stdio_output@@V?$standard_base@DV?$stream_output_adapter@D@__crt_stdio_output@@@2@@__crt_stdio_output@@AEAAX_K_N@Z 0000000140022b30 f i libucrt:output.obj
 0001:00021be0       ??$type_case_integer_parse_into_buffer@_K$09@?$output_processor@DV?$string_output_adapter@D@__crt_stdio_output@@V?$format_validation_base@DV?$string_output_adapter@D@__crt_stdio_output@@@2@@__crt_stdio_output@@AEAAX_K_N@Z 0000000140022be0 f i libucrt:output.obj
 0001:00021c90       ??$type_case_integer_parse_into_buffer@_K$09@?$output_processor@DV?$string_output_adapter@D@__crt_stdio_output@@V?$positional_parameter_base@DV?$string_output_adapter@D@__crt_stdio_output@@@2@@__crt_stdio_output@@AEAAX_K_N@Z 0000000140022c90 f i libucrt:output.obj
 0001:00021d40       ??$type_case_integer_parse_into_buffer@_K$09@?$output_processor@DV?$string_output_adapter@D@__crt_stdio_output@@V?$standard_base@DV?$string_output_adapter@D@__crt_stdio_output@@@2@@__crt_stdio_output@@AEAAX_K_N@Z 0000000140022d40 f i libucrt:output.obj
 0001:00021df0       ??$type_case_integer_parse_into_buffer@_K$09@?$output_processor@_WV?$stream_output_adapter@_W@__crt_stdio_output@@V?$format_validation_base@_WV?$stream_output_adapter@_W@__crt_stdio_output@@@2@@__crt_stdio_output@@AEAAX_K_N@Z 0000000140022df0 f i libucrt:output.obj
 0001:00021eb4       ??$type_case_integer_parse_into_buffer@_K$09@?$output_processor@_WV?$stream_output_adapter@_W@__crt_stdio_output@@V?$positional_parameter_base@_WV?$stream_output_adapter@_W@__crt_stdio_output@@@2@@__crt_stdio_output@@AEAAX_K_N@Z 0000000140022eb4 f i libucrt:output.obj
 0001:00021f78       ??$type_case_integer_parse_into_buffer@_K$09@?$output_processor@_WV?$stream_output_adapter@_W@__crt_stdio_output@@V?$standard_base@_WV?$stream_output_adapter@_W@__crt_stdio_output@@@2@@__crt_stdio_output@@AEAAX_K_N@Z 0000000140022f78 f i libucrt:output.obj
 0001:0002203c       ??$type_case_integer_parse_into_buffer@_K$09@?$output_processor@_WV?$string_output_adapter@_W@__crt_stdio_output@@V?$format_validation_base@_WV?$string_output_adapter@_W@__crt_stdio_output@@@2@@__crt_stdio_output@@AEAAX_K_N@Z 000000014002303c f i libucrt:output.obj
 0001:00022100       ??$type_case_integer_parse_into_buffer@_K$09@?$output_processor@_WV?$string_output_adapter@_W@__crt_stdio_output@@V?$positional_parameter_base@_WV?$string_output_adapter@_W@__crt_stdio_output@@@2@@__crt_stdio_output@@AEAAX_K_N@Z 0000000140023100 f i libucrt:output.obj
 0001:000221c4       ??$type_case_integer_parse_into_buffer@_K$09@?$output_processor@_WV?$string_output_adapter@_W@__crt_stdio_output@@V?$standard_base@_WV?$string_output_adapter@_W@__crt_stdio_output@@@2@@__crt_stdio_output@@AEAAX_K_N@Z 00000001400231c4 f i libucrt:output.obj
 0001:00022288       ??$type_case_integer_parse_into_buffer@_K$0BA@@?$output_processor@DV?$stream_output_adapter@D@__crt_stdio_output@@V?$format_validation_base@DV?$stream_output_adapter@D@__crt_stdio_output@@@2@@__crt_stdio_output@@AEAAX_K_N@Z 0000000140023288 f i libucrt:output.obj
 0001:0002230c       ??$type_case_integer_parse_into_buffer@_K$0BA@@?$output_processor@DV?$stream_output_adapter@D@__crt_stdio_output@@V?$positional_parameter_base@DV?$stream_output_adapter@D@__crt_stdio_output@@@2@@__crt_stdio_output@@AEAAX_K_N@Z 000000014002330c f i libucrt:output.obj
 0001:00022390       ??$type_case_integer_parse_into_buffer@_K$0BA@@?$output_processor@DV?$stream_output_adapter@D@__crt_stdio_output@@V?$standard_base@DV?$stream_output_adapter@D@__crt_stdio_output@@@2@@__crt_stdio_output@@AEAAX_K_N@Z 0000000140023390 f i libucrt:output.obj
 0001:00022414       ??$type_case_integer_parse_into_buffer@_K$0BA@@?$output_processor@DV?$string_output_adapter@D@__crt_stdio_output@@V?$format_validation_base@DV?$string_output_adapter@D@__crt_stdio_output@@@2@@__crt_stdio_output@@AEAAX_K_N@Z 0000000140023414 f i libucrt:output.obj
 0001:00022498       ??$type_case_integer_parse_into_buffer@_K$0BA@@?$output_processor@DV?$string_output_adapter@D@__crt_stdio_output@@V?$positional_parameter_base@DV?$string_output_adapter@D@__crt_stdio_output@@@2@@__crt_stdio_output@@AEAAX_K_N@Z 0000000140023498 f i libucrt:output.obj
 0001:0002251c       ??$type_case_integer_parse_into_buffer@_K$0BA@@?$output_processor@DV?$string_output_adapter@D@__crt_stdio_output@@V?$standard_base@DV?$string_output_adapter@D@__crt_stdio_output@@@2@@__crt_stdio_output@@AEAAX_K_N@Z 000000014002351c f i libucrt:output.obj
 0001:000225a0       ??$type_case_integer_parse_into_buffer@_K$0BA@@?$output_processor@_WV?$stream_output_adapter@_W@__crt_stdio_output@@V?$format_validation_base@_WV?$stream_output_adapter@_W@__crt_stdio_output@@@2@@__crt_stdio_output@@AEAAX_K_N@Z 00000001400235a0 f i libucrt:output.obj
 0001:00022640       ??$type_case_integer_parse_into_buffer@_K$0BA@@?$output_processor@_WV?$stream_output_adapter@_W@__crt_stdio_output@@V?$positional_parameter_base@_WV?$stream_output_adapter@_W@__crt_stdio_output@@@2@@__crt_stdio_output@@AEAAX_K_N@Z 0000000140023640 f i libucrt:output.obj
 0001:000226e0       ??$type_case_integer_parse_into_buffer@_K$0BA@@?$output_processor@_WV?$stream_output_adapter@_W@__crt_stdio_output@@V?$standard_base@_WV?$stream_output_adapter@_W@__crt_stdio_output@@@2@@__crt_stdio_output@@AEAAX_K_N@Z 00000001400236e0 f i libucrt:output.obj
 0001:00022780       ??$type_case_integer_parse_into_buffer@_K$0BA@@?$output_processor@_WV?$string_output_adapter@_W@__crt_stdio_output@@V?$format_validation_base@_WV?$string_output_adapter@_W@__crt_stdio_output@@@2@@__crt_stdio_output@@AEAAX_K_N@Z 0000000140023780 f i libucrt:output.obj
 0001:00022820       ??$type_case_integer_parse_into_buffer@_K$0BA@@?$output_processor@_WV?$string_output_adapter@_W@__crt_stdio_output@@V?$positional_parameter_base@_WV?$string_output_adapter@_W@__crt_stdio_output@@@2@@__crt_stdio_output@@AEAAX_K_N@Z 0000000140023820 f i libucrt:output.obj
 0001:000228c0       ??$type_case_integer_parse_into_buffer@_K$0BA@@?$output_processor@_WV?$string_output_adapter@_W@__crt_stdio_output@@V?$standard_base@_WV?$string_output_adapter@_W@__crt_stdio_output@@@2@@__crt_stdio_output@@AEAAX_K_N@Z 00000001400238c0 f i libucrt:output.obj
 0001:00022960       ??$write_multiple_characters@V?$stream_output_adapter@D@__crt_stdio_output@@D@__crt_stdio_output@@YAXAEBV?$stream_output_adapter@D@0@DHQEAHAEAV__crt_cached_ptd_host@@@Z 0000000140023960 f i libucrt:output.obj
 0001:000229f4       ??$write_multiple_characters@V?$stream_output_adapter@_W@__crt_stdio_output@@D@__crt_stdio_output@@YAXAEBV?$stream_output_adapter@_W@0@DHQEAHAEAV__crt_cached_ptd_host@@@Z 00000001400239f4 f i libucrt:output.obj
 0001:00022a8c       ??$write_multiple_characters@V?$string_output_adapter@D@__crt_stdio_output@@D@__crt_stdio_output@@YAXAEBV?$string_output_adapter@D@0@DHQEAHAEAV__crt_cached_ptd_host@@@Z 0000000140023a8c f i libucrt:output.obj
 0001:00022b04       ??$write_multiple_characters@V?$string_output_adapter@_W@__crt_stdio_output@@D@__crt_stdio_output@@YAXAEBV?$string_output_adapter@_W@0@DHQEAHAEAV__crt_cached_ptd_host@@@Z 0000000140023b04 f i libucrt:output.obj
 0001:00022ce4       ??0?$c_string_character_source@D@__crt_strtox@@QEAA@QEBDQEAPEBD@Z 0000000140023ce4 f i libucrt:output.obj
 0001:00022cf8       ??0?$c_string_character_source@_W@__crt_strtox@@QEAA@QEB_WQEAPEB_W@Z 0000000140023cf8 f i libucrt:output.obj
 0001:00022d0c       ??0?$cached@H@__crt_cached_ptd_host@@QEAA@XZ 0000000140023d0c f i libucrt:output.obj
 0001:00022d14       ??0?$cached@K@__crt_cached_ptd_host@@QEAA@XZ 0000000140023d14 f i libucrt:output.obj
 0001:00022d1c       ??0?$common_data@D@__crt_stdio_output@@IEAA@AEAV__crt_cached_ptd_host@@@Z 0000000140023d1c f i libucrt:output.obj
 0001:00022d58       ??0?$common_data@_W@__crt_stdio_output@@IEAA@AEAV__crt_cached_ptd_host@@@Z 0000000140023d58 f i libucrt:output.obj
 0001:00022d98       ??0?$output_adapter_data@DV?$stream_output_adapter@D@__crt_stdio_output@@@__crt_stdio_output@@IEAA@AEBV?$stream_output_adapter@D@1@_KQEBDAEAV__crt_cached_ptd_host@@QEAD@Z 0000000140023d98 f i libucrt:output.obj
 0001:00022df8       ??0?$output_adapter_data@DV?$string_output_adapter@D@__crt_stdio_output@@@__crt_stdio_output@@IEAA@AEBV?$string_output_adapter@D@1@_KQEBDAEAV__crt_cached_ptd_host@@QEAD@Z 0000000140023df8 f i libucrt:output.obj
 0001:00022e58       ??0?$output_adapter_data@_WV?$stream_output_adapter@_W@__crt_stdio_output@@@__crt_stdio_output@@IEAA@AEBV?$stream_output_adapter@_W@1@_KQEB_WAEAV__crt_cached_ptd_host@@QEAD@Z 0000000140023e58 f i libucrt:output.obj
 0001:00022ebc       ??0?$output_adapter_data@_WV?$string_output_adapter@_W@__crt_stdio_output@@@__crt_stdio_output@@IEAA@AEBV?$string_output_adapter@_W@1@_KQEB_WAEAV__crt_cached_ptd_host@@QEAD@Z 0000000140023ebc f i libucrt:output.obj
 0001:00022f20       ??0?$output_processor@DV?$stream_output_adapter@D@__crt_stdio_output@@V?$format_validation_base@DV?$stream_output_adapter@D@__crt_stdio_output@@@2@@__crt_stdio_output@@QEAA@AEBV?$stream_output_adapter@D@1@_KQEBDAEAV__crt_cached_ptd_host@@QEAD@Z 0000000140023f20 f i libucrt:output.obj
 0001:00022f88       ??0?$output_processor@DV?$stream_output_adapter@D@__crt_stdio_output@@V?$positional_parameter_base@DV?$stream_output_adapter@D@__crt_stdio_output@@@2@@__crt_stdio_output@@QEAA@AEBV?$stream_output_adapter@D@1@_KQEBDAEAV__crt_cached_ptd_host@@QEAD@Z 0000000140023f88 f i libucrt:output.obj
 0001:0002300c       ??0?$output_processor@DV?$stream_output_adapter@D@__crt_stdio_output@@V?$standard_base@DV?$stream_output_adapter@D@__crt_stdio_output@@@2@@__crt_stdio_output@@QEAA@AEBV?$stream_output_adapter@D@1@_KQEBDAEAV__crt_cached_ptd_host@@QEAD@Z 000000014002400c f i libucrt:output.obj
 0001:00023074       ??0?$output_processor@DV?$string_output_adapter@D@__crt_stdio_output@@V?$format_validation_base@DV?$string_output_adapter@D@__crt_stdio_output@@@2@@__crt_stdio_output@@QEAA@AEBV?$string_output_adapter@D@1@_KQEBDAEAV__crt_cached_ptd_host@@QEAD@Z 0000000140024074 f i libucrt:output.obj
 0001:000230dc       ??0?$output_processor@DV?$string_output_adapter@D@__crt_stdio_output@@V?$positional_parameter_base@DV?$string_output_adapter@D@__crt_stdio_output@@@2@@__crt_stdio_output@@QEAA@AEBV?$string_output_adapter@D@1@_KQEBDAEAV__crt_cached_ptd_host@@QEAD@Z 00000001400240dc f i libucrt:output.obj
 0001:00023160       ??0?$output_processor@DV?$string_output_adapter@D@__crt_stdio_output@@V?$standard_base@DV?$string_output_adapter@D@__crt_stdio_output@@@2@@__crt_stdio_output@@QEAA@AEBV?$string_output_adapter@D@1@_KQEBDAEAV__crt_cached_ptd_host@@QEAD@Z 0000000140024160 f i libucrt:output.obj
 0001:000231c8       ??0?$output_processor@_WV?$stream_output_adapter@_W@__crt_stdio_output@@V?$format_validation_base@_WV?$stream_output_adapter@_W@__crt_stdio_output@@@2@@__crt_stdio_output@@QEAA@AEBV?$stream_output_adapter@_W@1@_KQEB_WAEAV__crt_cached_ptd_host@@QEAD@Z 00000001400241c8 f i libucrt:output.obj
 0001:00023234       ??0?$output_processor@_WV?$stream_output_adapter@_W@__crt_stdio_output@@V?$positional_parameter_base@_WV?$stream_output_adapter@_W@__crt_stdio_output@@@2@@__crt_stdio_output@@QEAA@AEBV?$stream_output_adapter@_W@1@_KQEB_WAEAV__crt_cached_ptd_host@@QEAD@Z 0000000140024234 f i libucrt:output.obj
 0001:000232bc       ??0?$output_processor@_WV?$stream_output_adapter@_W@__crt_stdio_output@@V?$standard_base@_WV?$stream_output_adapter@_W@__crt_stdio_output@@@2@@__crt_stdio_output@@QEAA@AEBV?$stream_output_adapter@_W@1@_KQEB_WAEAV__crt_cached_ptd_host@@QEAD@Z 00000001400242bc f i libucrt:output.obj
 0001:00023328       ??0?$output_processor@_WV?$string_output_adapter@_W@__crt_stdio_output@@V?$format_validation_base@_WV?$string_output_adapter@_W@__crt_stdio_output@@@2@@__crt_stdio_output@@QEAA@AEBV?$string_output_adapter@_W@1@_KQEB_WAEAV__crt_cached_ptd_host@@QEAD@Z 0000000140024328 f i libucrt:output.obj
 0001:00023394       ??0?$output_processor@_WV?$string_output_adapter@_W@__crt_stdio_output@@V?$positional_parameter_base@_WV?$string_output_adapter@_W@__crt_stdio_output@@@2@@__crt_stdio_output@@QEAA@AEBV?$string_output_adapter@_W@1@_KQEB_WAEAV__crt_cached_ptd_host@@QEAD@Z 0000000140024394 f i libucrt:output.obj
 0001:0002341c       ??0?$output_processor@_WV?$string_output_adapter@_W@__crt_stdio_output@@V?$standard_base@_WV?$string_output_adapter@_W@__crt_stdio_output@@@2@@__crt_stdio_output@@QEAA@AEBV?$string_output_adapter@_W@1@_KQEB_WAEAV__crt_cached_ptd_host@@QEAD@Z 000000014002441c f i libucrt:output.obj
 0001:00023488       ??0?$stream_output_adapter@D@__crt_stdio_output@@QEAA@QEAU_iobuf@@@Z 0000000140024488 f i libucrt:output.obj
 0001:00023490       ??0?$stream_output_adapter@_W@__crt_stdio_output@@QEAA@QEAU_iobuf@@@Z 0000000140024490 f i libucrt:output.obj
 0001:00023498       ??0?$string_output_adapter@D@__crt_stdio_output@@QEAA@QEAU?$string_output_adapter_context@D@1@@Z 0000000140024498 f i libucrt:output.obj
 0001:000234a0       ??0?$string_output_adapter@_W@__crt_stdio_output@@QEAA@QEAU?$string_output_adapter_context@_W@1@@Z 00000001400244a0 f i libucrt:output.obj
 0001:000234a8       ??0__acrt_stdio_temporary_buffering_guard@@QEAA@QEAU_iobuf@@AEAV__crt_cached_ptd_host@@@Z 00000001400244a8 f i libucrt:output.obj
 0001:000234d0       ??0__crt_cached_ptd_host@@QEAA@QEAU__crt_locale_pointers@@@Z 00000001400244d0 f i libucrt:output.obj
 0001:00023518       ??0__crt_scoped_get_last_error_reset@@QEAA@XZ 0000000140024518 f i libucrt:output.obj
 0001:00023534       ??0__crt_stdio_stream@@QEAA@QEAU_iobuf@@@Z 0000000140024534 f i libucrt:output.obj
 0001:0002353c       ??0formatting_buffer@__crt_stdio_output@@QEAA@XZ 000000014002453c f i libucrt:output.obj
 0001:00023550       ??0guard@?$cached@H@__crt_cached_ptd_host@@QEAA@AEAU12@@Z 0000000140024550 f i libucrt:output.obj
 0001:00023564       ??1?$c_string_character_source@D@__crt_strtox@@QEAA@XZ 0000000140024564 f i libucrt:output.obj
 0001:00023574       ??1?$c_string_character_source@_W@__crt_strtox@@QEAA@XZ 0000000140024574 f i libucrt:output.obj
 0001:00023584       ??1?$common_data@D@__crt_stdio_output@@QEAA@XZ 0000000140024584 f i libucrt:output.obj
 0001:000235a8       ??1?$common_data@_W@__crt_stdio_output@@QEAA@XZ 00000001400245a8 f i libucrt:output.obj
 0001:000235cc       ??1?$format_validation_base@DV?$stream_output_adapter@D@__crt_stdio_output@@@__crt_stdio_output@@QEAA@XZ 00000001400245cc f i libucrt:output.obj
 0001:000235f0       ??1?$format_validation_base@DV?$string_output_adapter@D@__crt_stdio_output@@@__crt_stdio_output@@QEAA@XZ 00000001400245f0 f i libucrt:output.obj
 0001:00023614       ??1?$format_validation_base@_WV?$stream_output_adapter@_W@__crt_stdio_output@@@__crt_stdio_output@@QEAA@XZ 0000000140024614 f i libucrt:output.obj
 0001:00023638       ??1?$format_validation_base@_WV?$string_output_adapter@_W@__crt_stdio_output@@@__crt_stdio_output@@QEAA@XZ 0000000140024638 f i libucrt:output.obj
 0001:0002365c       ??1?$output_adapter_data@DV?$stream_output_adapter@D@__crt_stdio_output@@@__crt_stdio_output@@QEAA@XZ 000000014002465c f i libucrt:output.obj
 0001:00023680       ??1?$output_adapter_data@DV?$string_output_adapter@D@__crt_stdio_output@@@__crt_stdio_output@@QEAA@XZ 0000000140024680 f i libucrt:output.obj
 0001:000236a4       ??1?$output_adapter_data@_WV?$stream_output_adapter@_W@__crt_stdio_output@@@__crt_stdio_output@@QEAA@XZ 00000001400246a4 f i libucrt:output.obj
 0001:000236c8       ??1?$output_adapter_data@_WV?$string_output_adapter@_W@__crt_stdio_output@@@__crt_stdio_output@@QEAA@XZ 00000001400246c8 f i libucrt:output.obj
 0001:000236ec       ??1?$output_processor@DV?$stream_output_adapter@D@__crt_stdio_output@@V?$format_validation_base@DV?$stream_output_adapter@D@__crt_stdio_output@@@2@@__crt_stdio_output@@QEAA@XZ 00000001400246ec f i libucrt:output.obj
 0001:00023710       ??1?$output_processor@DV?$stream_output_adapter@D@__crt_stdio_output@@V?$positional_parameter_base@DV?$stream_output_adapter@D@__crt_stdio_output@@@2@@__crt_stdio_output@@QEAA@XZ 0000000140024710 f i libucrt:output.obj
 0001:00023734       ??1?$output_processor@DV?$stream_output_adapter@D@__crt_stdio_output@@V?$standard_base@DV?$stream_output_adapter@D@__crt_stdio_output@@@2@@__crt_stdio_output@@QEAA@XZ 0000000140024734 f i libucrt:output.obj
 0001:00023758       ??1?$output_processor@DV?$string_output_adapter@D@__crt_stdio_output@@V?$format_validation_base@DV?$string_output_adapter@D@__crt_stdio_output@@@2@@__crt_stdio_output@@QEAA@XZ 0000000140024758 f i libucrt:output.obj
 0001:0002377c       ??1?$output_processor@DV?$string_output_adapter@D@__crt_stdio_output@@V?$positional_parameter_base@DV?$string_output_adapter@D@__crt_stdio_output@@@2@@__crt_stdio_output@@QEAA@XZ 000000014002477c f i libucrt:output.obj
 0001:000237a0       ??1?$output_processor@DV?$string_output_adapter@D@__crt_stdio_output@@V?$standard_base@DV?$string_output_adapter@D@__crt_stdio_output@@@2@@__crt_stdio_output@@QEAA@XZ 00000001400247a0 f i libucrt:output.obj
 0001:000237c4       ??1?$output_processor@_WV?$stream_output_adapter@_W@__crt_stdio_output@@V?$format_validation_base@_WV?$stream_output_adapter@_W@__crt_stdio_output@@@2@@__crt_stdio_output@@QEAA@XZ 00000001400247c4 f i libucrt:output.obj
 0001:000237e8       ??1?$output_processor@_WV?$stream_output_adapter@_W@__crt_stdio_output@@V?$positional_parameter_base@_WV?$stream_output_adapter@_W@__crt_stdio_output@@@2@@__crt_stdio_output@@QEAA@XZ 00000001400247e8 f i libucrt:output.obj
 0001:0002380c       ??1?$output_processor@_WV?$stream_output_adapter@_W@__crt_stdio_output@@V?$standard_base@_WV?$stream_output_adapter@_W@__crt_stdio_output@@@2@@__crt_stdio_output@@QEAA@XZ 000000014002480c f i libucrt:output.obj
 0001:00023830       ??1?$output_processor@_WV?$string_output_adapter@_W@__crt_stdio_output@@V?$format_validation_base@_WV?$string_output_adapter@_W@__crt_stdio_output@@@2@@__crt_stdio_output@@QEAA@XZ 0000000140024830 f i libucrt:output.obj
 0001:00023854       ??1?$output_processor@_WV?$string_output_adapter@_W@__crt_stdio_output@@V?$positional_parameter_base@_WV?$string_output_adapter@_W@__crt_stdio_output@@@2@@__crt_stdio_output@@QEAA@XZ 0000000140024854 f i libucrt:output.obj
 0001:00023878       ??1?$output_processor@_WV?$string_output_adapter@_W@__crt_stdio_output@@V?$standard_base@_WV?$string_output_adapter@_W@__crt_stdio_output@@@2@@__crt_stdio_output@@QEAA@XZ 0000000140024878 f i libucrt:output.obj
 0001:0002389c       ??1?$positional_parameter_base@DV?$stream_output_adapter@D@__crt_stdio_output@@@__crt_stdio_output@@QEAA@XZ 000000014002489c f i libucrt:output.obj
 0001:000238c0       ??1?$positional_parameter_base@DV?$string_output_adapter@D@__crt_stdio_output@@@__crt_stdio_output@@QEAA@XZ 00000001400248c0 f i libucrt:output.obj
 0001:000238e4       ??1?$positional_parameter_base@_WV?$stream_output_adapter@_W@__crt_stdio_output@@@__crt_stdio_output@@QEAA@XZ 00000001400248e4 f i libucrt:output.obj
 0001:00023908       ??1?$positional_parameter_base@_WV?$string_output_adapter@_W@__crt_stdio_output@@@__crt_stdio_output@@QEAA@XZ 0000000140024908 f i libucrt:output.obj
 0001:0002392c       ??1?$standard_base@DV?$stream_output_adapter@D@__crt_stdio_output@@@__crt_stdio_output@@QEAA@XZ 000000014002492c f i libucrt:output.obj
 0001:00023950       ??1?$standard_base@DV?$string_output_adapter@D@__crt_stdio_output@@@__crt_stdio_output@@QEAA@XZ 0000000140024950 f i libucrt:output.obj
 0001:00023974       ??1?$standard_base@_WV?$stream_output_adapter@_W@__crt_stdio_output@@@__crt_stdio_output@@QEAA@XZ 0000000140024974 f i libucrt:output.obj
 0001:00023998       ??1?$standard_base@_WV?$string_output_adapter@_W@__crt_stdio_output@@@__crt_stdio_output@@QEAA@XZ 0000000140024998 f i libucrt:output.obj
 0001:000239bc       ??1__acrt_stdio_temporary_buffering_guard@@QEAA@XZ 00000001400249bc f i libucrt:output.obj
 0001:000239d0       ??1__crt_cached_ptd_host@@QEAA@XZ 00000001400249d0 f i libucrt:output.obj
 0001:00023a20       ??1__crt_scoped_get_last_error_reset@@QEAA@XZ 0000000140024a20 f i libucrt:output.obj
 0001:00023a2c       ??1formatting_buffer@__crt_stdio_output@@QEAA@XZ 0000000140024a2c f i libucrt:output.obj
 0001:00023a50       ??1guard@?$cached@H@__crt_cached_ptd_host@@QEAA@XZ 0000000140024a50 f i libucrt:output.obj
 0001:00023a64       ??4?$__crt_unique_heap_ptr@DU__crt_internal_free_policy@@@@QEAAAEAV0@$$QEAV0@@Z 0000000140024a64 f i libucrt:output.obj
 0001:00023a98       ??A?$spectre_mitigated_lookup_table@Ustate_transition_pair@__crt_stdio_output@@$0IA@@__crt_stdio_output@@QEBAAEBUstate_transition_pair@1@_K@Z 0000000140024a98 f i libucrt:output.obj
 0001:00023aa0       ??C__crt_stdio_stream@@QEBAPEAU__crt_stdio_stream_data@@XZ 0000000140024aa0 f i libucrt:output.obj
 0001:000241e8       ?__crt_interlocked_read_32@@YAHPEDH@Z 00000001400251e8 f i libucrt:output.obj
 0001:000241ec       ?adjust_hexit@?$output_processor@DV?$stream_output_adapter@D@__crt_stdio_output@@V?$format_validation_base@DV?$stream_output_adapter@D@__crt_stdio_output@@@2@@__crt_stdio_output@@CADH_N@Z 00000001400251ec f i libucrt:output.obj
 0001:000241f8       ?adjust_hexit@?$output_processor@DV?$stream_output_adapter@D@__crt_stdio_output@@V?$positional_parameter_base@DV?$stream_output_adapter@D@__crt_stdio_output@@@2@@__crt_stdio_output@@CADH_N@Z 00000001400251f8 f i libucrt:output.obj
 0001:00024204       ?adjust_hexit@?$output_processor@DV?$stream_output_adapter@D@__crt_stdio_output@@V?$standard_base@DV?$stream_output_adapter@D@__crt_stdio_output@@@2@@__crt_stdio_output@@CADH_N@Z 0000000140025204 f i libucrt:output.obj
 0001:00024210       ?adjust_hexit@?$output_processor@DV?$string_output_adapter@D@__crt_stdio_output@@V?$format_validation_base@DV?$string_output_adapter@D@__crt_stdio_output@@@2@@__crt_stdio_output@@CADH_N@Z 0000000140025210 f i libucrt:output.obj
 0001:0002421c       ?adjust_hexit@?$output_processor@DV?$string_output_adapter@D@__crt_stdio_output@@V?$positional_parameter_base@DV?$string_output_adapter@D@__crt_stdio_output@@@2@@__crt_stdio_output@@CADH_N@Z 000000014002521c f i libucrt:output.obj
 0001:00024228       ?adjust_hexit@?$output_processor@DV?$string_output_adapter@D@__crt_stdio_output@@V?$standard_base@DV?$string_output_adapter@D@__crt_stdio_output@@@2@@__crt_stdio_output@@CADH_N@Z 0000000140025228 f i libucrt:output.obj
 0001:00024234       ?adjust_hexit@?$output_processor@_WV?$stream_output_adapter@_W@__crt_stdio_output@@V?$format_validation_base@_WV?$stream_output_adapter@_W@__crt_stdio_output@@@2@@__crt_stdio_output@@CADH_N@Z 0000000140025234 f i libucrt:output.obj
 0001:00024240       ?adjust_hexit@?$output_processor@_WV?$stream_output_adapter@_W@__crt_stdio_output@@V?$positional_parameter_base@_WV?$stream_output_adapter@_W@__crt_stdio_output@@@2@@__crt_stdio_output@@CADH_N@Z 0000000140025240 f i libucrt:output.obj
 0001:0002424c       ?adjust_hexit@?$output_processor@_WV?$stream_output_adapter@_W@__crt_stdio_output@@V?$standard_base@_WV?$stream_output_adapter@_W@__crt_stdio_output@@@2@@__crt_stdio_output@@CADH_N@Z 000000014002524c f i libucrt:output.obj
 0001:00024258       ?adjust_hexit@?$output_processor@_WV?$string_output_adapter@_W@__crt_stdio_output@@V?$format_validation_base@_WV?$string_output_adapter@_W@__crt_stdio_output@@@2@@__crt_stdio_output@@CADH_N@Z 0000000140025258 f i libucrt:output.obj
 0001:00024264       ?adjust_hexit@?$output_processor@_WV?$string_output_adapter@_W@__crt_stdio_output@@V?$positional_parameter_base@_WV?$string_output_adapter@_W@__crt_stdio_output@@@2@@__crt_stdio_output@@CADH_N@Z 0000000140025264 f i libucrt:output.obj
 0001:00024270       ?adjust_hexit@?$output_processor@_WV?$string_output_adapter@_W@__crt_stdio_output@@V?$standard_base@_WV?$string_output_adapter@_W@__crt_stdio_output@@@2@@__crt_stdio_output@@CADH_N@Z 0000000140025270 f i libucrt:output.obj
 0001:0002427c       ?advance_to_next_pass@?$positional_parameter_base@DV?$stream_output_adapter@D@__crt_stdio_output@@@__crt_stdio_output@@IEAA_NXZ 000000014002527c f i libucrt:output.obj
 0001:000242d0       ?advance_to_next_pass@?$positional_parameter_base@DV?$string_output_adapter@D@__crt_stdio_output@@@__crt_stdio_output@@IEAA_NXZ 00000001400252d0 f i libucrt:output.obj
 0001:00024324       ?advance_to_next_pass@?$positional_parameter_base@_WV?$stream_output_adapter@_W@__crt_stdio_output@@@__crt_stdio_output@@IEAA_NXZ 0000000140025324 f i libucrt:output.obj
 0001:00024378       ?advance_to_next_pass@?$positional_parameter_base@_WV?$string_output_adapter@_W@__crt_stdio_output@@@__crt_stdio_output@@IEAA_NXZ 0000000140025378 f i libucrt:output.obj
 0001:000243cc       ?advance_to_next_pass@?$standard_base@DV?$stream_output_adapter@D@__crt_stdio_output@@@__crt_stdio_output@@IEAA_NXZ 00000001400253cc f i libucrt:output.obj
 0001:000243e0       ?advance_to_next_pass@?$standard_base@DV?$string_output_adapter@D@__crt_stdio_output@@@__crt_stdio_output@@IEAA_NXZ 00000001400253e0 f i libucrt:output.obj
 0001:000243f4       ?advance_to_next_pass@?$standard_base@_WV?$stream_output_adapter@_W@__crt_stdio_output@@@__crt_stdio_output@@IEAA_NXZ 00000001400253f4 f i libucrt:output.obj
 0001:00024408       ?advance_to_next_pass@?$standard_base@_WV?$string_output_adapter@_W@__crt_stdio_output@@@__crt_stdio_output@@IEAA_NXZ 0000000140025408 f i libucrt:output.obj
 0001:0002441c       ?check@?$cached@H@__crt_cached_ptd_host@@QEBA_NH@Z 000000014002541c f i libucrt:output.obj
 0001:00024430       ?check_synchronize_global_state_index@__crt_cached_ptd_host@@AEAA_KAEBV__crt_scoped_get_last_error_reset@@@Z 0000000140025430 f i libucrt:output.obj
 0001:00024450       ?check_synchronize_per_thread_data@__crt_cached_ptd_host@@AEAAPEAU__acrt_ptd@@XZ 0000000140025450 f i libucrt:output.obj
 0001:000244b8       ?create_guard@?$cached@H@__crt_cached_ptd_host@@QEAA?AVguard@12@XZ 00000001400254b8 f i libucrt:output.obj
 0001:000244cc       ?crop_zeroes@__crt_stdio_output@@YAXPEADQEAU__crt_locale_pointers@@@Z 00000001400254cc f i libucrt:output.obj
 0001:00024538       ?disable@guard@?$cached@H@__crt_cached_ptd_host@@QEAAXXZ 0000000140025538 f i libucrt:output.obj
 0001:00024540       ?enable@guard@?$cached@H@__crt_cached_ptd_host@@QEAAXXZ 0000000140025540 f i libucrt:output.obj
 0001:00024548       ?find_next_state@?$output_processor@DV?$stream_output_adapter@D@__crt_stdio_output@@V?$format_validation_base@DV?$stream_output_adapter@D@__crt_stdio_output@@@2@@__crt_stdio_output@@AEBA?AW4state@2@DW432@@Z 0000000140025548 f i libucrt:output.obj
 0001:00024580       ?find_next_state@?$output_processor@DV?$stream_output_adapter@D@__crt_stdio_output@@V?$positional_parameter_base@DV?$stream_output_adapter@D@__crt_stdio_output@@@2@@__crt_stdio_output@@AEBA?AW4state@2@DW432@@Z 0000000140025580 f i libucrt:output.obj
 0001:000245b8       ?find_next_state@?$output_processor@DV?$stream_output_adapter@D@__crt_stdio_output@@V?$standard_base@DV?$stream_output_adapter@D@__crt_stdio_output@@@2@@__crt_stdio_output@@AEBA?AW4state@2@DW432@@Z 00000001400255b8 f i libucrt:output.obj
 0001:000245ec       ?find_next_state@?$output_processor@DV?$string_output_adapter@D@__crt_stdio_output@@V?$format_validation_base@DV?$string_output_adapter@D@__crt_stdio_output@@@2@@__crt_stdio_output@@AEBA?AW4state@2@DW432@@Z 00000001400255ec f i libucrt:output.obj
 0001:00024624       ?find_next_state@?$output_processor@DV?$string_output_adapter@D@__crt_stdio_output@@V?$positional_parameter_base@DV?$string_output_adapter@D@__crt_stdio_output@@@2@@__crt_stdio_output@@AEBA?AW4state@2@DW432@@Z 0000000140025624 f i libucrt:output.obj
 0001:0002465c       ?find_next_state@?$output_processor@DV?$string_output_adapter@D@__crt_stdio_output@@V?$standard_base@DV?$string_output_adapter@D@__crt_stdio_output@@@2@@__crt_stdio_output@@AEBA?AW4state@2@DW432@@Z 000000014002565c f i libucrt:output.obj
 0001:00024690       ?find_next_state@?$output_processor@_WV?$stream_output_adapter@_W@__crt_stdio_output@@V?$format_validation_base@_WV?$stream_output_adapter@_W@__crt_stdio_output@@@2@@__crt_stdio_output@@AEBA?AW4state@2@_WW432@@Z 0000000140025690 f i libucrt:output.obj
 0001:000246d0       ?find_next_state@?$output_processor@_WV?$stream_output_adapter@_W@__crt_stdio_output@@V?$positional_parameter_base@_WV?$stream_output_adapter@_W@__crt_stdio_output@@@2@@__crt_stdio_output@@AEBA?AW4state@2@_WW432@@Z 00000001400256d0 f i libucrt:output.obj
 0001:00024710       ?find_next_state@?$output_processor@_WV?$stream_output_adapter@_W@__crt_stdio_output@@V?$standard_base@_WV?$stream_output_adapter@_W@__crt_stdio_output@@@2@@__crt_stdio_output@@AEBA?AW4state@2@_WW432@@Z 0000000140025710 f i libucrt:output.obj
 0001:0002474c       ?find_next_state@?$output_processor@_WV?$string_output_adapter@_W@__crt_stdio_output@@V?$format_validation_base@_WV?$string_output_adapter@_W@__crt_stdio_output@@@2@@__crt_stdio_output@@AEBA?AW4state@2@_WW432@@Z 000000014002574c f i libucrt:output.obj
 0001:0002478c       ?find_next_state@?$output_processor@_WV?$string_output_adapter@_W@__crt_stdio_output@@V?$positional_parameter_base@_WV?$string_output_adapter@_W@__crt_stdio_output@@@2@@__crt_stdio_output@@AEBA?AW4state@2@_WW432@@Z 000000014002578c f i libucrt:output.obj
 0001:000247cc       ?find_next_state@?$output_processor@_WV?$string_output_adapter@_W@__crt_stdio_output@@V?$standard_base@_WV?$string_output_adapter@_W@__crt_stdio_output@@@2@@__crt_stdio_output@@AEBA?AW4state@2@_WW432@@Z 00000001400257cc f i libucrt:output.obj
 0001:00024808       ?force_decimal_point@__crt_stdio_output@@YAXPEADQEAU__crt_locale_pointers@@@Z 0000000140025808 f i libucrt:output.obj
 0001:00024870       ?force_synchronize_global_state_index@__crt_cached_ptd_host@@AEAA_KAEBV__crt_scoped_get_last_error_reset@@@Z 0000000140025870 f i libucrt:output.obj
 0001:00024880       ?force_synchronize_per_thread_data@__crt_cached_ptd_host@@AEAAPEAU__acrt_ptd@@XZ 0000000140025880 f i libucrt:output.obj
 0001:000248d8       ?get@?$c_string_character_source@D@__crt_strtox@@QEAADXZ 00000001400258d8 f i libucrt:output.obj
 0001:000248e4       ?get@?$c_string_character_source@_W@__crt_strtox@@QEAA_WXZ 00000001400258e4 f i libucrt:output.obj
 0001:000248f4       ?get_current_state_index@__crt_state_management@@YA_KAEBV__crt_scoped_get_last_error_reset@@@Z 00000001400258f4 f i libucrt:output.obj
 0001:00024900       ?get_errno@__crt_cached_ptd_host@@QEAA@XZ 0000000140025900 f i libucrt:output.obj
 0001:00024908       ?get_flags@__crt_stdio_stream@@QEBAJXZ 0000000140025908 f i libucrt:output.obj
 0001:00024910       ?get_locale@__crt_cached_ptd_host@@QEAAPEAU__crt_locale_pointers@@XZ 0000000140025910 f i libucrt:output.obj
 0001:00024938       ?get_parameter_type@?$positional_parameter_base@DV?$stream_output_adapter@D@__crt_stdio_output@@@__crt_stdio_output@@CA?AW4parameter_type@12@F@Z 0000000140025938 f i libucrt:output.obj
 0001:00024940       ?get_parameter_type@?$positional_parameter_base@DV?$stream_output_adapter@D@__crt_stdio_output@@@__crt_stdio_output@@CA?AW4parameter_type@12@G@Z 0000000140025940 f i libucrt:output.obj
 0001:00024948       ?get_parameter_type@?$positional_parameter_base@DV?$stream_output_adapter@D@__crt_stdio_output@@@__crt_stdio_output@@CA?AW4parameter_type@12@H@Z 0000000140025948 f i libucrt:output.obj
 0001:00024950       ?get_parameter_type@?$positional_parameter_base@DV?$stream_output_adapter@D@__crt_stdio_output@@@__crt_stdio_output@@CA?AW4parameter_type@12@I@Z 0000000140025950 f i libucrt:output.obj
 0001:00024958       ?get_parameter_type@?$positional_parameter_base@DV?$stream_output_adapter@D@__crt_stdio_output@@@__crt_stdio_output@@CA?AW4parameter_type@12@U_CRT_DOUBLE@@@Z 0000000140025958 f i libucrt:output.obj
 0001:00024960       ?get_parameter_type@?$positional_parameter_base@DV?$stream_output_adapter@D@__crt_stdio_output@@@__crt_stdio_output@@CA?AW4parameter_type@12@_J@Z 0000000140025960 f i libucrt:output.obj
 0001:00024968       ?get_parameter_type@?$positional_parameter_base@DV?$stream_output_adapter@D@__crt_stdio_output@@@__crt_stdio_output@@CA?AW4parameter_type@12@_K@Z 0000000140025968 f i libucrt:output.obj
 0001:00024970       ?get_parameter_type@?$positional_parameter_base@DV?$stream_output_adapter@D@__crt_stdio_output@@@__crt_stdio_output@@CA?AW4parameter_type@12@_W@Z 0000000140025970 f i libucrt:output.obj
 0001:00024978       ?get_parameter_type@?$positional_parameter_base@DV?$string_output_adapter@D@__crt_stdio_output@@@__crt_stdio_output@@CA?AW4parameter_type@12@F@Z 0000000140025978 f i libucrt:output.obj
 0001:00024980       ?get_parameter_type@?$positional_parameter_base@DV?$string_output_adapter@D@__crt_stdio_output@@@__crt_stdio_output@@CA?AW4parameter_type@12@G@Z 0000000140025980 f i libucrt:output.obj
 0001:00024988       ?get_parameter_type@?$positional_parameter_base@DV?$string_output_adapter@D@__crt_stdio_output@@@__crt_stdio_output@@CA?AW4parameter_type@12@H@Z 0000000140025988 f i libucrt:output.obj
 0001:00024990       ?get_parameter_type@?$positional_parameter_base@DV?$string_output_adapter@D@__crt_stdio_output@@@__crt_stdio_output@@CA?AW4parameter_type@12@I@Z 0000000140025990 f i libucrt:output.obj
 0001:00024998       ?get_parameter_type@?$positional_parameter_base@DV?$string_output_adapter@D@__crt_stdio_output@@@__crt_stdio_output@@CA?AW4parameter_type@12@U_CRT_DOUBLE@@@Z 0000000140025998 f i libucrt:output.obj
 0001:000249a0       ?get_parameter_type@?$positional_parameter_base@DV?$string_output_adapter@D@__crt_stdio_output@@@__crt_stdio_output@@CA?AW4parameter_type@12@_J@Z 00000001400259a0 f i libucrt:output.obj
 0001:000249a8       ?get_parameter_type@?$positional_parameter_base@DV?$string_output_adapter@D@__crt_stdio_output@@@__crt_stdio_output@@CA?AW4parameter_type@12@_K@Z 00000001400259a8 f i libucrt:output.obj
 0001:000249b0       ?get_parameter_type@?$positional_parameter_base@DV?$string_output_adapter@D@__crt_stdio_output@@@__crt_stdio_output@@CA?AW4parameter_type@12@_W@Z 00000001400259b0 f i libucrt:output.obj
 0001:000249b8       ?get_parameter_type@?$positional_parameter_base@_WV?$stream_output_adapter@_W@__crt_stdio_output@@@__crt_stdio_output@@CA?AW4parameter_type@12@F@Z 00000001400259b8 f i libucrt:output.obj
 0001:000249c0       ?get_parameter_type@?$positional_parameter_base@_WV?$stream_output_adapter@_W@__crt_stdio_output@@@__crt_stdio_output@@CA?AW4parameter_type@12@G@Z 00000001400259c0 f i libucrt:output.obj
 0001:000249c8       ?get_parameter_type@?$positional_parameter_base@_WV?$stream_output_adapter@_W@__crt_stdio_output@@@__crt_stdio_output@@CA?AW4parameter_type@12@H@Z 00000001400259c8 f i libucrt:output.obj
 0001:000249d0       ?get_parameter_type@?$positional_parameter_base@_WV?$stream_output_adapter@_W@__crt_stdio_output@@@__crt_stdio_output@@CA?AW4parameter_type@12@I@Z 00000001400259d0 f i libucrt:output.obj
 0001:000249d8       ?get_parameter_type@?$positional_parameter_base@_WV?$stream_output_adapter@_W@__crt_stdio_output@@@__crt_stdio_output@@CA?AW4parameter_type@12@U_CRT_DOUBLE@@@Z 00000001400259d8 f i libucrt:output.obj
 0001:000249e0       ?get_parameter_type@?$positional_parameter_base@_WV?$stream_output_adapter@_W@__crt_stdio_output@@@__crt_stdio_output@@CA?AW4parameter_type@12@_J@Z 00000001400259e0 f i libucrt:output.obj
 0001:000249e8       ?get_parameter_type@?$positional_parameter_base@_WV?$stream_output_adapter@_W@__crt_stdio_output@@@__crt_stdio_output@@CA?AW4parameter_type@12@_K@Z 00000001400259e8 f i libucrt:output.obj
 0001:000249f0       ?get_parameter_type@?$positional_parameter_base@_WV?$stream_output_adapter@_W@__crt_stdio_output@@@__crt_stdio_output@@CA?AW4parameter_type@12@_W@Z 00000001400259f0 f i libucrt:output.obj
 0001:000249f8       ?get_parameter_type@?$positional_parameter_base@_WV?$string_output_adapter@_W@__crt_stdio_output@@@__crt_stdio_output@@CA?AW4parameter_type@12@F@Z 00000001400259f8 f i libucrt:output.obj
 0001:00024a00       ?get_parameter_type@?$positional_parameter_base@_WV?$string_output_adapter@_W@__crt_stdio_output@@@__crt_stdio_output@@CA?AW4parameter_type@12@G@Z 0000000140025a00 f i libucrt:output.obj
 0001:00024a08       ?get_parameter_type@?$positional_parameter_base@_WV?$string_output_adapter@_W@__crt_stdio_output@@@__crt_stdio_output@@CA?AW4parameter_type@12@H@Z 0000000140025a08 f i libucrt:output.obj
 0001:00024a10       ?get_parameter_type@?$positional_parameter_base@_WV?$string_output_adapter@_W@__crt_stdio_output@@@__crt_stdio_output@@CA?AW4parameter_type@12@I@Z 0000000140025a10 f i libucrt:output.obj
 0001:00024a18       ?get_parameter_type@?$positional_parameter_base@_WV?$string_output_adapter@_W@__crt_stdio_output@@@__crt_stdio_output@@CA?AW4parameter_type@12@U_CRT_DOUBLE@@@Z 0000000140025a18 f i libucrt:output.obj
 0001:00024a20       ?get_parameter_type@?$positional_parameter_base@_WV?$string_output_adapter@_W@__crt_stdio_output@@@__crt_stdio_output@@CA?AW4parameter_type@12@_J@Z 0000000140025a20 f i libucrt:output.obj
 0001:00024a28       ?get_parameter_type@?$positional_parameter_base@_WV?$string_output_adapter@_W@__crt_stdio_output@@@__crt_stdio_output@@CA?AW4parameter_type@12@_K@Z 0000000140025a28 f i libucrt:output.obj
 0001:00024a30       ?get_parameter_type@?$positional_parameter_base@_WV?$string_output_adapter@_W@__crt_stdio_output@@@__crt_stdio_output@@CA?AW4parameter_type@12@_W@Z 0000000140025a30 f i libucrt:output.obj
 0001:00024a40       ?get_raw_ptd@__crt_cached_ptd_host@@QEAAPEAU__acrt_ptd@@XZ 0000000140025a40 f i libucrt:output.obj
 0001:00024aa8       ?has_flag@?$output_processor@DV?$stream_output_adapter@D@__crt_stdio_output@@V?$format_validation_base@DV?$stream_output_adapter@D@__crt_stdio_output@@@2@@__crt_stdio_output@@AEBA_NI@Z 0000000140025aa8 f i libucrt:output.obj
 0001:00024ab0       ?has_flag@?$output_processor@DV?$stream_output_adapter@D@__crt_stdio_output@@V?$positional_parameter_base@DV?$stream_output_adapter@D@__crt_stdio_output@@@2@@__crt_stdio_output@@AEBA_NI@Z 0000000140025ab0 f i libucrt:output.obj
 0001:00024ab8       ?has_flag@?$output_processor@DV?$stream_output_adapter@D@__crt_stdio_output@@V?$standard_base@DV?$stream_output_adapter@D@__crt_stdio_output@@@2@@__crt_stdio_output@@AEBA_NI@Z 0000000140025ab8 f i libucrt:output.obj
 0001:00024ac0       ?has_flag@?$output_processor@DV?$string_output_adapter@D@__crt_stdio_output@@V?$format_validation_base@DV?$string_output_adapter@D@__crt_stdio_output@@@2@@__crt_stdio_output@@AEBA_NI@Z 0000000140025ac0 f i libucrt:output.obj
 0001:00024ac8       ?has_flag@?$output_processor@DV?$string_output_adapter@D@__crt_stdio_output@@V?$positional_parameter_base@DV?$string_output_adapter@D@__crt_stdio_output@@@2@@__crt_stdio_output@@AEBA_NI@Z 0000000140025ac8 f i libucrt:output.obj
 0001:00024ad0       ?has_flag@?$output_processor@DV?$string_output_adapter@D@__crt_stdio_output@@V?$standard_base@DV?$string_output_adapter@D@__crt_stdio_output@@@2@@__crt_stdio_output@@AEBA_NI@Z 0000000140025ad0 f i libucrt:output.obj
 0001:00024ad8       ?has_flag@?$output_processor@_WV?$stream_output_adapter@_W@__crt_stdio_output@@V?$format_validation_base@_WV?$stream_output_adapter@_W@__crt_stdio_output@@@2@@__crt_stdio_output@@AEBA_NI@Z 0000000140025ad8 f i libucrt:output.obj
 0001:00024ae0       ?has_flag@?$output_processor@_WV?$stream_output_adapter@_W@__crt_stdio_output@@V?$positional_parameter_base@_WV?$stream_output_adapter@_W@__crt_stdio_output@@@2@@__crt_stdio_output@@AEBA_NI@Z 0000000140025ae0 f i libucrt:output.obj
 0001:00024ae8       ?has_flag@?$output_processor@_WV?$stream_output_adapter@_W@__crt_stdio_output@@V?$standard_base@_WV?$stream_output_adapter@_W@__crt_stdio_output@@@2@@__crt_stdio_output@@AEBA_NI@Z 0000000140025ae8 f i libucrt:output.obj
 0001:00024af0       ?has_flag@?$output_processor@_WV?$string_output_adapter@_W@__crt_stdio_output@@V?$format_validation_base@_WV?$string_output_adapter@_W@__crt_stdio_output@@@2@@__crt_stdio_output@@AEBA_NI@Z 0000000140025af0 f i libucrt:output.obj
 0001:00024af8       ?has_flag@?$output_processor@_WV?$string_output_adapter@_W@__crt_stdio_output@@V?$positional_parameter_base@_WV?$string_output_adapter@_W@__crt_stdio_output@@@2@@__crt_stdio_output@@AEBA_NI@Z 0000000140025af8 f i libucrt:output.obj
 0001:00024b00       ?has_flag@?$output_processor@_WV?$string_output_adapter@_W@__crt_stdio_output@@V?$standard_base@_WV?$string_output_adapter@_W@__crt_stdio_output@@@2@@__crt_stdio_output@@AEBA_NI@Z 0000000140025b00 f i libucrt:output.obj
 0001:00024b08       ?is_positional_parameter_reappearance_consistent@?$positional_parameter_base@DV?$stream_output_adapter@D@__crt_stdio_output@@@__crt_stdio_output@@AEAA_NAEBUparameter_data@12@W4parameter_type@12@DW4length_modifier@2@@Z 0000000140025b08 f i libucrt:output.obj
 0001:00024d3c       ?is_positional_parameter_reappearance_consistent@?$positional_parameter_base@DV?$string_output_adapter@D@__crt_stdio_output@@@__crt_stdio_output@@AEAA_NAEBUparameter_data@12@W4parameter_type@12@DW4length_modifier@2@@Z 0000000140025d3c f i libucrt:output.obj
 0001:00024f70       ?is_positional_parameter_reappearance_consistent@?$positional_parameter_base@_WV?$stream_output_adapter@_W@__crt_stdio_output@@@__crt_stdio_output@@AEAA_NAEBUparameter_data@12@W4parameter_type@12@_WW4length_modifier@2@@Z 0000000140025f70 f i libucrt:output.obj
 0001:00025174       ?is_positional_parameter_reappearance_consistent@?$positional_parameter_base@_WV?$string_output_adapter@_W@__crt_stdio_output@@@__crt_stdio_output@@AEAA_NAEBUparameter_data@12@W4parameter_type@12@_WW4length_modifier@2@@Z 0000000140026174 f i libucrt:output.obj
 0001:00025378       ?is_string_backed@__crt_stdio_stream@@QEBA_NXZ 0000000140026378 f i libucrt:output.obj
 0001:00025388       ?maximum_signed_value@__crt_strtox@@YAJK@Z 0000000140026388 f i libucrt:output.obj
 0001:00025390       ?minimum_signed_value@__crt_strtox@@YAJK@Z 0000000140026390 f i libucrt:output.obj
 0001:00025398       ?narrow_null_string@?$output_processor@DV?$stream_output_adapter@D@__crt_stdio_output@@V?$format_validation_base@DV?$stream_output_adapter@D@__crt_stdio_output@@@2@@__crt_stdio_output@@CAPEADXZ 0000000140026398 f i libucrt:output.obj
 0001:000253a0       ?narrow_null_string@?$output_processor@DV?$stream_output_adapter@D@__crt_stdio_output@@V?$positional_parameter_base@DV?$stream_output_adapter@D@__crt_stdio_output@@@2@@__crt_stdio_output@@CAPEADXZ 00000001400263a0 f i libucrt:output.obj
 0001:000253a8       ?narrow_null_string@?$output_processor@DV?$stream_output_adapter@D@__crt_stdio_output@@V?$standard_base@DV?$stream_output_adapter@D@__crt_stdio_output@@@2@@__crt_stdio_output@@CAPEADXZ 00000001400263a8 f i libucrt:output.obj
 0001:000253b0       ?narrow_null_string@?$output_processor@DV?$string_output_adapter@D@__crt_stdio_output@@V?$format_validation_base@DV?$string_output_adapter@D@__crt_stdio_output@@@2@@__crt_stdio_output@@CAPEADXZ 00000001400263b0 f i libucrt:output.obj
 0001:000253b8       ?narrow_null_string@?$output_processor@DV?$string_output_adapter@D@__crt_stdio_output@@V?$positional_parameter_base@DV?$string_output_adapter@D@__crt_stdio_output@@@2@@__crt_stdio_output@@CAPEADXZ 00000001400263b8 f i libucrt:output.obj
 0001:000253c0       ?narrow_null_string@?$output_processor@DV?$string_output_adapter@D@__crt_stdio_output@@V?$standard_base@DV?$string_output_adapter@D@__crt_stdio_output@@@2@@__crt_stdio_output@@CAPEADXZ 00000001400263c0 f i libucrt:output.obj
 0001:000253c8       ?narrow_null_string@?$output_processor@_WV?$stream_output_adapter@_W@__crt_stdio_output@@V?$format_validation_base@_WV?$stream_output_adapter@_W@__crt_stdio_output@@@2@@__crt_stdio_output@@CAPEADXZ 00000001400263c8 f i libucrt:output.obj
 0001:000253d0       ?narrow_null_string@?$output_processor@_WV?$stream_output_adapter@_W@__crt_stdio_output@@V?$positional_parameter_base@_WV?$stream_output_adapter@_W@__crt_stdio_output@@@2@@__crt_stdio_output@@CAPEADXZ 00000001400263d0 f i libucrt:output.obj
 0001:000253d8       ?narrow_null_string@?$output_processor@_WV?$stream_output_adapter@_W@__crt_stdio_output@@V?$standard_base@_WV?$stream_output_adapter@_W@__crt_stdio_output@@@2@@__crt_stdio_output@@CAPEADXZ 00000001400263d8 f i libucrt:output.obj
 0001:000253e0       ?narrow_null_string@?$output_processor@_WV?$string_output_adapter@_W@__crt_stdio_output@@V?$format_validation_base@_WV?$string_output_adapter@_W@__crt_stdio_output@@@2@@__crt_stdio_output@@CAPEADXZ 00000001400263e0 f i libucrt:output.obj
 0001:000253e8       ?narrow_null_string@?$output_processor@_WV?$string_output_adapter@_W@__crt_stdio_output@@V?$positional_parameter_base@_WV?$string_output_adapter@_W@__crt_stdio_output@@@2@@__crt_stdio_output@@CAPEADXZ 00000001400263e8 f i libucrt:output.obj
 0001:000253f0       ?narrow_null_string@?$output_processor@_WV?$string_output_adapter@_W@__crt_stdio_output@@V?$standard_base@_WV?$string_output_adapter@_W@__crt_stdio_output@@@2@@__crt_stdio_output@@CAPEADXZ 00000001400263f0 f i libucrt:output.obj
 0001:000253f8       ?parse_digit@__crt_strtox@@YAID@Z 00000001400263f8 f i libucrt:output.obj
 0001:00025428       ?parse_digit@__crt_strtox@@YAI_W@Z 0000000140026428 f i libucrt:output.obj
 0001:000255e4       ?parse_int_from_format_string@?$output_processor@DV?$stream_output_adapter@D@__crt_stdio_output@@V?$format_validation_base@DV?$stream_output_adapter@D@__crt_stdio_output@@@2@@__crt_stdio_output@@AEAA_NQEAH@Z 00000001400265e4 f i libucrt:output.obj
 0001:00025674       ?parse_int_from_format_string@?$output_processor@DV?$stream_output_adapter@D@__crt_stdio_output@@V?$positional_parameter_base@DV?$stream_output_adapter@D@__crt_stdio_output@@@2@@__crt_stdio_output@@AEAA_NQEAH@Z 0000000140026674 f i libucrt:output.obj
 0001:00025704       ?parse_int_from_format_string@?$output_processor@DV?$stream_output_adapter@D@__crt_stdio_output@@V?$standard_base@DV?$stream_output_adapter@D@__crt_stdio_output@@@2@@__crt_stdio_output@@AEAA_NQEAH@Z 0000000140026704 f i libucrt:output.obj
 0001:00025794       ?parse_int_from_format_string@?$output_processor@DV?$string_output_adapter@D@__crt_stdio_output@@V?$format_validation_base@DV?$string_output_adapter@D@__crt_stdio_output@@@2@@__crt_stdio_output@@AEAA_NQEAH@Z 0000000140026794 f i libucrt:output.obj
 0001:00025824       ?parse_int_from_format_string@?$output_processor@DV?$string_output_adapter@D@__crt_stdio_output@@V?$positional_parameter_base@DV?$string_output_adapter@D@__crt_stdio_output@@@2@@__crt_stdio_output@@AEAA_NQEAH@Z 0000000140026824 f i libucrt:output.obj
 0001:000258b4       ?parse_int_from_format_string@?$output_processor@DV?$string_output_adapter@D@__crt_stdio_output@@V?$standard_base@DV?$string_output_adapter@D@__crt_stdio_output@@@2@@__crt_stdio_output@@AEAA_NQEAH@Z 00000001400268b4 f i libucrt:output.obj
 0001:00025944       ?parse_int_from_format_string@?$output_processor@_WV?$stream_output_adapter@_W@__crt_stdio_output@@V?$format_validation_base@_WV?$stream_output_adapter@_W@__crt_stdio_output@@@2@@__crt_stdio_output@@AEAA_NQEAH@Z 0000000140026944 f i libucrt:output.obj
 0001:000259d4       ?parse_int_from_format_string@?$output_processor@_WV?$stream_output_adapter@_W@__crt_stdio_output@@V?$positional_parameter_base@_WV?$stream_output_adapter@_W@__crt_stdio_output@@@2@@__crt_stdio_output@@AEAA_NQEAH@Z 00000001400269d4 f i libucrt:output.obj
 0001:00025a64       ?parse_int_from_format_string@?$output_processor@_WV?$stream_output_adapter@_W@__crt_stdio_output@@V?$standard_base@_WV?$stream_output_adapter@_W@__crt_stdio_output@@@2@@__crt_stdio_output@@AEAA_NQEAH@Z 0000000140026a64 f i libucrt:output.obj
 0001:00025af4       ?parse_int_from_format_string@?$output_processor@_WV?$string_output_adapter@_W@__crt_stdio_output@@V?$format_validation_base@_WV?$string_output_adapter@_W@__crt_stdio_output@@@2@@__crt_stdio_output@@AEAA_NQEAH@Z 0000000140026af4 f i libucrt:output.obj
 0001:00025b84       ?parse_int_from_format_string@?$output_processor@_WV?$string_output_adapter@_W@__crt_stdio_output@@V?$positional_parameter_base@_WV?$string_output_adapter@_W@__crt_stdio_output@@@2@@__crt_stdio_output@@AEAA_NQEAH@Z 0000000140026b84 f i libucrt:output.obj
 0001:00025c14       ?parse_int_from_format_string@?$output_processor@_WV?$string_output_adapter@_W@__crt_stdio_output@@V?$standard_base@_WV?$string_output_adapter@_W@__crt_stdio_output@@@2@@__crt_stdio_output@@AEAA_NQEAH@Z 0000000140026c14 f i libucrt:output.obj
 0001:00025ca4       ?process@?$output_processor@DV?$stream_output_adapter@D@__crt_stdio_output@@V?$format_validation_base@DV?$stream_output_adapter@D@__crt_stdio_output@@@2@@__crt_stdio_output@@QEAAHXZ 0000000140026ca4 f i libucrt:output.obj
 0001:00026024       ?process@?$output_processor@DV?$stream_output_adapter@D@__crt_stdio_output@@V?$positional_parameter_base@DV?$stream_output_adapter@D@__crt_stdio_output@@@2@@__crt_stdio_output@@QEAAHXZ 0000000140027024 f i libucrt:output.obj
 0001:0002643c       ?process@?$output_processor@DV?$stream_output_adapter@D@__crt_stdio_output@@V?$standard_base@DV?$stream_output_adapter@D@__crt_stdio_output@@@2@@__crt_stdio_output@@QEAAHXZ 000000014002743c f i libucrt:output.obj
 0001:000267c0       ?process@?$output_processor@DV?$string_output_adapter@D@__crt_stdio_output@@V?$format_validation_base@DV?$string_output_adapter@D@__crt_stdio_output@@@2@@__crt_stdio_output@@QEAAHXZ 00000001400277c0 f i libucrt:output.obj
 0001:00026b28       ?process@?$output_processor@DV?$string_output_adapter@D@__crt_stdio_output@@V?$positional_parameter_base@DV?$string_output_adapter@D@__crt_stdio_output@@@2@@__crt_stdio_output@@QEAAHXZ 0000000140027b28 f i libucrt:output.obj
 0001:00026f28       ?process@?$output_processor@DV?$string_output_adapter@D@__crt_stdio_output@@V?$standard_base@DV?$string_output_adapter@D@__crt_stdio_output@@@2@@__crt_stdio_output@@QEAAHXZ 0000000140027f28 f i libucrt:output.obj
 0001:00027298       ?process@?$output_processor@_WV?$stream_output_adapter@_W@__crt_stdio_output@@V?$format_validation_base@_WV?$stream_output_adapter@_W@__crt_stdio_output@@@2@@__crt_stdio_output@@QEAAHXZ 0000000140028298 f i libucrt:output.obj
 0001:00027558       ?process@?$output_processor@_WV?$stream_output_adapter@_W@__crt_stdio_output@@V?$positional_parameter_base@_WV?$stream_output_adapter@_W@__crt_stdio_output@@@2@@__crt_stdio_output@@QEAAHXZ 0000000140028558 f i libucrt:output.obj
 0001:000278b8       ?process@?$output_processor@_WV?$stream_output_adapter@_W@__crt_stdio_output@@V?$standard_base@_WV?$stream_output_adapter@_W@__crt_stdio_output@@@2@@__crt_stdio_output@@QEAAHXZ 00000001400288b8 f i libucrt:output.obj
 0001:00027b78       ?process@?$output_processor@_WV?$string_output_adapter@_W@__crt_stdio_output@@V?$format_validation_base@_WV?$string_output_adapter@_W@__crt_stdio_output@@@2@@__crt_stdio_output@@QEAAHXZ 0000000140028b78 f i libucrt:output.obj
 0001:00027e34       ?process@?$output_processor@_WV?$string_output_adapter@_W@__crt_stdio_output@@V?$positional_parameter_base@_WV?$string_output_adapter@_W@__crt_stdio_output@@@2@@__crt_stdio_output@@QEAAHXZ 0000000140028e34 f i libucrt:output.obj
 0001:00028194       ?process@?$output_processor@_WV?$string_output_adapter@_W@__crt_stdio_output@@V?$standard_base@_WV?$string_output_adapter@_W@__crt_stdio_output@@@2@@__crt_stdio_output@@QEAAHXZ 0000000140029194 f i libucrt:output.obj
 0001:00028458       ?public_stream@__crt_stdio_stream@@QEBAPEAU_iobuf@@XZ 0000000140029458 f i libucrt:output.obj
 0001:0002845c       ?restore_state@?$c_string_character_source@D@__crt_strtox@@QEAA_NQEBD@Z 000000014002945c f i libucrt:output.obj
 0001:00028464       ?restore_state@?$c_string_character_source@_W@__crt_strtox@@QEAA_NQEB_W@Z 0000000140029464 f i libucrt:output.obj
 0001:0002846c       ?save_state@?$c_string_character_source@D@__crt_strtox@@QEBAPEBDXZ 000000014002946c f i libucrt:output.obj
 0001:00028470       ?save_state@?$c_string_character_source@_W@__crt_strtox@@QEBAPEB_WXZ 0000000140029470 f i libucrt:output.obj
 0001:00028474       ?set@?$cached@H@__crt_cached_ptd_host@@QEAAHH@Z 0000000140029474 f i libucrt:output.obj
 0001:00028480       ?set_flag@?$output_processor@DV?$stream_output_adapter@D@__crt_stdio_output@@V?$format_validation_base@DV?$stream_output_adapter@D@__crt_stdio_output@@@2@@__crt_stdio_output@@AEAAXI@Z 0000000140029480 f i libucrt:output.obj
 0001:00028484       ?set_flag@?$output_processor@DV?$stream_output_adapter@D@__crt_stdio_output@@V?$positional_parameter_base@DV?$stream_output_adapter@D@__crt_stdio_output@@@2@@__crt_stdio_output@@AEAAXI@Z 0000000140029484 f i libucrt:output.obj
 0001:00028488       ?set_flag@?$output_processor@DV?$stream_output_adapter@D@__crt_stdio_output@@V?$standard_base@DV?$stream_output_adapter@D@__crt_stdio_output@@@2@@__crt_stdio_output@@AEAAXI@Z 0000000140029488 f i libucrt:output.obj
 0001:0002848c       ?set_flag@?$output_processor@DV?$string_output_adapter@D@__crt_stdio_output@@V?$format_validation_base@DV?$string_output_adapter@D@__crt_stdio_output@@@2@@__crt_stdio_output@@AEAAXI@Z 000000014002948c f i libucrt:output.obj
 0001:00028490       ?set_flag@?$output_processor@DV?$string_output_adapter@D@__crt_stdio_output@@V?$positional_parameter_base@DV?$string_output_adapter@D@__crt_stdio_output@@@2@@__crt_stdio_output@@AEAAXI@Z 0000000140029490 f i libucrt:output.obj
 0001:00028494       ?set_flag@?$output_processor@DV?$string_output_adapter@D@__crt_stdio_output@@V?$standard_base@DV?$string_output_adapter@D@__crt_stdio_output@@@2@@__crt_stdio_output@@AEAAXI@Z 0000000140029494 f i libucrt:output.obj
 0001:00028498       ?set_flag@?$output_processor@_WV?$stream_output_adapter@_W@__crt_stdio_output@@V?$format_validation_base@_WV?$stream_output_adapter@_W@__crt_stdio_output@@@2@@__crt_stdio_output@@AEAAXI@Z 0000000140029498 f i libucrt:output.obj
 0001:0002849c       ?set_flag@?$output_processor@_WV?$stream_output_adapter@_W@__crt_stdio_output@@V?$positional_parameter_base@_WV?$stream_output_adapter@_W@__crt_stdio_output@@@2@@__crt_stdio_output@@AEAAXI@Z 000000014002949c f i libucrt:output.obj
 0001:000284a0       ?set_flag@?$output_processor@_WV?$stream_output_adapter@_W@__crt_stdio_output@@V?$standard_base@_WV?$stream_output_adapter@_W@__crt_stdio_output@@@2@@__crt_stdio_output@@AEAAXI@Z 00000001400294a0 f i libucrt:output.obj
 0001:000284a4       ?set_flag@?$output_processor@_WV?$string_output_adapter@_W@__crt_stdio_output@@V?$format_validation_base@_WV?$string_output_adapter@_W@__crt_stdio_output@@@2@@__crt_stdio_output@@AEAAXI@Z 00000001400294a4 f i libucrt:output.obj
 0001:000284a8       ?set_flag@?$output_processor@_WV?$string_output_adapter@_W@__crt_stdio_output@@V?$positional_parameter_base@_WV?$string_output_adapter@_W@__crt_stdio_output@@@2@@__crt_stdio_output@@AEAAXI@Z 00000001400294a8 f i libucrt:output.obj
 0001:000284ac       ?set_flag@?$output_processor@_WV?$string_output_adapter@_W@__crt_stdio_output@@V?$standard_base@_WV?$string_output_adapter@_W@__crt_stdio_output@@@2@@__crt_stdio_output@@AEAAXI@Z 00000001400294ac f i libucrt:output.obj
 0001:000284b0       ?should_format@?$positional_parameter_base@DV?$stream_output_adapter@D@__crt_stdio_output@@@__crt_stdio_output@@IEAA_NXZ 00000001400294b0 f i libucrt:output.obj
 0001:000284c8       ?should_format@?$positional_parameter_base@DV?$string_output_adapter@D@__crt_stdio_output@@@__crt_stdio_output@@IEAA_NXZ 00000001400294c8 f i libucrt:output.obj
 0001:000284e0       ?should_format@?$positional_parameter_base@_WV?$stream_output_adapter@_W@__crt_stdio_output@@@__crt_stdio_output@@IEAA_NXZ 00000001400294e0 f i libucrt:output.obj
 0001:000284f8       ?should_format@?$positional_parameter_base@_WV?$string_output_adapter@_W@__crt_stdio_output@@@__crt_stdio_output@@IEAA_NXZ 00000001400294f8 f i libucrt:output.obj
 0001:00028510       ?should_format@?$standard_base@DV?$stream_output_adapter@D@__crt_stdio_output@@@__crt_stdio_output@@IEAA_NXZ 0000000140029510 f i libucrt:output.obj
 0001:00028514       ?should_format@?$standard_base@DV?$string_output_adapter@D@__crt_stdio_output@@@__crt_stdio_output@@IEAA_NXZ 0000000140029514 f i libucrt:output.obj
 0001:00028518       ?should_format@?$standard_base@_WV?$stream_output_adapter@_W@__crt_stdio_output@@@__crt_stdio_output@@IEAA_NXZ 0000000140029518 f i libucrt:output.obj
 0001:0002851c       ?should_format@?$standard_base@_WV?$string_output_adapter@_W@__crt_stdio_output@@@__crt_stdio_output@@IEAA_NXZ 000000014002951c f i libucrt:output.obj
 0001:00028520       ?should_skip_normal_state_processing@?$positional_parameter_base@DV?$stream_output_adapter@D@__crt_stdio_output@@@__crt_stdio_output@@IEAA_NXZ 0000000140029520 f i libucrt:output.obj
 0001:0002854c       ?should_skip_normal_state_processing@?$positional_parameter_base@DV?$string_output_adapter@D@__crt_stdio_output@@@__crt_stdio_output@@IEAA_NXZ 000000014002954c f i libucrt:output.obj
 0001:00028578       ?should_skip_normal_state_processing@?$positional_parameter_base@_WV?$stream_output_adapter@_W@__crt_stdio_output@@@__crt_stdio_output@@IEAA_NXZ 0000000140029578 f i libucrt:output.obj
 0001:000285a4       ?should_skip_normal_state_processing@?$positional_parameter_base@_WV?$string_output_adapter@_W@__crt_stdio_output@@@__crt_stdio_output@@IEAA_NXZ 00000001400295a4 f i libucrt:output.obj
 0001:000285d0       ?should_skip_normal_state_processing@?$standard_base@DV?$stream_output_adapter@D@__crt_stdio_output@@@__crt_stdio_output@@IEAA_NXZ 00000001400295d0 f i libucrt:output.obj
 0001:000285d4       ?should_skip_normal_state_processing@?$standard_base@DV?$string_output_adapter@D@__crt_stdio_output@@@__crt_stdio_output@@IEAA_NXZ 00000001400295d4 f i libucrt:output.obj
 0001:000285d8       ?should_skip_normal_state_processing@?$standard_base@_WV?$stream_output_adapter@_W@__crt_stdio_output@@@__crt_stdio_output@@IEAA_NXZ 00000001400295d8 f i libucrt:output.obj
 0001:000285dc       ?should_skip_normal_state_processing@?$standard_base@_WV?$string_output_adapter@_W@__crt_stdio_output@@@__crt_stdio_output@@IEAA_NXZ 00000001400295dc f i libucrt:output.obj
 0001:000285e0       ?should_skip_type_state_output@?$positional_parameter_base@DV?$stream_output_adapter@D@__crt_stdio_output@@@__crt_stdio_output@@IEBA_NXZ 00000001400295e0 f i libucrt:output.obj
 0001:000285fc       ?should_skip_type_state_output@?$positional_parameter_base@DV?$string_output_adapter@D@__crt_stdio_output@@@__crt_stdio_output@@IEBA_NXZ 00000001400295fc f i libucrt:output.obj
 0001:00028618       ?should_skip_type_state_output@?$positional_parameter_base@_WV?$stream_output_adapter@_W@__crt_stdio_output@@@__crt_stdio_output@@IEBA_NXZ 0000000140029618 f i libucrt:output.obj
 0001:00028634       ?should_skip_type_state_output@?$positional_parameter_base@_WV?$string_output_adapter@_W@__crt_stdio_output@@@__crt_stdio_output@@IEBA_NXZ 0000000140029634 f i libucrt:output.obj
 0001:00028650       ?should_skip_type_state_output@?$standard_base@DV?$stream_output_adapter@D@__crt_stdio_output@@@__crt_stdio_output@@IEBA_NXZ 0000000140029650 f i libucrt:output.obj
 0001:00028654       ?should_skip_type_state_output@?$standard_base@DV?$string_output_adapter@D@__crt_stdio_output@@@__crt_stdio_output@@IEBA_NXZ 0000000140029654 f i libucrt:output.obj
 0001:00028658       ?should_skip_type_state_output@?$standard_base@_WV?$stream_output_adapter@_W@__crt_stdio_output@@@__crt_stdio_output@@IEBA_NXZ 0000000140029658 f i libucrt:output.obj
 0001:0002865c       ?should_skip_type_state_output@?$standard_base@_WV?$string_output_adapter@_W@__crt_stdio_output@@@__crt_stdio_output@@IEBA_NXZ 000000014002965c f i libucrt:output.obj
 0001:00028660       ?state_case_dot@?$output_processor@DV?$stream_output_adapter@D@__crt_stdio_output@@V?$format_validation_base@DV?$stream_output_adapter@D@__crt_stdio_output@@@2@@__crt_stdio_output@@AEAA_NXZ 0000000140029660 f i libucrt:output.obj
 0001:00028668       ?state_case_dot@?$output_processor@DV?$stream_output_adapter@D@__crt_stdio_output@@V?$positional_parameter_base@DV?$stream_output_adapter@D@__crt_stdio_output@@@2@@__crt_stdio_output@@AEAA_NXZ 0000000140029668 f i libucrt:output.obj
 0001:00028670       ?state_case_dot@?$output_processor@DV?$stream_output_adapter@D@__crt_stdio_output@@V?$standard_base@DV?$stream_output_adapter@D@__crt_stdio_output@@@2@@__crt_stdio_output@@AEAA_NXZ 0000000140029670 f i libucrt:output.obj
 0001:00028678       ?state_case_dot@?$output_processor@DV?$string_output_adapter@D@__crt_stdio_output@@V?$format_validation_base@DV?$string_output_adapter@D@__crt_stdio_output@@@2@@__crt_stdio_output@@AEAA_NXZ 0000000140029678 f i libucrt:output.obj
 0001:00028680       ?state_case_dot@?$output_processor@DV?$string_output_adapter@D@__crt_stdio_output@@V?$positional_parameter_base@DV?$string_output_adapter@D@__crt_stdio_output@@@2@@__crt_stdio_output@@AEAA_NXZ 0000000140029680 f i libucrt:output.obj
 0001:00028688       ?state_case_dot@?$output_processor@DV?$string_output_adapter@D@__crt_stdio_output@@V?$standard_base@DV?$string_output_adapter@D@__crt_stdio_output@@@2@@__crt_stdio_output@@AEAA_NXZ 0000000140029688 f i libucrt:output.obj
 0001:00028690       ?state_case_dot@?$output_processor@_WV?$stream_output_adapter@_W@__crt_stdio_output@@V?$format_validation_base@_WV?$stream_output_adapter@_W@__crt_stdio_output@@@2@@__crt_stdio_output@@AEAA_NXZ 0000000140029690 f i libucrt:output.obj
 0001:00028698       ?state_case_dot@?$output_processor@_WV?$stream_output_adapter@_W@__crt_stdio_output@@V?$positional_parameter_base@_WV?$stream_output_adapter@_W@__crt_stdio_output@@@2@@__crt_stdio_output@@AEAA_NXZ 0000000140029698 f i libucrt:output.obj
 0001:000286a0       ?state_case_dot@?$output_processor@_WV?$stream_output_adapter@_W@__crt_stdio_output@@V?$standard_base@_WV?$stream_output_adapter@_W@__crt_stdio_output@@@2@@__crt_stdio_output@@AEAA_NXZ 00000001400296a0 f i libucrt:output.obj
 0001:000286a8       ?state_case_dot@?$output_processor@_WV?$string_output_adapter@_W@__crt_stdio_output@@V?$format_validation_base@_WV?$string_output_adapter@_W@__crt_stdio_output@@@2@@__crt_stdio_output@@AEAA_NXZ 00000001400296a8 f i libucrt:output.obj
 0001:000286b0       ?state_case_dot@?$output_processor@_WV?$string_output_adapter@_W@__crt_stdio_output@@V?$positional_parameter_base@_WV?$string_output_adapter@_W@__crt_stdio_output@@@2@@__crt_stdio_output@@AEAA_NXZ 00000001400296b0 f i libucrt:output.obj
 0001:000286b8       ?state_case_dot@?$output_processor@_WV?$string_output_adapter@_W@__crt_stdio_output@@V?$standard_base@_WV?$string_output_adapter@_W@__crt_stdio_output@@@2@@__crt_stdio_output@@AEAA_NXZ 00000001400296b8 f i libucrt:output.obj
 0001:000286c0       ?state_case_flag@?$output_processor@DV?$stream_output_adapter@D@__crt_stdio_output@@V?$format_validation_base@DV?$stream_output_adapter@D@__crt_stdio_output@@@2@@__crt_stdio_output@@AEAA_NXZ 00000001400296c0 f i libucrt:output.obj
 0001:000286f8       ?state_case_flag@?$output_processor@DV?$stream_output_adapter@D@__crt_stdio_output@@V?$positional_parameter_base@DV?$stream_output_adapter@D@__crt_stdio_output@@@2@@__crt_stdio_output@@AEAA_NXZ 00000001400296f8 f i libucrt:output.obj
 0001:00028730       ?state_case_flag@?$output_processor@DV?$stream_output_adapter@D@__crt_stdio_output@@V?$standard_base@DV?$stream_output_adapter@D@__crt_stdio_output@@@2@@__crt_stdio_output@@AEAA_NXZ 0000000140029730 f i libucrt:output.obj
 0001:00028768       ?state_case_flag@?$output_processor@DV?$string_output_adapter@D@__crt_stdio_output@@V?$format_validation_base@DV?$string_output_adapter@D@__crt_stdio_output@@@2@@__crt_stdio_output@@AEAA_NXZ 0000000140029768 f i libucrt:output.obj
 0001:000287a0       ?state_case_flag@?$output_processor@DV?$string_output_adapter@D@__crt_stdio_output@@V?$positional_parameter_base@DV?$string_output_adapter@D@__crt_stdio_output@@@2@@__crt_stdio_output@@AEAA_NXZ 00000001400297a0 f i libucrt:output.obj
 0001:000287d8       ?state_case_flag@?$output_processor@DV?$string_output_adapter@D@__crt_stdio_output@@V?$standard_base@DV?$string_output_adapter@D@__crt_stdio_output@@@2@@__crt_stdio_output@@AEAA_NXZ 00000001400297d8 f i libucrt:output.obj
 0001:00028810       ?state_case_flag@?$output_processor@_WV?$stream_output_adapter@_W@__crt_stdio_output@@V?$format_validation_base@_WV?$stream_output_adapter@_W@__crt_stdio_output@@@2@@__crt_stdio_output@@AEAA_NXZ 0000000140029810 f i libucrt:output.obj
 0001:00028854       ?state_case_flag@?$output_processor@_WV?$stream_output_adapter@_W@__crt_stdio_output@@V?$positional_parameter_base@_WV?$stream_output_adapter@_W@__crt_stdio_output@@@2@@__crt_stdio_output@@AEAA_NXZ 0000000140029854 f i libucrt:output.obj
 0001:00028898       ?state_case_flag@?$output_processor@_WV?$stream_output_adapter@_W@__crt_stdio_output@@V?$standard_base@_WV?$stream_output_adapter@_W@__crt_stdio_output@@@2@@__crt_stdio_output@@AEAA_NXZ 0000000140029898 f i libucrt:output.obj
 0001:000288dc       ?state_case_flag@?$output_processor@_WV?$string_output_adapter@_W@__crt_stdio_output@@V?$format_validation_base@_WV?$string_output_adapter@_W@__crt_stdio_output@@@2@@__crt_stdio_output@@AEAA_NXZ 00000001400298dc f i libucrt:output.obj
 0001:00028920       ?state_case_flag@?$output_processor@_WV?$string_output_adapter@_W@__crt_stdio_output@@V?$positional_parameter_base@_WV?$string_output_adapter@_W@__crt_stdio_output@@@2@@__crt_stdio_output@@AEAA_NXZ 0000000140029920 f i libucrt:output.obj
 0001:00028964       ?state_case_flag@?$output_processor@_WV?$string_output_adapter@_W@__crt_stdio_output@@V?$standard_base@_WV?$string_output_adapter@_W@__crt_stdio_output@@@2@@__crt_stdio_output@@AEAA_NXZ 0000000140029964 f i libucrt:output.obj
 0001:000289a8       ?state_case_normal@?$output_processor@DV?$stream_output_adapter@D@__crt_stdio_output@@V?$format_validation_base@DV?$stream_output_adapter@D@__crt_stdio_output@@@2@@__crt_stdio_output@@AEAA_NXZ 00000001400299a8 f i libucrt:output.obj
 0001:00028afc       ?state_case_normal@?$output_processor@DV?$stream_output_adapter@D@__crt_stdio_output@@V?$positional_parameter_base@DV?$stream_output_adapter@D@__crt_stdio_output@@@2@@__crt_stdio_output@@AEAA_NXZ 0000000140029afc f i libucrt:output.obj
 0001:00028c7c       ?state_case_normal@?$output_processor@DV?$stream_output_adapter@D@__crt_stdio_output@@V?$standard_base@DV?$stream_output_adapter@D@__crt_stdio_output@@@2@@__crt_stdio_output@@AEAA_NXZ 0000000140029c7c f i libucrt:output.obj
 0001:00028dd0       ?state_case_normal@?$output_processor@DV?$string_output_adapter@D@__crt_stdio_output@@V?$format_validation_base@DV?$string_output_adapter@D@__crt_stdio_output@@@2@@__crt_stdio_output@@AEAA_NXZ 0000000140029dd0 f i libucrt:output.obj
 0001:00028f1c       ?state_case_normal@?$output_processor@DV?$string_output_adapter@D@__crt_stdio_output@@V?$positional_parameter_base@DV?$string_output_adapter@D@__crt_stdio_output@@@2@@__crt_stdio_output@@AEAA_NXZ 0000000140029f1c f i libucrt:output.obj
 0001:00029094       ?state_case_normal@?$output_processor@DV?$string_output_adapter@D@__crt_stdio_output@@V?$standard_base@DV?$string_output_adapter@D@__crt_stdio_output@@@2@@__crt_stdio_output@@AEAA_NXZ 000000014002a094 f i libucrt:output.obj
 0001:000291e0       ?state_case_normal@?$output_processor@_WV?$stream_output_adapter@_W@__crt_stdio_output@@V?$format_validation_base@_WV?$stream_output_adapter@_W@__crt_stdio_output@@@2@@__crt_stdio_output@@AEAA_NXZ 000000014002a1e0 f i libucrt:output.obj
 0001:00029240       ?state_case_normal@?$output_processor@_WV?$stream_output_adapter@_W@__crt_stdio_output@@V?$positional_parameter_base@_WV?$stream_output_adapter@_W@__crt_stdio_output@@@2@@__crt_stdio_output@@AEAA_NXZ 000000014002a240 f i libucrt:output.obj
 0001:000292c4       ?state_case_normal@?$output_processor@_WV?$stream_output_adapter@_W@__crt_stdio_output@@V?$standard_base@_WV?$stream_output_adapter@_W@__crt_stdio_output@@@2@@__crt_stdio_output@@AEAA_NXZ 000000014002a2c4 f i libucrt:output.obj
 0001:00029324       ?state_case_normal@?$output_processor@_WV?$string_output_adapter@_W@__crt_stdio_output@@V?$format_validation_base@_WV?$string_output_adapter@_W@__crt_stdio_output@@@2@@__crt_stdio_output@@AEAA_NXZ 000000014002a324 f i libucrt:output.obj
 0001:00029378       ?state_case_normal@?$output_processor@_WV?$string_output_adapter@_W@__crt_stdio_output@@V?$positional_parameter_base@_WV?$string_output_adapter@_W@__crt_stdio_output@@@2@@__crt_stdio_output@@AEAA_NXZ 000000014002a378 f i libucrt:output.obj
 0001:000293f0       ?state_case_normal@?$output_processor@_WV?$string_output_adapter@_W@__crt_stdio_output@@V?$standard_base@_WV?$string_output_adapter@_W@__crt_stdio_output@@@2@@__crt_stdio_output@@AEAA_NXZ 000000014002a3f0 f i libucrt:output.obj
 0001:00029444       ?state_case_normal_common@?$output_processor@DV?$stream_output_adapter@D@__crt_stdio_output@@V?$format_validation_base@DV?$stream_output_adapter@D@__crt_stdio_output@@@2@@__crt_stdio_output@@AEAA_NXZ 000000014002a444 f i libucrt:output.obj
 0001:00029570       ?state_case_normal_common@?$output_processor@DV?$stream_output_adapter@D@__crt_stdio_output@@V?$positional_parameter_base@DV?$stream_output_adapter@D@__crt_stdio_output@@@2@@__crt_stdio_output@@AEAA_NXZ 000000014002a570 f i libucrt:output.obj
 0001:0002969c       ?state_case_normal_common@?$output_processor@DV?$stream_output_adapter@D@__crt_stdio_output@@V?$standard_base@DV?$stream_output_adapter@D@__crt_stdio_output@@@2@@__crt_stdio_output@@AEAA_NXZ 000000014002a69c f i libucrt:output.obj
 0001:000297c8       ?state_case_normal_common@?$output_processor@DV?$string_output_adapter@D@__crt_stdio_output@@V?$format_validation_base@DV?$string_output_adapter@D@__crt_stdio_output@@@2@@__crt_stdio_output@@AEAA_NXZ 000000014002a7c8 f i libucrt:output.obj
 0001:000298ec       ?state_case_normal_common@?$output_processor@DV?$string_output_adapter@D@__crt_stdio_output@@V?$positional_parameter_base@DV?$string_output_adapter@D@__crt_stdio_output@@@2@@__crt_stdio_output@@AEAA_NXZ 000000014002a8ec f i libucrt:output.obj
 0001:00029a10       ?state_case_normal_common@?$output_processor@DV?$string_output_adapter@D@__crt_stdio_output@@V?$standard_base@DV?$string_output_adapter@D@__crt_stdio_output@@@2@@__crt_stdio_output@@AEAA_NXZ 000000014002aa10 f i libucrt:output.obj
 0001:00029b34       ?state_case_normal_common@?$output_processor@_WV?$stream_output_adapter@_W@__crt_stdio_output@@V?$format_validation_base@_WV?$stream_output_adapter@_W@__crt_stdio_output@@@2@@__crt_stdio_output@@AEAA_NXZ 000000014002ab34 f i libucrt:output.obj
 0001:00029b94       ?state_case_normal_common@?$output_processor@_WV?$stream_output_adapter@_W@__crt_stdio_output@@V?$positional_parameter_base@_WV?$stream_output_adapter@_W@__crt_stdio_output@@@2@@__crt_stdio_output@@AEAA_NXZ 000000014002ab94 f i libucrt:output.obj
 0001:00029bf4       ?state_case_normal_common@?$output_processor@_WV?$stream_output_adapter@_W@__crt_stdio_output@@V?$standard_base@_WV?$stream_output_adapter@_W@__crt_stdio_output@@@2@@__crt_stdio_output@@AEAA_NXZ 000000014002abf4 f i libucrt:output.obj
 0001:00029c54       ?state_case_normal_common@?$output_processor@_WV?$string_output_adapter@_W@__crt_stdio_output@@V?$format_validation_base@_WV?$string_output_adapter@_W@__crt_stdio_output@@@2@@__crt_stdio_output@@AEAA_NXZ 000000014002ac54 f i libucrt:output.obj
 0001:00029ca8       ?state_case_normal_common@?$output_processor@_WV?$string_output_adapter@_W@__crt_stdio_output@@V?$positional_parameter_base@_WV?$string_output_adapter@_W@__crt_stdio_output@@@2@@__crt_stdio_output@@AEAA_NXZ 000000014002aca8 f i libucrt:output.obj
 0001:00029cfc       ?state_case_normal_common@?$output_processor@_WV?$string_output_adapter@_W@__crt_stdio_output@@V?$standard_base@_WV?$string_output_adapter@_W@__crt_stdio_output@@@2@@__crt_stdio_output@@AEAA_NXZ 000000014002acfc f i libucrt:output.obj
 0001:00029d50       ?state_case_normal_tchar@?$output_processor@DV?$stream_output_adapter@D@__crt_stdio_output@@V?$format_validation_base@DV?$stream_output_adapter@D@__crt_stdio_output@@@2@@__crt_stdio_output@@AEAA_ND@Z 000000014002ad50 f i libucrt:output.obj
 0001:00029e30       ?state_case_normal_tchar@?$output_processor@DV?$stream_output_adapter@D@__crt_stdio_output@@V?$positional_parameter_base@DV?$stream_output_adapter@D@__crt_stdio_output@@@2@@__crt_stdio_output@@AEAA_ND@Z 000000014002ae30 f i libucrt:output.obj
 0001:00029f10       ?state_case_normal_tchar@?$output_processor@DV?$stream_output_adapter@D@__crt_stdio_output@@V?$standard_base@DV?$stream_output_adapter@D@__crt_stdio_output@@@2@@__crt_stdio_output@@AEAA_ND@Z 000000014002af10 f i libucrt:output.obj
 0001:00029ff0       ?state_case_normal_tchar@?$output_processor@DV?$string_output_adapter@D@__crt_stdio_output@@V?$format_validation_base@DV?$string_output_adapter@D@__crt_stdio_output@@@2@@__crt_stdio_output@@AEAA_ND@Z 000000014002aff0 f i libucrt:output.obj
 0001:0002a0cc       ?state_case_normal_tchar@?$output_processor@DV?$string_output_adapter@D@__crt_stdio_output@@V?$positional_parameter_base@DV?$string_output_adapter@D@__crt_stdio_output@@@2@@__crt_stdio_output@@AEAA_ND@Z 000000014002b0cc f i libucrt:output.obj
 0001:0002a1a8       ?state_case_normal_tchar@?$output_processor@DV?$string_output_adapter@D@__crt_stdio_output@@V?$standard_base@DV?$string_output_adapter@D@__crt_stdio_output@@@2@@__crt_stdio_output@@AEAA_ND@Z 000000014002b1a8 f i libucrt:output.obj
 0001:0002a284       ?state_case_normal_tchar@?$output_processor@_WV?$stream_output_adapter@_W@__crt_stdio_output@@V?$format_validation_base@_WV?$stream_output_adapter@_W@__crt_stdio_output@@@2@@__crt_stdio_output@@AEAA_N_W@Z 000000014002b284 f i libucrt:output.obj
 0001:0002a28c       ?state_case_normal_tchar@?$output_processor@_WV?$stream_output_adapter@_W@__crt_stdio_output@@V?$positional_parameter_base@_WV?$stream_output_adapter@_W@__crt_stdio_output@@@2@@__crt_stdio_output@@AEAA_N_W@Z 000000014002b28c f i libucrt:output.obj
 0001:0002a294       ?state_case_normal_tchar@?$output_processor@_WV?$stream_output_adapter@_W@__crt_stdio_output@@V?$standard_base@_WV?$stream_output_adapter@_W@__crt_stdio_output@@@2@@__crt_stdio_output@@AEAA_N_W@Z 000000014002b294 f i libucrt:output.obj
 0001:0002a29c       ?state_case_normal_tchar@?$output_processor@_WV?$string_output_adapter@_W@__crt_stdio_output@@V?$format_validation_base@_WV?$string_output_adapter@_W@__crt_stdio_output@@@2@@__crt_stdio_output@@AEAA_N_W@Z 000000014002b29c f i libucrt:output.obj
 0001:0002a2a4       ?state_case_normal_tchar@?$output_processor@_WV?$string_output_adapter@_W@__crt_stdio_output@@V?$positional_parameter_base@_WV?$string_output_adapter@_W@__crt_stdio_output@@@2@@__crt_stdio_output@@AEAA_N_W@Z 000000014002b2a4 f i libucrt:output.obj
 0001:0002a2ac       ?state_case_normal_tchar@?$output_processor@_WV?$string_output_adapter@_W@__crt_stdio_output@@V?$standard_base@_WV?$string_output_adapter@_W@__crt_stdio_output@@@2@@__crt_stdio_output@@AEAA_N_W@Z 000000014002b2ac f i libucrt:output.obj
 0001:0002a2b4       ?state_case_percent@?$output_processor@DV?$stream_output_adapter@D@__crt_stdio_output@@V?$format_validation_base@DV?$stream_output_adapter@D@__crt_stdio_output@@@2@@__crt_stdio_output@@AEAA_NXZ 000000014002b2b4 f i libucrt:output.obj
 0001:0002a2cc       ?state_case_percent@?$output_processor@DV?$stream_output_adapter@D@__crt_stdio_output@@V?$positional_parameter_base@DV?$stream_output_adapter@D@__crt_stdio_output@@@2@@__crt_stdio_output@@AEAA_NXZ 000000014002b2cc f i libucrt:output.obj
 0001:0002a2e4       ?state_case_percent@?$output_processor@DV?$stream_output_adapter@D@__crt_stdio_output@@V?$standard_base@DV?$stream_output_adapter@D@__crt_stdio_output@@@2@@__crt_stdio_output@@AEAA_NXZ 000000014002b2e4 f i libucrt:output.obj
 0001:0002a2fc       ?state_case_percent@?$output_processor@DV?$string_output_adapter@D@__crt_stdio_output@@V?$format_validation_base@DV?$string_output_adapter@D@__crt_stdio_output@@@2@@__crt_stdio_output@@AEAA_NXZ 000000014002b2fc f i libucrt:output.obj
 0001:0002a314       ?state_case_percent@?$output_processor@DV?$string_output_adapter@D@__crt_stdio_output@@V?$positional_parameter_base@DV?$string_output_adapter@D@__crt_stdio_output@@@2@@__crt_stdio_output@@AEAA_NXZ 000000014002b314 f i libucrt:output.obj
 0001:0002a32c       ?state_case_percent@?$output_processor@DV?$string_output_adapter@D@__crt_stdio_output@@V?$standard_base@DV?$string_output_adapter@D@__crt_stdio_output@@@2@@__crt_stdio_output@@AEAA_NXZ 000000014002b32c f i libucrt:output.obj
 0001:0002a344       ?state_case_percent@?$output_processor@_WV?$stream_output_adapter@_W@__crt_stdio_output@@V?$format_validation_base@_WV?$stream_output_adapter@_W@__crt_stdio_output@@@2@@__crt_stdio_output@@AEAA_NXZ 000000014002b344 f i libucrt:output.obj
 0001:0002a35c       ?state_case_percent@?$output_processor@_WV?$stream_output_adapter@_W@__crt_stdio_output@@V?$positional_parameter_base@_WV?$stream_output_adapter@_W@__crt_stdio_output@@@2@@__crt_stdio_output@@AEAA_NXZ 000000014002b35c f i libucrt:output.obj
 0001:0002a374       ?state_case_percent@?$output_processor@_WV?$stream_output_adapter@_W@__crt_stdio_output@@V?$standard_base@_WV?$stream_output_adapter@_W@__crt_stdio_output@@@2@@__crt_stdio_output@@AEAA_NXZ 000000014002b374 f i libucrt:output.obj
 0001:0002a38c       ?state_case_percent@?$output_processor@_WV?$string_output_adapter@_W@__crt_stdio_output@@V?$format_validation_base@_WV?$string_output_adapter@_W@__crt_stdio_output@@@2@@__crt_stdio_output@@AEAA_NXZ 000000014002b38c f i libucrt:output.obj
 0001:0002a3a4       ?state_case_percent@?$output_processor@_WV?$string_output_adapter@_W@__crt_stdio_output@@V?$positional_parameter_base@_WV?$string_output_adapter@_W@__crt_stdio_output@@@2@@__crt_stdio_output@@AEAA_NXZ 000000014002b3a4 f i libucrt:output.obj
 0001:0002a3bc       ?state_case_percent@?$output_processor@_WV?$string_output_adapter@_W@__crt_stdio_output@@V?$standard_base@_WV?$string_output_adapter@_W@__crt_stdio_output@@@2@@__crt_stdio_output@@AEAA_NXZ 000000014002b3bc f i libucrt:output.obj
 0001:0002a3d4       ?state_case_precision@?$output_processor@DV?$stream_output_adapter@D@__crt_stdio_output@@V?$format_validation_base@DV?$stream_output_adapter@D@__crt_stdio_output@@@2@@__crt_stdio_output@@AEAA_NXZ 000000014002b3d4 f i libucrt:output.obj
 0001:0002a400       ?state_case_precision@?$output_processor@DV?$stream_output_adapter@D@__crt_stdio_output@@V?$positional_parameter_base@DV?$stream_output_adapter@D@__crt_stdio_output@@@2@@__crt_stdio_output@@AEAA_NXZ 000000014002b400 f i libucrt:output.obj
 0001:0002a44c       ?state_case_precision@?$output_processor@DV?$stream_output_adapter@D@__crt_stdio_output@@V?$standard_base@DV?$stream_output_adapter@D@__crt_stdio_output@@@2@@__crt_stdio_output@@AEAA_NXZ 000000014002b44c f i libucrt:output.obj
 0001:0002a478       ?state_case_precision@?$output_processor@DV?$string_output_adapter@D@__crt_stdio_output@@V?$format_validation_base@DV?$string_output_adapter@D@__crt_stdio_output@@@2@@__crt_stdio_output@@AEAA_NXZ 000000014002b478 f i libucrt:output.obj
 0001:0002a4a4       ?state_case_precision@?$output_processor@DV?$string_output_adapter@D@__crt_stdio_output@@V?$positional_parameter_base@DV?$string_output_adapter@D@__crt_stdio_output@@@2@@__crt_stdio_output@@AEAA_NXZ 000000014002b4a4 f i libucrt:output.obj
 0001:0002a4f0       ?state_case_precision@?$output_processor@DV?$string_output_adapter@D@__crt_stdio_output@@V?$standard_base@DV?$string_output_adapter@D@__crt_stdio_output@@@2@@__crt_stdio_output@@AEAA_NXZ 000000014002b4f0 f i libucrt:output.obj
 0001:0002a51c       ?state_case_precision@?$output_processor@_WV?$stream_output_adapter@_W@__crt_stdio_output@@V?$format_validation_base@_WV?$stream_output_adapter@_W@__crt_stdio_output@@@2@@__crt_stdio_output@@AEAA_NXZ 000000014002b51c f i libucrt:output.obj
 0001:0002a548       ?state_case_precision@?$output_processor@_WV?$stream_output_adapter@_W@__crt_stdio_output@@V?$positional_parameter_base@_WV?$stream_output_adapter@_W@__crt_stdio_output@@@2@@__crt_stdio_output@@AEAA_NXZ 000000014002b548 f i libucrt:output.obj
 0001:0002a594       ?state_case_precision@?$output_processor@_WV?$stream_output_adapter@_W@__crt_stdio_output@@V?$standard_base@_WV?$stream_output_adapter@_W@__crt_stdio_output@@@2@@__crt_stdio_output@@AEAA_NXZ 000000014002b594 f i libucrt:output.obj
 0001:0002a5c0       ?state_case_precision@?$output_processor@_WV?$string_output_adapter@_W@__crt_stdio_output@@V?$format_validation_base@_WV?$string_output_adapter@_W@__crt_stdio_output@@@2@@__crt_stdio_output@@AEAA_NXZ 000000014002b5c0 f i libucrt:output.obj
 0001:0002a5ec       ?state_case_precision@?$output_processor@_WV?$string_output_adapter@_W@__crt_stdio_output@@V?$positional_parameter_base@_WV?$string_output_adapter@_W@__crt_stdio_output@@@2@@__crt_stdio_output@@AEAA_NXZ 000000014002b5ec f i libucrt:output.obj
 0001:0002a638       ?state_case_precision@?$output_processor@_WV?$string_output_adapter@_W@__crt_stdio_output@@V?$standard_base@_WV?$string_output_adapter@_W@__crt_stdio_output@@@2@@__crt_stdio_output@@AEAA_NXZ 000000014002b638 f i libucrt:output.obj
 0001:0002a664       ?state_case_size@?$output_processor@DV?$stream_output_adapter@D@__crt_stdio_output@@V?$format_validation_base@DV?$stream_output_adapter@D@__crt_stdio_output@@@2@@__crt_stdio_output@@AEAA_NXZ 000000014002b664 f i libucrt:output.obj
 0001:0002a7ec       ?state_case_size@?$output_processor@DV?$stream_output_adapter@D@__crt_stdio_output@@V?$positional_parameter_base@DV?$stream_output_adapter@D@__crt_stdio_output@@@2@@__crt_stdio_output@@AEAA_NXZ 000000014002b7ec f i libucrt:output.obj
 0001:0002a974       ?state_case_size@?$output_processor@DV?$stream_output_adapter@D@__crt_stdio_output@@V?$standard_base@DV?$stream_output_adapter@D@__crt_stdio_output@@@2@@__crt_stdio_output@@AEAA_NXZ 000000014002b974 f i libucrt:output.obj
 0001:0002aafc       ?state_case_size@?$output_processor@DV?$string_output_adapter@D@__crt_stdio_output@@V?$format_validation_base@DV?$string_output_adapter@D@__crt_stdio_output@@@2@@__crt_stdio_output@@AEAA_NXZ 000000014002bafc f i libucrt:output.obj
 0001:0002ac84       ?state_case_size@?$output_processor@DV?$string_output_adapter@D@__crt_stdio_output@@V?$positional_parameter_base@DV?$string_output_adapter@D@__crt_stdio_output@@@2@@__crt_stdio_output@@AEAA_NXZ 000000014002bc84 f i libucrt:output.obj
 0001:0002ae0c       ?state_case_size@?$output_processor@DV?$string_output_adapter@D@__crt_stdio_output@@V?$standard_base@DV?$string_output_adapter@D@__crt_stdio_output@@@2@@__crt_stdio_output@@AEAA_NXZ 000000014002be0c f i libucrt:output.obj
 0001:0002af94       ?state_case_size@?$output_processor@_WV?$stream_output_adapter@_W@__crt_stdio_output@@V?$format_validation_base@_WV?$stream_output_adapter@_W@__crt_stdio_output@@@2@@__crt_stdio_output@@AEAA_NXZ 000000014002bf94 f i libucrt:output.obj
 0001:0002b144       ?state_case_size@?$output_processor@_WV?$stream_output_adapter@_W@__crt_stdio_output@@V?$positional_parameter_base@_WV?$stream_output_adapter@_W@__crt_stdio_output@@@2@@__crt_stdio_output@@AEAA_NXZ 000000014002c144 f i libucrt:output.obj
 0001:0002b2f4       ?state_case_size@?$output_processor@_WV?$stream_output_adapter@_W@__crt_stdio_output@@V?$standard_base@_WV?$stream_output_adapter@_W@__crt_stdio_output@@@2@@__crt_stdio_output@@AEAA_NXZ 000000014002c2f4 f i libucrt:output.obj
 0001:0002b4a4       ?state_case_size@?$output_processor@_WV?$string_output_adapter@_W@__crt_stdio_output@@V?$format_validation_base@_WV?$string_output_adapter@_W@__crt_stdio_output@@@2@@__crt_stdio_output@@AEAA_NXZ 000000014002c4a4 f i libucrt:output.obj
 0001:0002b654       ?state_case_size@?$output_processor@_WV?$string_output_adapter@_W@__crt_stdio_output@@V?$positional_parameter_base@_WV?$string_output_adapter@_W@__crt_stdio_output@@@2@@__crt_stdio_output@@AEAA_NXZ 000000014002c654 f i libucrt:output.obj
 0001:0002b804       ?state_case_size@?$output_processor@_WV?$string_output_adapter@_W@__crt_stdio_output@@V?$standard_base@_WV?$string_output_adapter@_W@__crt_stdio_output@@@2@@__crt_stdio_output@@AEAA_NXZ 000000014002c804 f i libucrt:output.obj
 0001:0002b9b4       ?state_case_type@?$output_processor@DV?$stream_output_adapter@D@__crt_stdio_output@@V?$format_validation_base@DV?$stream_output_adapter@D@__crt_stdio_output@@@2@@__crt_stdio_output@@AEAA_NXZ 000000014002c9b4 f i libucrt:output.obj
 0001:0002beec       ?state_case_type@?$output_processor@DV?$stream_output_adapter@D@__crt_stdio_output@@V?$positional_parameter_base@DV?$stream_output_adapter@D@__crt_stdio_output@@@2@@__crt_stdio_output@@AEAA_NXZ 000000014002ceec f i libucrt:output.obj
 0001:0002c43c       ?state_case_type@?$output_processor@DV?$stream_output_adapter@D@__crt_stdio_output@@V?$standard_base@DV?$stream_output_adapter@D@__crt_stdio_output@@@2@@__crt_stdio_output@@AEAA_NXZ 000000014002d43c f i libucrt:output.obj
 0001:0002c974       ?state_case_type@?$output_processor@DV?$string_output_adapter@D@__crt_stdio_output@@V?$format_validation_base@DV?$string_output_adapter@D@__crt_stdio_output@@@2@@__crt_stdio_output@@AEAA_NXZ 000000014002d974 f i libucrt:output.obj
 0001:0002cde4       ?state_case_type@?$output_processor@DV?$string_output_adapter@D@__crt_stdio_output@@V?$positional_parameter_base@DV?$string_output_adapter@D@__crt_stdio_output@@@2@@__crt_stdio_output@@AEAA_NXZ 000000014002dde4 f i libucrt:output.obj
 0001:0002d294       ?state_case_type@?$output_processor@DV?$string_output_adapter@D@__crt_stdio_output@@V?$standard_base@DV?$string_output_adapter@D@__crt_stdio_output@@@2@@__crt_stdio_output@@AEAA_NXZ 000000014002e294 f i libucrt:output.obj
 0001:0002d704       ?state_case_type@?$output_processor@_WV?$stream_output_adapter@_W@__crt_stdio_output@@V?$format_validation_base@_WV?$stream_output_adapter@_W@__crt_stdio_output@@@2@@__crt_stdio_output@@AEAA_NXZ 000000014002e704 f i libucrt:output.obj
 0001:0002dd00       ?state_case_type@?$output_processor@_WV?$stream_output_adapter@_W@__crt_stdio_output@@V?$positional_parameter_base@_WV?$stream_output_adapter@_W@__crt_stdio_output@@@2@@__crt_stdio_output@@AEAA_NXZ 000000014002ed00 f i libucrt:output.obj
 0001:0002e338       ?state_case_type@?$output_processor@_WV?$stream_output_adapter@_W@__crt_stdio_output@@V?$standard_base@_WV?$stream_output_adapter@_W@__crt_stdio_output@@@2@@__crt_stdio_output@@AEAA_NXZ 000000014002f338 f i libucrt:output.obj
 0001:0002e934       ?state_case_type@?$output_processor@_WV?$string_output_adapter@_W@__crt_stdio_output@@V?$format_validation_base@_WV?$string_output_adapter@_W@__crt_stdio_output@@@2@@__crt_stdio_output@@AEAA_NXZ 000000014002f934 f i libucrt:output.obj
 0001:0002eeac       ?state_case_type@?$output_processor@_WV?$string_output_adapter@_W@__crt_stdio_output@@V?$positional_parameter_base@_WV?$string_output_adapter@_W@__crt_stdio_output@@@2@@__crt_stdio_output@@AEAA_NXZ 000000014002feac f i libucrt:output.obj
 0001:0002f438       ?state_case_type@?$output_processor@_WV?$string_output_adapter@_W@__crt_stdio_output@@V?$standard_base@_WV?$string_output_adapter@_W@__crt_stdio_output@@@2@@__crt_stdio_output@@AEAA_NXZ 0000000140030438 f i libucrt:output.obj
 0001:0002f9b0       ?state_case_width@?$output_processor@DV?$stream_output_adapter@D@__crt_stdio_output@@V?$format_validation_base@DV?$stream_output_adapter@D@__crt_stdio_output@@@2@@__crt_stdio_output@@AEAA_NXZ 00000001400309b0 f i libucrt:output.obj
 0001:0002f9e4       ?state_case_width@?$output_processor@DV?$stream_output_adapter@D@__crt_stdio_output@@V?$positional_parameter_base@DV?$stream_output_adapter@D@__crt_stdio_output@@@2@@__crt_stdio_output@@AEAA_NXZ 00000001400309e4 f i libucrt:output.obj
 0001:0002fa34       ?state_case_width@?$output_processor@DV?$stream_output_adapter@D@__crt_stdio_output@@V?$standard_base@DV?$stream_output_adapter@D@__crt_stdio_output@@@2@@__crt_stdio_output@@AEAA_NXZ 0000000140030a34 f i libucrt:output.obj
 0001:0002fa68       ?state_case_width@?$output_processor@DV?$string_output_adapter@D@__crt_stdio_output@@V?$format_validation_base@DV?$string_output_adapter@D@__crt_stdio_output@@@2@@__crt_stdio_output@@AEAA_NXZ 0000000140030a68 f i libucrt:output.obj
 0001:0002fa9c       ?state_case_width@?$output_processor@DV?$string_output_adapter@D@__crt_stdio_output@@V?$positional_parameter_base@DV?$string_output_adapter@D@__crt_stdio_output@@@2@@__crt_stdio_output@@AEAA_NXZ 0000000140030a9c f i libucrt:output.obj
 0001:0002faec       ?state_case_width@?$output_processor@DV?$string_output_adapter@D@__crt_stdio_output@@V?$standard_base@DV?$string_output_adapter@D@__crt_stdio_output@@@2@@__crt_stdio_output@@AEAA_NXZ 0000000140030aec f i libucrt:output.obj
 0001:0002fb20       ?state_case_width@?$output_processor@_WV?$stream_output_adapter@_W@__crt_stdio_output@@V?$format_validation_base@_WV?$stream_output_adapter@_W@__crt_stdio_output@@@2@@__crt_stdio_output@@AEAA_NXZ 0000000140030b20 f i libucrt:output.obj
 0001:0002fb54       ?state_case_width@?$output_processor@_WV?$stream_output_adapter@_W@__crt_stdio_output@@V?$positional_parameter_base@_WV?$stream_output_adapter@_W@__crt_stdio_output@@@2@@__crt_stdio_output@@AEAA_NXZ 0000000140030b54 f i libucrt:output.obj
 0001:0002fba8       ?state_case_width@?$output_processor@_WV?$stream_output_adapter@_W@__crt_stdio_output@@V?$standard_base@_WV?$stream_output_adapter@_W@__crt_stdio_output@@@2@@__crt_stdio_output@@AEAA_NXZ 0000000140030ba8 f i libucrt:output.obj
 0001:0002fbdc       ?state_case_width@?$output_processor@_WV?$string_output_adapter@_W@__crt_stdio_output@@V?$format_validation_base@_WV?$string_output_adapter@_W@__crt_stdio_output@@@2@@__crt_stdio_output@@AEAA_NXZ 0000000140030bdc f i libucrt:output.obj
 0001:0002fc10       ?state_case_width@?$output_processor@_WV?$string_output_adapter@_W@__crt_stdio_output@@V?$positional_parameter_base@_WV?$string_output_adapter@_W@__crt_stdio_output@@@2@@__crt_stdio_output@@AEAA_NXZ 0000000140030c10 f i libucrt:output.obj
 0001:0002fc64       ?state_case_width@?$output_processor@_WV?$string_output_adapter@_W@__crt_stdio_output@@V?$standard_base@_WV?$string_output_adapter@_W@__crt_stdio_output@@@2@@__crt_stdio_output@@AEAA_NXZ 0000000140030c64 f i libucrt:output.obj
 0001:0002fc98       ?state_count@?$format_validation_base@DV?$stream_output_adapter@D@__crt_stdio_output@@@__crt_stdio_output@@KAIXZ 0000000140030c98 f i libucrt:output.obj
 0001:0002fca0       ?state_count@?$format_validation_base@DV?$string_output_adapter@D@__crt_stdio_output@@@__crt_stdio_output@@KAIXZ 0000000140030ca0 f i libucrt:output.obj
 0001:0002fca8       ?state_count@?$format_validation_base@_WV?$stream_output_adapter@_W@__crt_stdio_output@@@__crt_stdio_output@@KAIXZ 0000000140030ca8 f i libucrt:output.obj
 0001:0002fcb0       ?state_count@?$format_validation_base@_WV?$string_output_adapter@_W@__crt_stdio_output@@@__crt_stdio_output@@KAIXZ 0000000140030cb0 f i libucrt:output.obj
 0001:0002fcb8       ?state_count@?$standard_base@DV?$stream_output_adapter@D@__crt_stdio_output@@@__crt_stdio_output@@KAIXZ 0000000140030cb8 f i libucrt:output.obj
 0001:0002fcc0       ?state_count@?$standard_base@DV?$string_output_adapter@D@__crt_stdio_output@@@__crt_stdio_output@@KAIXZ 0000000140030cc0 f i libucrt:output.obj
 0001:0002fcc8       ?state_count@?$standard_base@_WV?$stream_output_adapter@_W@__crt_stdio_output@@@__crt_stdio_output@@KAIXZ 0000000140030cc8 f i libucrt:output.obj
 0001:0002fcd0       ?state_count@?$standard_base@_WV?$string_output_adapter@_W@__crt_stdio_output@@@__crt_stdio_output@@KAIXZ 0000000140030cd0 f i libucrt:output.obj
 0001:0002fcd8       ?state_transition_table@?$format_validation_base@DV?$stream_output_adapter@D@__crt_stdio_output@@@__crt_stdio_output@@KAAEBV?$spectre_mitigated_lookup_table@Ustate_transition_pair@__crt_stdio_output@@$0IA@@2@XZ 0000000140030cd8 f i libucrt:output.obj
 0001:0002fce0       ?state_transition_table@?$format_validation_base@DV?$string_output_adapter@D@__crt_stdio_output@@@__crt_stdio_output@@KAAEBV?$spectre_mitigated_lookup_table@Ustate_transition_pair@__crt_stdio_output@@$0IA@@2@XZ 0000000140030ce0 f i libucrt:output.obj
 0001:0002fce8       ?state_transition_table@?$format_validation_base@_WV?$stream_output_adapter@_W@__crt_stdio_output@@@__crt_stdio_output@@KAAEBV?$spectre_mitigated_lookup_table@Ustate_transition_pair@__crt_stdio_output@@$0IA@@2@XZ 0000000140030ce8 f i libucrt:output.obj
 0001:0002fcf0       ?state_transition_table@?$format_validation_base@_WV?$string_output_adapter@_W@__crt_stdio_output@@@__crt_stdio_output@@KAAEBV?$spectre_mitigated_lookup_table@Ustate_transition_pair@__crt_stdio_output@@$0IA@@2@XZ 0000000140030cf0 f i libucrt:output.obj
 0001:0002fcf8       ?state_transition_table@?$standard_base@DV?$stream_output_adapter@D@__crt_stdio_output@@@__crt_stdio_output@@KAAEBV?$spectre_mitigated_lookup_table@Ustate_transition_pair@__crt_stdio_output@@$0IA@@2@XZ 0000000140030cf8 f i libucrt:output.obj
 0001:0002fd00       ?state_transition_table@?$standard_base@DV?$string_output_adapter@D@__crt_stdio_output@@@__crt_stdio_output@@KAAEBV?$spectre_mitigated_lookup_table@Ustate_transition_pair@__crt_stdio_output@@$0IA@@2@XZ 0000000140030d00 f i libucrt:output.obj
 0001:0002fd08       ?state_transition_table@?$standard_base@_WV?$stream_output_adapter@_W@__crt_stdio_output@@@__crt_stdio_output@@KAAEBV?$spectre_mitigated_lookup_table@Ustate_transition_pair@__crt_stdio_output@@$0IA@@2@XZ 0000000140030d08 f i libucrt:output.obj
 0001:0002fd10       ?state_transition_table@?$standard_base@_WV?$string_output_adapter@_W@__crt_stdio_output@@@__crt_stdio_output@@KAAEBV?$spectre_mitigated_lookup_table@Ustate_transition_pair@__crt_stdio_output@@$0IA@@2@XZ 0000000140030d10 f i libucrt:output.obj
 0001:0002fd18       ?tchar_string@?$common_data@D@__crt_stdio_output@@IEAAAEAPEADD@Z 0000000140030d18 f i libucrt:output.obj
 0001:0002fd20       ?tchar_string@?$common_data@D@__crt_stdio_output@@IEAAAEAPEADXZ 0000000140030d20 f i libucrt:output.obj
 0001:0002fd28       ?tchar_string@?$common_data@_W@__crt_stdio_output@@IEAAAEAPEA_WXZ 0000000140030d28 f i libucrt:output.obj
 0001:0002fd30       ?tchar_string@?$common_data@_W@__crt_stdio_output@@IEAAAEAPEA_W_W@Z 0000000140030d30 f i libucrt:output.obj
 0001:0002fd38       ?to_integer_size@__crt_stdio_output@@YA_KW4length_modifier@1@@Z 0000000140030d38 f i libucrt:output.obj
 0001:0002fd80       ?type_case_X@?$output_processor@DV?$stream_output_adapter@D@__crt_stdio_output@@V?$format_validation_base@DV?$stream_output_adapter@D@__crt_stdio_output@@@2@@__crt_stdio_output@@AEAA_NXZ 0000000140030d80 f i libucrt:output.obj
 0001:0002fd88       ?type_case_X@?$output_processor@DV?$stream_output_adapter@D@__crt_stdio_output@@V?$positional_parameter_base@DV?$stream_output_adapter@D@__crt_stdio_output@@@2@@__crt_stdio_output@@AEAA_NXZ 0000000140030d88 f i libucrt:output.obj
 0001:0002fd90       ?type_case_X@?$output_processor@DV?$stream_output_adapter@D@__crt_stdio_output@@V?$standard_base@DV?$stream_output_adapter@D@__crt_stdio_output@@@2@@__crt_stdio_output@@AEAA_NXZ 0000000140030d90 f i libucrt:output.obj
 0001:0002fd98       ?type_case_X@?$output_processor@DV?$string_output_adapter@D@__crt_stdio_output@@V?$format_validation_base@DV?$string_output_adapter@D@__crt_stdio_output@@@2@@__crt_stdio_output@@AEAA_NXZ 0000000140030d98 f i libucrt:output.obj
 0001:0002fda0       ?type_case_X@?$output_processor@DV?$string_output_adapter@D@__crt_stdio_output@@V?$positional_parameter_base@DV?$string_output_adapter@D@__crt_stdio_output@@@2@@__crt_stdio_output@@AEAA_NXZ 0000000140030da0 f i libucrt:output.obj
 0001:0002fda8       ?type_case_X@?$output_processor@DV?$string_output_adapter@D@__crt_stdio_output@@V?$standard_base@DV?$string_output_adapter@D@__crt_stdio_output@@@2@@__crt_stdio_output@@AEAA_NXZ 0000000140030da8 f i libucrt:output.obj
 0001:0002fdb0       ?type_case_X@?$output_processor@_WV?$stream_output_adapter@_W@__crt_stdio_output@@V?$format_validation_base@_WV?$stream_output_adapter@_W@__crt_stdio_output@@@2@@__crt_stdio_output@@AEAA_NXZ 0000000140030db0 f i libucrt:output.obj
 0001:0002fdb8       ?type_case_X@?$output_processor@_WV?$stream_output_adapter@_W@__crt_stdio_output@@V?$positional_parameter_base@_WV?$stream_output_adapter@_W@__crt_stdio_output@@@2@@__crt_stdio_output@@AEAA_NXZ 0000000140030db8 f i libucrt:output.obj
 0001:0002fdc0       ?type_case_X@?$output_processor@_WV?$stream_output_adapter@_W@__crt_stdio_output@@V?$standard_base@_WV?$stream_output_adapter@_W@__crt_stdio_output@@@2@@__crt_stdio_output@@AEAA_NXZ 0000000140030dc0 f i libucrt:output.obj
 0001:0002fdc8       ?type_case_X@?$output_processor@_WV?$string_output_adapter@_W@__crt_stdio_output@@V?$format_validation_base@_WV?$string_output_adapter@_W@__crt_stdio_output@@@2@@__crt_stdio_output@@AEAA_NXZ 0000000140030dc8 f i libucrt:output.obj
 0001:0002fdd0       ?type_case_X@?$output_processor@_WV?$string_output_adapter@_W@__crt_stdio_output@@V?$positional_parameter_base@_WV?$string_output_adapter@_W@__crt_stdio_output@@@2@@__crt_stdio_output@@AEAA_NXZ 0000000140030dd0 f i libucrt:output.obj
 0001:0002fdd8       ?type_case_X@?$output_processor@_WV?$string_output_adapter@_W@__crt_stdio_output@@V?$standard_base@_WV?$string_output_adapter@_W@__crt_stdio_output@@@2@@__crt_stdio_output@@AEAA_NXZ 0000000140030dd8 f i libucrt:output.obj
 0001:0002fde0       ?type_case_Z@?$output_processor@DV?$stream_output_adapter@D@__crt_stdio_output@@V?$format_validation_base@DV?$stream_output_adapter@D@__crt_stdio_output@@@2@@__crt_stdio_output@@AEAA_NXZ 0000000140030de0 f i libucrt:output.obj
 0001:0002fe5c       ?type_case_Z@?$output_processor@DV?$stream_output_adapter@D@__crt_stdio_output@@V?$positional_parameter_base@DV?$stream_output_adapter@D@__crt_stdio_output@@@2@@__crt_stdio_output@@AEAA_NXZ 0000000140030e5c f i libucrt:output.obj
 0001:0002ff04       ?type_case_Z@?$output_processor@DV?$stream_output_adapter@D@__crt_stdio_output@@V?$standard_base@DV?$stream_output_adapter@D@__crt_stdio_output@@@2@@__crt_stdio_output@@AEAA_NXZ 0000000140030f04 f i libucrt:output.obj
 0001:0002ff80       ?type_case_Z@?$output_processor@DV?$string_output_adapter@D@__crt_stdio_output@@V?$format_validation_base@DV?$string_output_adapter@D@__crt_stdio_output@@@2@@__crt_stdio_output@@AEAA_NXZ 0000000140030f80 f i libucrt:output.obj
 0001:0002fffc       ?type_case_Z@?$output_processor@DV?$string_output_adapter@D@__crt_stdio_output@@V?$positional_parameter_base@DV?$string_output_adapter@D@__crt_stdio_output@@@2@@__crt_stdio_output@@AEAA_NXZ 0000000140030ffc f i libucrt:output.obj
 0001:000300a4       ?type_case_Z@?$output_processor@DV?$string_output_adapter@D@__crt_stdio_output@@V?$standard_base@DV?$string_output_adapter@D@__crt_stdio_output@@@2@@__crt_stdio_output@@AEAA_NXZ 00000001400310a4 f i libucrt:output.obj
 0001:00030120       ?type_case_Z@?$output_processor@_WV?$stream_output_adapter@_W@__crt_stdio_output@@V?$format_validation_base@_WV?$stream_output_adapter@_W@__crt_stdio_output@@@2@@__crt_stdio_output@@AEAA_NXZ 0000000140031120 f i libucrt:output.obj
 0001:00030194       ?type_case_Z@?$output_processor@_WV?$stream_output_adapter@_W@__crt_stdio_output@@V?$positional_parameter_base@_WV?$stream_output_adapter@_W@__crt_stdio_output@@@2@@__crt_stdio_output@@AEAA_NXZ 0000000140031194 f i libucrt:output.obj
 0001:00030224       ?type_case_Z@?$output_processor@_WV?$stream_output_adapter@_W@__crt_stdio_output@@V?$standard_base@_WV?$stream_output_adapter@_W@__crt_stdio_output@@@2@@__crt_stdio_output@@AEAA_NXZ 0000000140031224 f i libucrt:output.obj
 0001:00030298       ?type_case_Z@?$output_processor@_WV?$string_output_adapter@_W@__crt_stdio_output@@V?$format_validation_base@_WV?$string_output_adapter@_W@__crt_stdio_output@@@2@@__crt_stdio_output@@AEAA_NXZ 0000000140031298 f i libucrt:output.obj
 0001:0003030c       ?type_case_Z@?$output_processor@_WV?$string_output_adapter@_W@__crt_stdio_output@@V?$positional_parameter_base@_WV?$string_output_adapter@_W@__crt_stdio_output@@@2@@__crt_stdio_output@@AEAA_NXZ 000000014003130c f i libucrt:output.obj
 0001:0003039c       ?type_case_Z@?$output_processor@_WV?$string_output_adapter@_W@__crt_stdio_output@@V?$standard_base@_WV?$string_output_adapter@_W@__crt_stdio_output@@@2@@__crt_stdio_output@@AEAA_NXZ 000000014003139c f i libucrt:output.obj
 0001:00030410       ?type_case_a@?$output_processor@DV?$stream_output_adapter@D@__crt_stdio_output@@V?$format_validation_base@DV?$stream_output_adapter@D@__crt_stdio_output@@@2@@__crt_stdio_output@@AEAA_NXZ 0000000140031410 f i libucrt:output.obj
 0001:0003066c       ?type_case_a@?$output_processor@DV?$stream_output_adapter@D@__crt_stdio_output@@V?$positional_parameter_base@DV?$stream_output_adapter@D@__crt_stdio_output@@@2@@__crt_stdio_output@@AEAA_NXZ 000000014003166c f i libucrt:output.obj
 0001:000308e8       ?type_case_a@?$output_processor@DV?$stream_output_adapter@D@__crt_stdio_output@@V?$standard_base@DV?$stream_output_adapter@D@__crt_stdio_output@@@2@@__crt_stdio_output@@AEAA_NXZ 00000001400318e8 f i libucrt:output.obj
 0001:00030b44       ?type_case_a@?$output_processor@DV?$string_output_adapter@D@__crt_stdio_output@@V?$format_validation_base@DV?$string_output_adapter@D@__crt_stdio_output@@@2@@__crt_stdio_output@@AEAA_NXZ 0000000140031b44 f i libucrt:output.obj
 0001:00030da0       ?type_case_a@?$output_processor@DV?$string_output_adapter@D@__crt_stdio_output@@V?$positional_parameter_base@DV?$string_output_adapter@D@__crt_stdio_output@@@2@@__crt_stdio_output@@AEAA_NXZ 0000000140031da0 f i libucrt:output.obj
 0001:0003101c       ?type_case_a@?$output_processor@DV?$string_output_adapter@D@__crt_stdio_output@@V?$standard_base@DV?$string_output_adapter@D@__crt_stdio_output@@@2@@__crt_stdio_output@@AEAA_NXZ 000000014003201c f i libucrt:output.obj
 0001:00031278       ?type_case_a@?$output_processor@_WV?$stream_output_adapter@_W@__crt_stdio_output@@V?$format_validation_base@_WV?$stream_output_adapter@_W@__crt_stdio_output@@@2@@__crt_stdio_output@@AEAA_NXZ 0000000140032278 f i libucrt:output.obj
 0001:000314f4       ?type_case_a@?$output_processor@_WV?$stream_output_adapter@_W@__crt_stdio_output@@V?$positional_parameter_base@_WV?$stream_output_adapter@_W@__crt_stdio_output@@@2@@__crt_stdio_output@@AEAA_NXZ 00000001400324f4 f i libucrt:output.obj
 0001:00031790       ?type_case_a@?$output_processor@_WV?$stream_output_adapter@_W@__crt_stdio_output@@V?$standard_base@_WV?$stream_output_adapter@_W@__crt_stdio_output@@@2@@__crt_stdio_output@@AEAA_NXZ 0000000140032790 f i libucrt:output.obj
 0001:00031a0c       ?type_case_a@?$output_processor@_WV?$string_output_adapter@_W@__crt_stdio_output@@V?$format_validation_base@_WV?$string_output_adapter@_W@__crt_stdio_output@@@2@@__crt_stdio_output@@AEAA_NXZ 0000000140032a0c f i libucrt:output.obj
 0001:00031c88       ?type_case_a@?$output_processor@_WV?$string_output_adapter@_W@__crt_stdio_output@@V?$positional_parameter_base@_WV?$string_output_adapter@_W@__crt_stdio_output@@@2@@__crt_stdio_output@@AEAA_NXZ 0000000140032c88 f i libucrt:output.obj
 0001:00031f24       ?type_case_a@?$output_processor@_WV?$string_output_adapter@_W@__crt_stdio_output@@V?$standard_base@_WV?$string_output_adapter@_W@__crt_stdio_output@@@2@@__crt_stdio_output@@AEAA_NXZ 0000000140032f24 f i libucrt:output.obj
 0001:000321a0       ?type_case_c@?$output_processor@DV?$stream_output_adapter@D@__crt_stdio_output@@V?$format_validation_base@DV?$stream_output_adapter@D@__crt_stdio_output@@@2@@__crt_stdio_output@@AEAA_NXZ 00000001400331a0 f i libucrt:output.obj
 0001:000321a8       ?type_case_c@?$output_processor@DV?$stream_output_adapter@D@__crt_stdio_output@@V?$positional_parameter_base@DV?$stream_output_adapter@D@__crt_stdio_output@@@2@@__crt_stdio_output@@AEAA_NXZ 00000001400331a8 f i libucrt:output.obj
 0001:000321b0       ?type_case_c@?$output_processor@DV?$stream_output_adapter@D@__crt_stdio_output@@V?$standard_base@DV?$stream_output_adapter@D@__crt_stdio_output@@@2@@__crt_stdio_output@@AEAA_NXZ 00000001400331b0 f i libucrt:output.obj
 0001:000321b8       ?type_case_c@?$output_processor@DV?$string_output_adapter@D@__crt_stdio_output@@V?$format_validation_base@DV?$string_output_adapter@D@__crt_stdio_output@@@2@@__crt_stdio_output@@AEAA_NXZ 00000001400331b8 f i libucrt:output.obj
 0001:000321c0       ?type_case_c@?$output_processor@DV?$string_output_adapter@D@__crt_stdio_output@@V?$positional_parameter_base@DV?$string_output_adapter@D@__crt_stdio_output@@@2@@__crt_stdio_output@@AEAA_NXZ 00000001400331c0 f i libucrt:output.obj
 0001:000321c8       ?type_case_c@?$output_processor@DV?$string_output_adapter@D@__crt_stdio_output@@V?$standard_base@DV?$string_output_adapter@D@__crt_stdio_output@@@2@@__crt_stdio_output@@AEAA_NXZ 00000001400331c8 f i libucrt:output.obj
 0001:000321d0       ?type_case_c@?$output_processor@_WV?$stream_output_adapter@_W@__crt_stdio_output@@V?$format_validation_base@_WV?$stream_output_adapter@_W@__crt_stdio_output@@@2@@__crt_stdio_output@@AEAA_NXZ 00000001400331d0 f i libucrt:output.obj
 0001:000321d8       ?type_case_c@?$output_processor@_WV?$stream_output_adapter@_W@__crt_stdio_output@@V?$positional_parameter_base@_WV?$stream_output_adapter@_W@__crt_stdio_output@@@2@@__crt_stdio_output@@AEAA_NXZ 00000001400331d8 f i libucrt:output.obj
 0001:000321e0       ?type_case_c@?$output_processor@_WV?$stream_output_adapter@_W@__crt_stdio_output@@V?$standard_base@_WV?$stream_output_adapter@_W@__crt_stdio_output@@@2@@__crt_stdio_output@@AEAA_NXZ 00000001400331e0 f i libucrt:output.obj
 0001:000321e8       ?type_case_c@?$output_processor@_WV?$string_output_adapter@_W@__crt_stdio_output@@V?$format_validation_base@_WV?$string_output_adapter@_W@__crt_stdio_output@@@2@@__crt_stdio_output@@AEAA_NXZ 00000001400331e8 f i libucrt:output.obj
 0001:000321f0       ?type_case_c@?$output_processor@_WV?$string_output_adapter@_W@__crt_stdio_output@@V?$positional_parameter_base@_WV?$string_output_adapter@_W@__crt_stdio_output@@@2@@__crt_stdio_output@@AEAA_NXZ 00000001400331f0 f i libucrt:output.obj
 0001:000321f8       ?type_case_c@?$output_processor@_WV?$string_output_adapter@_W@__crt_stdio_output@@V?$standard_base@_WV?$string_output_adapter@_W@__crt_stdio_output@@@2@@__crt_stdio_output@@AEAA_NXZ 00000001400331f8 f i libucrt:output.obj
 0001:00032200       ?type_case_c_tchar@?$output_processor@DV?$stream_output_adapter@D@__crt_stdio_output@@V?$format_validation_base@DV?$stream_output_adapter@D@__crt_stdio_output@@@2@@__crt_stdio_output@@AEAA_ND@Z 0000000140033200 f i libucrt:output.obj
 0001:000322d4       ?type_case_c_tchar@?$output_processor@DV?$stream_output_adapter@D@__crt_stdio_output@@V?$positional_parameter_base@DV?$stream_output_adapter@D@__crt_stdio_output@@@2@@__crt_stdio_output@@AEAA_ND@Z 00000001400332d4 f i libucrt:output.obj
 0001:000323f0       ?type_case_c_tchar@?$output_processor@DV?$stream_output_adapter@D@__crt_stdio_output@@V?$standard_base@DV?$stream_output_adapter@D@__crt_stdio_output@@@2@@__crt_stdio_output@@AEAA_ND@Z 00000001400333f0 f i libucrt:output.obj
 0001:000324c4       ?type_case_c_tchar@?$output_processor@DV?$string_output_adapter@D@__crt_stdio_output@@V?$format_validation_base@DV?$string_output_adapter@D@__crt_stdio_output@@@2@@__crt_stdio_output@@AEAA_ND@Z 00000001400334c4 f i libucrt:output.obj
 0001:00032598       ?type_case_c_tchar@?$output_processor@DV?$string_output_adapter@D@__crt_stdio_output@@V?$positional_parameter_base@DV?$string_output_adapter@D@__crt_stdio_output@@@2@@__crt_stdio_output@@AEAA_ND@Z 0000000140033598 f i libucrt:output.obj
 0001:000326b4       ?type_case_c_tchar@?$output_processor@DV?$string_output_adapter@D@__crt_stdio_output@@V?$standard_base@DV?$string_output_adapter@D@__crt_stdio_output@@@2@@__crt_stdio_output@@AEAA_ND@Z 00000001400336b4 f i libucrt:output.obj
 0001:00032788       ?type_case_c_tchar@?$output_processor@_WV?$stream_output_adapter@_W@__crt_stdio_output@@V?$format_validation_base@_WV?$stream_output_adapter@_W@__crt_stdio_output@@@2@@__crt_stdio_output@@AEAA_N_W@Z 0000000140033788 f i libucrt:output.obj
 0001:0003284c       ?type_case_c_tchar@?$output_processor@_WV?$stream_output_adapter@_W@__crt_stdio_output@@V?$positional_parameter_base@_WV?$stream_output_adapter@_W@__crt_stdio_output@@@2@@__crt_stdio_output@@AEAA_N_W@Z 000000014003384c f i libucrt:output.obj
 0001:00032944       ?type_case_c_tchar@?$output_processor@_WV?$stream_output_adapter@_W@__crt_stdio_output@@V?$standard_base@_WV?$stream_output_adapter@_W@__crt_stdio_output@@@2@@__crt_stdio_output@@AEAA_N_W@Z 0000000140033944 f i libucrt:output.obj
 0001:00032a08       ?type_case_c_tchar@?$output_processor@_WV?$string_output_adapter@_W@__crt_stdio_output@@V?$format_validation_base@_WV?$string_output_adapter@_W@__crt_stdio_output@@@2@@__crt_stdio_output@@AEAA_N_W@Z 0000000140033a08 f i libucrt:output.obj
 0001:00032acc       ?type_case_c_tchar@?$output_processor@_WV?$string_output_adapter@_W@__crt_stdio_output@@V?$positional_parameter_base@_WV?$string_output_adapter@_W@__crt_stdio_output@@@2@@__crt_stdio_output@@AEAA_N_W@Z 0000000140033acc f i libucrt:output.obj
 0001:00032bc4       ?type_case_c_tchar@?$output_processor@_WV?$string_output_adapter@_W@__crt_stdio_output@@V?$standard_base@_WV?$string_output_adapter@_W@__crt_stdio_output@@@2@@__crt_stdio_output@@AEAA_N_W@Z 0000000140033bc4 f i libucrt:output.obj
 0001:00032c88       ?type_case_d@?$output_processor@DV?$stream_output_adapter@D@__crt_stdio_output@@V?$format_validation_base@DV?$stream_output_adapter@D@__crt_stdio_output@@@2@@__crt_stdio_output@@AEAA_NXZ 0000000140033c88 f i libucrt:output.obj
 0001:00032c94       ?type_case_d@?$output_processor@DV?$stream_output_adapter@D@__crt_stdio_output@@V?$positional_parameter_base@DV?$stream_output_adapter@D@__crt_stdio_output@@@2@@__crt_stdio_output@@AEAA_NXZ 0000000140033c94 f i libucrt:output.obj
 0001:00032ca0       ?type_case_d@?$output_processor@DV?$stream_output_adapter@D@__crt_stdio_output@@V?$standard_base@DV?$stream_output_adapter@D@__crt_stdio_output@@@2@@__crt_stdio_output@@AEAA_NXZ 0000000140033ca0 f i libucrt:output.obj
 0001:00032cac       ?type_case_d@?$output_processor@DV?$string_output_adapter@D@__crt_stdio_output@@V?$format_validation_base@DV?$string_output_adapter@D@__crt_stdio_output@@@2@@__crt_stdio_output@@AEAA_NXZ 0000000140033cac f i libucrt:output.obj
 0001:00032cb8       ?type_case_d@?$output_processor@DV?$string_output_adapter@D@__crt_stdio_output@@V?$positional_parameter_base@DV?$string_output_adapter@D@__crt_stdio_output@@@2@@__crt_stdio_output@@AEAA_NXZ 0000000140033cb8 f i libucrt:output.obj
 0001:00032cc4       ?type_case_d@?$output_processor@DV?$string_output_adapter@D@__crt_stdio_output@@V?$standard_base@DV?$string_output_adapter@D@__crt_stdio_output@@@2@@__crt_stdio_output@@AEAA_NXZ 0000000140033cc4 f i libucrt:output.obj
 0001:00032cd0       ?type_case_d@?$output_processor@_WV?$stream_output_adapter@_W@__crt_stdio_output@@V?$format_validation_base@_WV?$stream_output_adapter@_W@__crt_stdio_output@@@2@@__crt_stdio_output@@AEAA_NXZ 0000000140033cd0 f i libucrt:output.obj
 0001:00032cdc       ?type_case_d@?$output_processor@_WV?$stream_output_adapter@_W@__crt_stdio_output@@V?$positional_parameter_base@_WV?$stream_output_adapter@_W@__crt_stdio_output@@@2@@__crt_stdio_output@@AEAA_NXZ 0000000140033cdc f i libucrt:output.obj
 0001:00032ce8       ?type_case_d@?$output_processor@_WV?$stream_output_adapter@_W@__crt_stdio_output@@V?$standard_base@_WV?$stream_output_adapter@_W@__crt_stdio_output@@@2@@__crt_stdio_output@@AEAA_NXZ 0000000140033ce8 f i libucrt:output.obj
 0001:00032cf4       ?type_case_d@?$output_processor@_WV?$string_output_adapter@_W@__crt_stdio_output@@V?$format_validation_base@_WV?$string_output_adapter@_W@__crt_stdio_output@@@2@@__crt_stdio_output@@AEAA_NXZ 0000000140033cf4 f i libucrt:output.obj
 0001:00032d00       ?type_case_d@?$output_processor@_WV?$string_output_adapter@_W@__crt_stdio_output@@V?$positional_parameter_base@_WV?$string_output_adapter@_W@__crt_stdio_output@@@2@@__crt_stdio_output@@AEAA_NXZ 0000000140033d00 f i libucrt:output.obj
 0001:00032d0c       ?type_case_d@?$output_processor@_WV?$string_output_adapter@_W@__crt_stdio_output@@V?$standard_base@_WV?$string_output_adapter@_W@__crt_stdio_output@@@2@@__crt_stdio_output@@AEAA_NXZ 0000000140033d0c f i libucrt:output.obj
 0001:00032d18       ?type_case_n@?$output_processor@DV?$stream_output_adapter@D@__crt_stdio_output@@V?$format_validation_base@DV?$stream_output_adapter@D@__crt_stdio_output@@@2@@__crt_stdio_output@@AEAA_NXZ 0000000140033d18 f i libucrt:output.obj
 0001:00032dd0       ?type_case_n@?$output_processor@DV?$stream_output_adapter@D@__crt_stdio_output@@V?$positional_parameter_base@DV?$stream_output_adapter@D@__crt_stdio_output@@@2@@__crt_stdio_output@@AEAA_NXZ 0000000140033dd0 f i libucrt:output.obj
 0001:00032eb4       ?type_case_n@?$output_processor@DV?$stream_output_adapter@D@__crt_stdio_output@@V?$standard_base@DV?$stream_output_adapter@D@__crt_stdio_output@@@2@@__crt_stdio_output@@AEAA_NXZ 0000000140033eb4 f i libucrt:output.obj
 0001:00032f6c       ?type_case_n@?$output_processor@DV?$string_output_adapter@D@__crt_stdio_output@@V?$format_validation_base@DV?$string_output_adapter@D@__crt_stdio_output@@@2@@__crt_stdio_output@@AEAA_NXZ 0000000140033f6c f i libucrt:output.obj
 0001:00033024       ?type_case_n@?$output_processor@DV?$string_output_adapter@D@__crt_stdio_output@@V?$positional_parameter_base@DV?$string_output_adapter@D@__crt_stdio_output@@@2@@__crt_stdio_output@@AEAA_NXZ 0000000140034024 f i libucrt:output.obj
 0001:00033108       ?type_case_n@?$output_processor@DV?$string_output_adapter@D@__crt_stdio_output@@V?$standard_base@DV?$string_output_adapter@D@__crt_stdio_output@@@2@@__crt_stdio_output@@AEAA_NXZ 0000000140034108 f i libucrt:output.obj
 0001:000331c0       ?type_case_n@?$output_processor@_WV?$stream_output_adapter@_W@__crt_stdio_output@@V?$format_validation_base@_WV?$stream_output_adapter@_W@__crt_stdio_output@@@2@@__crt_stdio_output@@AEAA_NXZ 00000001400341c0 f i libucrt:output.obj
 0001:00033278       ?type_case_n@?$output_processor@_WV?$stream_output_adapter@_W@__crt_stdio_output@@V?$positional_parameter_base@_WV?$stream_output_adapter@_W@__crt_stdio_output@@@2@@__crt_stdio_output@@AEAA_NXZ 0000000140034278 f i libucrt:output.obj
 0001:0003335c       ?type_case_n@?$output_processor@_WV?$stream_output_adapter@_W@__crt_stdio_output@@V?$standard_base@_WV?$stream_output_adapter@_W@__crt_stdio_output@@@2@@__crt_stdio_output@@AEAA_NXZ 000000014003435c f i libucrt:output.obj
 0001:00033414       ?type_case_n@?$output_processor@_WV?$string_output_adapter@_W@__crt_stdio_output@@V?$format_validation_base@_WV?$string_output_adapter@_W@__crt_stdio_output@@@2@@__crt_stdio_output@@AEAA_NXZ 0000000140034414 f i libucrt:output.obj
 0001:000334cc       ?type_case_n@?$output_processor@_WV?$string_output_adapter@_W@__crt_stdio_output@@V?$positional_parameter_base@_WV?$string_output_adapter@_W@__crt_stdio_output@@@2@@__crt_stdio_output@@AEAA_NXZ 00000001400344cc f i libucrt:output.obj
 0001:000335b0       ?type_case_n@?$output_processor@_WV?$string_output_adapter@_W@__crt_stdio_output@@V?$standard_base@_WV?$string_output_adapter@_W@__crt_stdio_output@@@2@@__crt_stdio_output@@AEAA_NXZ 00000001400345b0 f i libucrt:output.obj
 0001:00033668       ?type_case_o@?$output_processor@DV?$stream_output_adapter@D@__crt_stdio_output@@V?$format_validation_base@DV?$stream_output_adapter@D@__crt_stdio_output@@@2@@__crt_stdio_output@@AEAA_NXZ 0000000140034668 f i libucrt:output.obj
 0001:00033684       ?type_case_o@?$output_processor@DV?$stream_output_adapter@D@__crt_stdio_output@@V?$positional_parameter_base@DV?$stream_output_adapter@D@__crt_stdio_output@@@2@@__crt_stdio_output@@AEAA_NXZ 0000000140034684 f i libucrt:output.obj
 0001:000336a0       ?type_case_o@?$output_processor@DV?$stream_output_adapter@D@__crt_stdio_output@@V?$standard_base@DV?$stream_output_adapter@D@__crt_stdio_output@@@2@@__crt_stdio_output@@AEAA_NXZ 00000001400346a0 f i libucrt:output.obj
 0001:000336bc       ?type_case_o@?$output_processor@DV?$string_output_adapter@D@__crt_stdio_output@@V?$format_validation_base@DV?$string_output_adapter@D@__crt_stdio_output@@@2@@__crt_stdio_output@@AEAA_NXZ 00000001400346bc f i libucrt:output.obj
 0001:000336d8       ?type_case_o@?$output_processor@DV?$string_output_adapter@D@__crt_stdio_output@@V?$positional_parameter_base@DV?$string_output_adapter@D@__crt_stdio_output@@@2@@__crt_stdio_output@@AEAA_NXZ 00000001400346d8 f i libucrt:output.obj
 0001:000336f4       ?type_case_o@?$output_processor@DV?$string_output_adapter@D@__crt_stdio_output@@V?$standard_base@DV?$string_output_adapter@D@__crt_stdio_output@@@2@@__crt_stdio_output@@AEAA_NXZ 00000001400346f4 f i libucrt:output.obj
 0001:00033710       ?type_case_o@?$output_processor@_WV?$stream_output_adapter@_W@__crt_stdio_output@@V?$format_validation_base@_WV?$stream_output_adapter@_W@__crt_stdio_output@@@2@@__crt_stdio_output@@AEAA_NXZ 0000000140034710 f i libucrt:output.obj
 0001:0003372c       ?type_case_o@?$output_processor@_WV?$stream_output_adapter@_W@__crt_stdio_output@@V?$positional_parameter_base@_WV?$stream_output_adapter@_W@__crt_stdio_output@@@2@@__crt_stdio_output@@AEAA_NXZ 000000014003472c f i libucrt:output.obj
 0001:00033748       ?type_case_o@?$output_processor@_WV?$stream_output_adapter@_W@__crt_stdio_output@@V?$standard_base@_WV?$stream_output_adapter@_W@__crt_stdio_output@@@2@@__crt_stdio_output@@AEAA_NXZ 0000000140034748 f i libucrt:output.obj
 0001:00033764       ?type_case_o@?$output_processor@_WV?$string_output_adapter@_W@__crt_stdio_output@@V?$format_validation_base@_WV?$string_output_adapter@_W@__crt_stdio_output@@@2@@__crt_stdio_output@@AEAA_NXZ 0000000140034764 f i libucrt:output.obj
 0001:00033780       ?type_case_o@?$output_processor@_WV?$string_output_adapter@_W@__crt_stdio_output@@V?$positional_parameter_base@_WV?$string_output_adapter@_W@__crt_stdio_output@@@2@@__crt_stdio_output@@AEAA_NXZ 0000000140034780 f i libucrt:output.obj
 0001:0003379c       ?type_case_o@?$output_processor@_WV?$string_output_adapter@_W@__crt_stdio_output@@V?$standard_base@_WV?$string_output_adapter@_W@__crt_stdio_output@@@2@@__crt_stdio_output@@AEAA_NXZ 000000014003479c f i libucrt:output.obj
 0001:000337b8       ?type_case_p@?$output_processor@DV?$stream_output_adapter@D@__crt_stdio_output@@V?$format_validation_base@DV?$stream_output_adapter@D@__crt_stdio_output@@@2@@__crt_stdio_output@@AEAA_NXZ 00000001400347b8 f i libucrt:output.obj
 0001:000337d0       ?type_case_p@?$output_processor@DV?$stream_output_adapter@D@__crt_stdio_output@@V?$positional_parameter_base@DV?$stream_output_adapter@D@__crt_stdio_output@@@2@@__crt_stdio_output@@AEAA_NXZ 00000001400347d0 f i libucrt:output.obj
 0001:000337e8       ?type_case_p@?$output_processor@DV?$stream_output_adapter@D@__crt_stdio_output@@V?$standard_base@DV?$stream_output_adapter@D@__crt_stdio_output@@@2@@__crt_stdio_output@@AEAA_NXZ 00000001400347e8 f i libucrt:output.obj
 0001:00033800       ?type_case_p@?$output_processor@DV?$string_output_adapter@D@__crt_stdio_output@@V?$format_validation_base@DV?$string_output_adapter@D@__crt_stdio_output@@@2@@__crt_stdio_output@@AEAA_NXZ 0000000140034800 f i libucrt:output.obj
 0001:00033818       ?type_case_p@?$output_processor@DV?$string_output_adapter@D@__crt_stdio_output@@V?$positional_parameter_base@DV?$string_output_adapter@D@__crt_stdio_output@@@2@@__crt_stdio_output@@AEAA_NXZ 0000000140034818 f i libucrt:output.obj
 0001:00033830       ?type_case_p@?$output_processor@DV?$string_output_adapter@D@__crt_stdio_output@@V?$standard_base@DV?$string_output_adapter@D@__crt_stdio_output@@@2@@__crt_stdio_output@@AEAA_NXZ 0000000140034830 f i libucrt:output.obj
 0001:00033848       ?type_case_p@?$output_processor@_WV?$stream_output_adapter@_W@__crt_stdio_output@@V?$format_validation_base@_WV?$stream_output_adapter@_W@__crt_stdio_output@@@2@@__crt_stdio_output@@AEAA_NXZ 0000000140034848 f i libucrt:output.obj
 0001:00033860       ?type_case_p@?$output_processor@_WV?$stream_output_adapter@_W@__crt_stdio_output@@V?$positional_parameter_base@_WV?$stream_output_adapter@_W@__crt_stdio_output@@@2@@__crt_stdio_output@@AEAA_NXZ 0000000140034860 f i libucrt:output.obj
 0001:00033878       ?type_case_p@?$output_processor@_WV?$stream_output_adapter@_W@__crt_stdio_output@@V?$standard_base@_WV?$stream_output_adapter@_W@__crt_stdio_output@@@2@@__crt_stdio_output@@AEAA_NXZ 0000000140034878 f i libucrt:output.obj
 0001:00033890       ?type_case_p@?$output_processor@_WV?$string_output_adapter@_W@__crt_stdio_output@@V?$format_validation_base@_WV?$string_output_adapter@_W@__crt_stdio_output@@@2@@__crt_stdio_output@@AEAA_NXZ 0000000140034890 f i libucrt:output.obj
 0001:000338a8       ?type_case_p@?$output_processor@_WV?$string_output_adapter@_W@__crt_stdio_output@@V?$positional_parameter_base@_WV?$string_output_adapter@_W@__crt_stdio_output@@@2@@__crt_stdio_output@@AEAA_NXZ 00000001400348a8 f i libucrt:output.obj
 0001:000338c0       ?type_case_p@?$output_processor@_WV?$string_output_adapter@_W@__crt_stdio_output@@V?$standard_base@_WV?$string_output_adapter@_W@__crt_stdio_output@@@2@@__crt_stdio_output@@AEAA_NXZ 00000001400348c0 f i libucrt:output.obj
 0001:000338d8       ?type_case_s@?$output_processor@DV?$stream_output_adapter@D@__crt_stdio_output@@V?$format_validation_base@DV?$stream_output_adapter@D@__crt_stdio_output@@@2@@__crt_stdio_output@@AEAA_NXZ 00000001400348d8 f i libucrt:output.obj
 0001:00033974       ?type_case_s@?$output_processor@DV?$stream_output_adapter@D@__crt_stdio_output@@V?$positional_parameter_base@DV?$stream_output_adapter@D@__crt_stdio_output@@@2@@__crt_stdio_output@@AEAA_NXZ 0000000140034974 f i libucrt:output.obj
 0001:00033a30       ?type_case_s@?$output_processor@DV?$stream_output_adapter@D@__crt_stdio_output@@V?$standard_base@DV?$stream_output_adapter@D@__crt_stdio_output@@@2@@__crt_stdio_output@@AEAA_NXZ 0000000140034a30 f i libucrt:output.obj
 0001:00033acc       ?type_case_s@?$output_processor@DV?$string_output_adapter@D@__crt_stdio_output@@V?$format_validation_base@DV?$string_output_adapter@D@__crt_stdio_output@@@2@@__crt_stdio_output@@AEAA_NXZ 0000000140034acc f i libucrt:output.obj
 0001:00033b68       ?type_case_s@?$output_processor@DV?$string_output_adapter@D@__crt_stdio_output@@V?$positional_parameter_base@DV?$string_output_adapter@D@__crt_stdio_output@@@2@@__crt_stdio_output@@AEAA_NXZ 0000000140034b68 f i libucrt:output.obj
 0001:00033c24       ?type_case_s@?$output_processor@DV?$string_output_adapter@D@__crt_stdio_output@@V?$standard_base@DV?$string_output_adapter@D@__crt_stdio_output@@@2@@__crt_stdio_output@@AEAA_NXZ 0000000140034c24 f i libucrt:output.obj
 0001:00033cc0       ?type_case_s@?$output_processor@_WV?$stream_output_adapter@_W@__crt_stdio_output@@V?$format_validation_base@_WV?$stream_output_adapter@_W@__crt_stdio_output@@@2@@__crt_stdio_output@@AEAA_NXZ 0000000140034cc0 f i libucrt:output.obj
 0001:00033d5c       ?type_case_s@?$output_processor@_WV?$stream_output_adapter@_W@__crt_stdio_output@@V?$positional_parameter_base@_WV?$stream_output_adapter@_W@__crt_stdio_output@@@2@@__crt_stdio_output@@AEAA_NXZ 0000000140034d5c f i libucrt:output.obj
 0001:00033e10       ?type_case_s@?$output_processor@_WV?$stream_output_adapter@_W@__crt_stdio_output@@V?$standard_base@_WV?$stream_output_adapter@_W@__crt_stdio_output@@@2@@__crt_stdio_output@@AEAA_NXZ 0000000140034e10 f i libucrt:output.obj
 0001:00033eac       ?type_case_s@?$output_processor@_WV?$string_output_adapter@_W@__crt_stdio_output@@V?$format_validation_base@_WV?$string_output_adapter@_W@__crt_stdio_output@@@2@@__crt_stdio_output@@AEAA_NXZ 0000000140034eac f i libucrt:output.obj
 0001:00033f48       ?type_case_s@?$output_processor@_WV?$string_output_adapter@_W@__crt_stdio_output@@V?$positional_parameter_base@_WV?$string_output_adapter@_W@__crt_stdio_output@@@2@@__crt_stdio_output@@AEAA_NXZ 0000000140034f48 f i libucrt:output.obj
 0001:00033ffc       ?type_case_s@?$output_processor@_WV?$string_output_adapter@_W@__crt_stdio_output@@V?$standard_base@_WV?$string_output_adapter@_W@__crt_stdio_output@@@2@@__crt_stdio_output@@AEAA_NXZ 0000000140034ffc f i libucrt:output.obj
 0001:00034098       ?type_case_s_compute_narrow_string_length@?$output_processor@DV?$stream_output_adapter@D@__crt_stdio_output@@V?$format_validation_base@DV?$stream_output_adapter@D@__crt_stdio_output@@@2@@__crt_stdio_output@@AEAAHHD@Z 0000000140035098 f i libucrt:output.obj
 0001:000340a4       ?type_case_s_compute_narrow_string_length@?$output_processor@DV?$stream_output_adapter@D@__crt_stdio_output@@V?$positional_parameter_base@DV?$stream_output_adapter@D@__crt_stdio_output@@@2@@__crt_stdio_output@@AEAAHHD@Z 00000001400350a4 f i libucrt:output.obj
 0001:000340b0       ?type_case_s_compute_narrow_string_length@?$output_processor@DV?$stream_output_adapter@D@__crt_stdio_output@@V?$standard_base@DV?$stream_output_adapter@D@__crt_stdio_output@@@2@@__crt_stdio_output@@AEAAHHD@Z 00000001400350b0 f i libucrt:output.obj
 0001:000340bc       ?type_case_s_compute_narrow_string_length@?$output_processor@DV?$string_output_adapter@D@__crt_stdio_output@@V?$format_validation_base@DV?$string_output_adapter@D@__crt_stdio_output@@@2@@__crt_stdio_output@@AEAAHHD@Z 00000001400350bc f i libucrt:output.obj
 0001:000340c8       ?type_case_s_compute_narrow_string_length@?$output_processor@DV?$string_output_adapter@D@__crt_stdio_output@@V?$positional_parameter_base@DV?$string_output_adapter@D@__crt_stdio_output@@@2@@__crt_stdio_output@@AEAAHHD@Z 00000001400350c8 f i libucrt:output.obj
 0001:000340d4       ?type_case_s_compute_narrow_string_length@?$output_processor@DV?$string_output_adapter@D@__crt_stdio_output@@V?$standard_base@DV?$string_output_adapter@D@__crt_stdio_output@@@2@@__crt_stdio_output@@AEAAHHD@Z 00000001400350d4 f i libucrt:output.obj
 0001:000340e0       ?type_case_s_compute_narrow_string_length@?$output_processor@_WV?$stream_output_adapter@_W@__crt_stdio_output@@V?$format_validation_base@_WV?$stream_output_adapter@_W@__crt_stdio_output@@@2@@__crt_stdio_output@@AEAAHH_W@Z 00000001400350e0 f i libucrt:output.obj
 0001:000341a0       ?type_case_s_compute_narrow_string_length@?$output_processor@_WV?$stream_output_adapter@_W@__crt_stdio_output@@V?$positional_parameter_base@_WV?$stream_output_adapter@_W@__crt_stdio_output@@@2@@__crt_stdio_output@@AEAAHH_W@Z 00000001400351a0 f i libucrt:output.obj
 0001:00034260       ?type_case_s_compute_narrow_string_length@?$output_processor@_WV?$stream_output_adapter@_W@__crt_stdio_output@@V?$standard_base@_WV?$stream_output_adapter@_W@__crt_stdio_output@@@2@@__crt_stdio_output@@AEAAHH_W@Z 0000000140035260 f i libucrt:output.obj
 0001:00034320       ?type_case_s_compute_narrow_string_length@?$output_processor@_WV?$string_output_adapter@_W@__crt_stdio_output@@V?$format_validation_base@_WV?$string_output_adapter@_W@__crt_stdio_output@@@2@@__crt_stdio_output@@AEAAHH_W@Z 0000000140035320 f i libucrt:output.obj
 0001:000343e0       ?type_case_s_compute_narrow_string_length@?$output_processor@_WV?$string_output_adapter@_W@__crt_stdio_output@@V?$positional_parameter_base@_WV?$string_output_adapter@_W@__crt_stdio_output@@@2@@__crt_stdio_output@@AEAAHH_W@Z 00000001400353e0 f i libucrt:output.obj
 0001:000344a0       ?type_case_s_compute_narrow_string_length@?$output_processor@_WV?$string_output_adapter@_W@__crt_stdio_output@@V?$standard_base@_WV?$string_output_adapter@_W@__crt_stdio_output@@@2@@__crt_stdio_output@@AEAAHH_W@Z 00000001400354a0 f i libucrt:output.obj
 0001:00034560       ?type_case_u@?$output_processor@DV?$stream_output_adapter@D@__crt_stdio_output@@V?$format_validation_base@DV?$stream_output_adapter@D@__crt_stdio_output@@@2@@__crt_stdio_output@@AEAA_NXZ 0000000140035560 f i libucrt:output.obj
 0001:00034568       ?type_case_u@?$output_processor@DV?$stream_output_adapter@D@__crt_stdio_output@@V?$positional_parameter_base@DV?$stream_output_adapter@D@__crt_stdio_output@@@2@@__crt_stdio_output@@AEAA_NXZ 0000000140035568 f i libucrt:output.obj
 0001:00034570       ?type_case_u@?$output_processor@DV?$stream_output_adapter@D@__crt_stdio_output@@V?$standard_base@DV?$stream_output_adapter@D@__crt_stdio_output@@@2@@__crt_stdio_output@@AEAA_NXZ 0000000140035570 f i libucrt:output.obj
 0001:00034578       ?type_case_u@?$output_processor@DV?$string_output_adapter@D@__crt_stdio_output@@V?$format_validation_base@DV?$string_output_adapter@D@__crt_stdio_output@@@2@@__crt_stdio_output@@AEAA_NXZ 0000000140035578 f i libucrt:output.obj
 0001:00034580       ?type_case_u@?$output_processor@DV?$string_output_adapter@D@__crt_stdio_output@@V?$positional_parameter_base@DV?$string_output_adapter@D@__crt_stdio_output@@@2@@__crt_stdio_output@@AEAA_NXZ 0000000140035580 f i libucrt:output.obj
 0001:00034588       ?type_case_u@?$output_processor@DV?$string_output_adapter@D@__crt_stdio_output@@V?$standard_base@DV?$string_output_adapter@D@__crt_stdio_output@@@2@@__crt_stdio_output@@AEAA_NXZ 0000000140035588 f i libucrt:output.obj
 0001:00034590       ?type_case_u@?$output_processor@_WV?$stream_output_adapter@_W@__crt_stdio_output@@V?$format_validation_base@_WV?$stream_output_adapter@_W@__crt_stdio_output@@@2@@__crt_stdio_output@@AEAA_NXZ 0000000140035590 f i libucrt:output.obj
 0001:00034598       ?type_case_u@?$output_processor@_WV?$stream_output_adapter@_W@__crt_stdio_output@@V?$positional_parameter_base@_WV?$stream_output_adapter@_W@__crt_stdio_output@@@2@@__crt_stdio_output@@AEAA_NXZ 0000000140035598 f i libucrt:output.obj
 0001:000345a0       ?type_case_u@?$output_processor@_WV?$stream_output_adapter@_W@__crt_stdio_output@@V?$standard_base@_WV?$stream_output_adapter@_W@__crt_stdio_output@@@2@@__crt_stdio_output@@AEAA_NXZ 00000001400355a0 f i libucrt:output.obj
 0001:000345a8       ?type_case_u@?$output_processor@_WV?$string_output_adapter@_W@__crt_stdio_output@@V?$format_validation_base@_WV?$string_output_adapter@_W@__crt_stdio_output@@@2@@__crt_stdio_output@@AEAA_NXZ 00000001400355a8 f i libucrt:output.obj
 0001:000345b0       ?type_case_u@?$output_processor@_WV?$string_output_adapter@_W@__crt_stdio_output@@V?$positional_parameter_base@_WV?$string_output_adapter@_W@__crt_stdio_output@@@2@@__crt_stdio_output@@AEAA_NXZ 00000001400355b0 f i libucrt:output.obj
 0001:000345b8       ?type_case_u@?$output_processor@_WV?$string_output_adapter@_W@__crt_stdio_output@@V?$standard_base@_WV?$string_output_adapter@_W@__crt_stdio_output@@@2@@__crt_stdio_output@@AEAA_NXZ 00000001400355b8 f i libucrt:output.obj
 0001:000345c0       ?type_case_x@?$output_processor@DV?$stream_output_adapter@D@__crt_stdio_output@@V?$format_validation_base@DV?$stream_output_adapter@D@__crt_stdio_output@@@2@@__crt_stdio_output@@AEAA_NXZ 00000001400355c0 f i libucrt:output.obj
 0001:000345c8       ?type_case_x@?$output_processor@DV?$stream_output_adapter@D@__crt_stdio_output@@V?$positional_parameter_base@DV?$stream_output_adapter@D@__crt_stdio_output@@@2@@__crt_stdio_output@@AEAA_NXZ 00000001400355c8 f i libucrt:output.obj
 0001:000345d0       ?type_case_x@?$output_processor@DV?$stream_output_adapter@D@__crt_stdio_output@@V?$standard_base@DV?$stream_output_adapter@D@__crt_stdio_output@@@2@@__crt_stdio_output@@AEAA_NXZ 00000001400355d0 f i libucrt:output.obj
 0001:000345d8       ?type_case_x@?$output_processor@DV?$string_output_adapter@D@__crt_stdio_output@@V?$format_validation_base@DV?$string_output_adapter@D@__crt_stdio_output@@@2@@__crt_stdio_output@@AEAA_NXZ 00000001400355d8 f i libucrt:output.obj
 0001:000345e0       ?type_case_x@?$output_processor@DV?$string_output_adapter@D@__crt_stdio_output@@V?$positional_parameter_base@DV?$string_output_adapter@D@__crt_stdio_output@@@2@@__crt_stdio_output@@AEAA_NXZ 00000001400355e0 f i libucrt:output.obj
 0001:000345e8       ?type_case_x@?$output_processor@DV?$string_output_adapter@D@__crt_stdio_output@@V?$standard_base@DV?$string_output_adapter@D@__crt_stdio_output@@@2@@__crt_stdio_output@@AEAA_NXZ 00000001400355e8 f i libucrt:output.obj
 0001:000345f0       ?type_case_x@?$output_processor@_WV?$stream_output_adapter@_W@__crt_stdio_output@@V?$format_validation_base@_WV?$stream_output_adapter@_W@__crt_stdio_output@@@2@@__crt_stdio_output@@AEAA_NXZ 00000001400355f0 f i libucrt:output.obj
 0001:000345f8       ?type_case_x@?$output_processor@_WV?$stream_output_adapter@_W@__crt_stdio_output@@V?$positional_parameter_base@_WV?$stream_output_adapter@_W@__crt_stdio_output@@@2@@__crt_stdio_output@@AEAA_NXZ 00000001400355f8 f i libucrt:output.obj
 0001:00034600       ?type_case_x@?$output_processor@_WV?$stream_output_adapter@_W@__crt_stdio_output@@V?$standard_base@_WV?$stream_output_adapter@_W@__crt_stdio_output@@@2@@__crt_stdio_output@@AEAA_NXZ 0000000140035600 f i libucrt:output.obj
 0001:00034608       ?type_case_x@?$output_processor@_WV?$string_output_adapter@_W@__crt_stdio_output@@V?$format_validation_base@_WV?$string_output_adapter@_W@__crt_stdio_output@@@2@@__crt_stdio_output@@AEAA_NXZ 0000000140035608 f i libucrt:output.obj
 0001:00034610       ?type_case_x@?$output_processor@_WV?$string_output_adapter@_W@__crt_stdio_output@@V?$positional_parameter_base@_WV?$string_output_adapter@_W@__crt_stdio_output@@@2@@__crt_stdio_output@@AEAA_NXZ 0000000140035610 f i libucrt:output.obj
 0001:00034618       ?type_case_x@?$output_processor@_WV?$string_output_adapter@_W@__crt_stdio_output@@V?$standard_base@_WV?$string_output_adapter@_W@__crt_stdio_output@@@2@@__crt_stdio_output@@AEAA_NXZ 0000000140035618 f i libucrt:output.obj
 0001:00034620       ?unget@?$c_string_character_source@D@__crt_strtox@@QEAAXD@Z 0000000140035620 f i libucrt:output.obj
 0001:0003464c       ?unget@?$c_string_character_source@_W@__crt_strtox@@QEAAX_W@Z 000000014003564c f i libucrt:output.obj
 0001:0003467c       ?unsafe_value@?$cached@H@__crt_cached_ptd_host@@QEAAHXZ 000000014003567c f i libucrt:output.obj
 0001:00034680       ?unsafe_value@?$cached@K@__crt_cached_ptd_host@@QEAAKXZ 0000000140035680 f i libucrt:output.obj
 0001:00034684       ?unset_flag@?$output_processor@DV?$stream_output_adapter@D@__crt_stdio_output@@V?$format_validation_base@DV?$stream_output_adapter@D@__crt_stdio_output@@@2@@__crt_stdio_output@@AEAAXI@Z 0000000140035684 f i libucrt:output.obj
 0001:0003468c       ?unset_flag@?$output_processor@DV?$stream_output_adapter@D@__crt_stdio_output@@V?$positional_parameter_base@DV?$stream_output_adapter@D@__crt_stdio_output@@@2@@__crt_stdio_output@@AEAAXI@Z 000000014003568c f i libucrt:output.obj
 0001:00034694       ?unset_flag@?$output_processor@DV?$stream_output_adapter@D@__crt_stdio_output@@V?$standard_base@DV?$stream_output_adapter@D@__crt_stdio_output@@@2@@__crt_stdio_output@@AEAAXI@Z 0000000140035694 f i libucrt:output.obj
 0001:0003469c       ?unset_flag@?$output_processor@DV?$string_output_adapter@D@__crt_stdio_output@@V?$format_validation_base@DV?$string_output_adapter@D@__crt_stdio_output@@@2@@__crt_stdio_output@@AEAAXI@Z 000000014003569c f i libucrt:output.obj
 0001:000346a4       ?unset_flag@?$output_processor@DV?$string_output_adapter@D@__crt_stdio_output@@V?$positional_parameter_base@DV?$string_output_adapter@D@__crt_stdio_output@@@2@@__crt_stdio_output@@AEAAXI@Z 00000001400356a4 f i libucrt:output.obj
 0001:000346ac       ?unset_flag@?$output_processor@DV?$string_output_adapter@D@__crt_stdio_output@@V?$standard_base@DV?$string_output_adapter@D@__crt_stdio_output@@@2@@__crt_stdio_output@@AEAAXI@Z 00000001400356ac f i libucrt:output.obj
 0001:000346b4       ?unset_flag@?$output_processor@_WV?$stream_output_adapter@_W@__crt_stdio_output@@V?$format_validation_base@_WV?$stream_output_adapter@_W@__crt_stdio_output@@@2@@__crt_stdio_output@@AEAAXI@Z 00000001400356b4 f i libucrt:output.obj
 0001:000346bc       ?unset_flag@?$output_processor@_WV?$stream_output_adapter@_W@__crt_stdio_output@@V?$positional_parameter_base@_WV?$stream_output_adapter@_W@__crt_stdio_output@@@2@@__crt_stdio_output@@AEAAXI@Z 00000001400356bc f i libucrt:output.obj
 0001:000346c4       ?unset_flag@?$output_processor@_WV?$stream_output_adapter@_W@__crt_stdio_output@@V?$standard_base@_WV?$stream_output_adapter@_W@__crt_stdio_output@@@2@@__crt_stdio_output@@AEAAXI@Z 00000001400356c4 f i libucrt:output.obj
 0001:000346cc       ?unset_flag@?$output_processor@_WV?$string_output_adapter@_W@__crt_stdio_output@@V?$format_validation_base@_WV?$string_output_adapter@_W@__crt_stdio_output@@@2@@__crt_stdio_output@@AEAAXI@Z 00000001400356cc f i libucrt:output.obj
 0001:000346d4       ?unset_flag@?$output_processor@_WV?$string_output_adapter@_W@__crt_stdio_output@@V?$positional_parameter_base@_WV?$string_output_adapter@_W@__crt_stdio_output@@@2@@__crt_stdio_output@@AEAAXI@Z 00000001400356d4 f i libucrt:output.obj
 0001:000346dc       ?unset_flag@?$output_processor@_WV?$string_output_adapter@_W@__crt_stdio_output@@V?$standard_base@_WV?$string_output_adapter@_W@__crt_stdio_output@@@2@@__crt_stdio_output@@AEAAXI@Z 00000001400356dc f i libucrt:output.obj
 0001:000346e4       ?update_field_width@?$positional_parameter_base@DV?$stream_output_adapter@D@__crt_stdio_output@@@__crt_stdio_output@@IEAA_NXZ 00000001400356e4 f i libucrt:output.obj
 0001:00034850       ?update_field_width@?$positional_parameter_base@DV?$string_output_adapter@D@__crt_stdio_output@@@__crt_stdio_output@@IEAA_NXZ 0000000140035850 f i libucrt:output.obj
 0001:000349bc       ?update_field_width@?$positional_parameter_base@_WV?$stream_output_adapter@_W@__crt_stdio_output@@@__crt_stdio_output@@IEAA_NXZ 00000001400359bc f i libucrt:output.obj
 0001:00034b2c       ?update_field_width@?$positional_parameter_base@_WV?$string_output_adapter@_W@__crt_stdio_output@@@__crt_stdio_output@@IEAA_NXZ 0000000140035b2c f i libucrt:output.obj
 0001:00034c9c       ?update_field_width@?$standard_base@DV?$stream_output_adapter@D@__crt_stdio_output@@@__crt_stdio_output@@IEAA_NXZ 0000000140035c9c f i libucrt:output.obj
 0001:00034cb0       ?update_field_width@?$standard_base@DV?$string_output_adapter@D@__crt_stdio_output@@@__crt_stdio_output@@IEAA_NXZ 0000000140035cb0 f i libucrt:output.obj
 0001:00034cc4       ?update_field_width@?$standard_base@_WV?$stream_output_adapter@_W@__crt_stdio_output@@@__crt_stdio_output@@IEAA_NXZ 0000000140035cc4 f i libucrt:output.obj
 0001:00034cd8       ?update_field_width@?$standard_base@_WV?$string_output_adapter@_W@__crt_stdio_output@@@__crt_stdio_output@@IEAA_NXZ 0000000140035cd8 f i libucrt:output.obj
 0001:00034cf0       ?update_locale@__crt_cached_ptd_host@@AEAAXXZ 0000000140035cf0 f i libucrt:output.obj
 0001:00034d00       ?update_locale_slow@__crt_cached_ptd_host@@AEAAXXZ 0000000140035d00 f i libucrt:output.obj
 0001:00034d78       ?update_precision@?$positional_parameter_base@DV?$stream_output_adapter@D@__crt_stdio_output@@@__crt_stdio_output@@IEAA_NXZ 0000000140035d78 f i libucrt:output.obj
 0001:00034ee4       ?update_precision@?$positional_parameter_base@DV?$string_output_adapter@D@__crt_stdio_output@@@__crt_stdio_output@@IEAA_NXZ 0000000140035ee4 f i libucrt:output.obj
 0001:00035050       ?update_precision@?$positional_parameter_base@_WV?$stream_output_adapter@_W@__crt_stdio_output@@@__crt_stdio_output@@IEAA_NXZ 0000000140036050 f i libucrt:output.obj
 0001:000351c0       ?update_precision@?$positional_parameter_base@_WV?$string_output_adapter@_W@__crt_stdio_output@@@__crt_stdio_output@@IEAA_NXZ 00000001400361c0 f i libucrt:output.obj
 0001:00035330       ?update_precision@?$standard_base@DV?$stream_output_adapter@D@__crt_stdio_output@@@__crt_stdio_output@@IEAA_NXZ 0000000140036330 f i libucrt:output.obj
 0001:00035344       ?update_precision@?$standard_base@DV?$string_output_adapter@D@__crt_stdio_output@@@__crt_stdio_output@@IEAA_NXZ 0000000140036344 f i libucrt:output.obj
 0001:00035358       ?update_precision@?$standard_base@_WV?$stream_output_adapter@_W@__crt_stdio_output@@@__crt_stdio_output@@IEAA_NXZ 0000000140036358 f i libucrt:output.obj
 0001:0003536c       ?update_precision@?$standard_base@_WV?$string_output_adapter@_W@__crt_stdio_output@@@__crt_stdio_output@@IEAA_NXZ 000000014003636c f i libucrt:output.obj
 0001:00035380       ?valid@?$cached@H@__crt_cached_ptd_host@@QEBA_NXZ 0000000140036380 f i libucrt:output.obj
 0001:00035384       ?valid@?$cached@K@__crt_cached_ptd_host@@QEBA_NXZ 0000000140036384 f i libucrt:output.obj
 0001:00035388       ?valid@__crt_stdio_stream@@QEBA_NXZ 0000000140036388 f i libucrt:output.obj
 0001:00035390       ?validate@?$c_string_character_source@D@__crt_strtox@@QEBA_NXZ 0000000140036390 f i libucrt:output.obj
 0001:000353b8       ?validate@?$c_string_character_source@_W@__crt_strtox@@QEBA_NXZ 00000001400363b8 f i libucrt:output.obj
 0001:000353e0       ?validate@?$stream_output_adapter@D@__crt_stdio_output@@QEBA_NAEAV__crt_cached_ptd_host@@@Z 00000001400363e0 f i libucrt:output.obj
 0001:00035420       ?validate@?$stream_output_adapter@_W@__crt_stdio_output@@QEBA_NAEAV__crt_cached_ptd_host@@@Z 0000000140036420 f i libucrt:output.obj
 0001:0003545c       ?validate@?$string_output_adapter@D@__crt_stdio_output@@QEBA_NAEAV__crt_cached_ptd_host@@@Z 000000014003645c f i libucrt:output.obj
 0001:00035498       ?validate@?$string_output_adapter@_W@__crt_stdio_output@@QEBA_NAEAV__crt_cached_ptd_host@@@Z 0000000140036498 f i libucrt:output.obj
 0001:000354d4       ?validate_and_store_parameter_data@?$positional_parameter_base@DV?$stream_output_adapter@D@__crt_stdio_output@@@__crt_stdio_output@@AEAA_NAEAUparameter_data@12@W4parameter_type@12@DW4length_modifier@2@@Z 00000001400364d4 f i libucrt:output.obj
 0001:00035538       ?validate_and_store_parameter_data@?$positional_parameter_base@DV?$string_output_adapter@D@__crt_stdio_output@@@__crt_stdio_output@@AEAA_NAEAUparameter_data@12@W4parameter_type@12@DW4length_modifier@2@@Z 0000000140036538 f i libucrt:output.obj
 0001:0003559c       ?validate_and_store_parameter_data@?$positional_parameter_base@_WV?$stream_output_adapter@_W@__crt_stdio_output@@@__crt_stdio_output@@AEAA_NAEAUparameter_data@12@W4parameter_type@12@_WW4length_modifier@2@@Z 000000014003659c f i libucrt:output.obj
 0001:00035600       ?validate_and_store_parameter_data@?$positional_parameter_base@_WV?$string_output_adapter@_W@__crt_stdio_output@@@__crt_stdio_output@@AEAA_NAEAUparameter_data@12@W4parameter_type@12@_WW4length_modifier@2@@Z 0000000140036600 f i libucrt:output.obj
 0001:00035664       ?validate_and_update_state_at_beginning_of_format_character@?$positional_parameter_base@DV?$stream_output_adapter@D@__crt_stdio_output@@@__crt_stdio_output@@IEAA_NXZ 0000000140036664 f i libucrt:output.obj
 0001:000357a8       ?validate_and_update_state_at_beginning_of_format_character@?$positional_parameter_base@DV?$string_output_adapter@D@__crt_stdio_output@@@__crt_stdio_output@@IEAA_NXZ 00000001400367a8 f i libucrt:output.obj
 0001:000358ec       ?validate_and_update_state_at_beginning_of_format_character@?$positional_parameter_base@_WV?$stream_output_adapter@_W@__crt_stdio_output@@@__crt_stdio_output@@IEAA_NXZ 00000001400368ec f i libucrt:output.obj
 0001:00035a3c       ?validate_and_update_state_at_beginning_of_format_character@?$positional_parameter_base@_WV?$string_output_adapter@_W@__crt_stdio_output@@@__crt_stdio_output@@IEAA_NXZ 0000000140036a3c f i libucrt:output.obj
 0001:00035b8c       ?validate_and_update_state_at_beginning_of_format_character@?$standard_base@DV?$stream_output_adapter@D@__crt_stdio_output@@@__crt_stdio_output@@IEAA_NXZ 0000000140036b8c f i libucrt:output.obj
 0001:00035b90       ?validate_and_update_state_at_beginning_of_format_character@?$standard_base@DV?$string_output_adapter@D@__crt_stdio_output@@@__crt_stdio_output@@IEAA_NXZ 0000000140036b90 f i libucrt:output.obj
 0001:00035b94       ?validate_and_update_state_at_beginning_of_format_character@?$standard_base@_WV?$stream_output_adapter@_W@__crt_stdio_output@@@__crt_stdio_output@@IEAA_NXZ 0000000140036b94 f i libucrt:output.obj
 0001:00035b98       ?validate_and_update_state_at_beginning_of_format_character@?$standard_base@_WV?$string_output_adapter@_W@__crt_stdio_output@@@__crt_stdio_output@@IEAA_NXZ 0000000140036b98 f i libucrt:output.obj
 0001:00035b9c       ?validate_and_update_state_at_end_of_format_string@?$format_validation_base@DV?$stream_output_adapter@D@__crt_stdio_output@@@__crt_stdio_output@@IEAA_NXZ 0000000140036b9c f i libucrt:output.obj
 0001:00035be4       ?validate_and_update_state_at_end_of_format_string@?$format_validation_base@DV?$string_output_adapter@D@__crt_stdio_output@@@__crt_stdio_output@@IEAA_NXZ 0000000140036be4 f i libucrt:output.obj
 0001:00035c2c       ?validate_and_update_state_at_end_of_format_string@?$format_validation_base@_WV?$stream_output_adapter@_W@__crt_stdio_output@@@__crt_stdio_output@@IEAA_NXZ 0000000140036c2c f i libucrt:output.obj
 0001:00035c74       ?validate_and_update_state_at_end_of_format_string@?$format_validation_base@_WV?$string_output_adapter@_W@__crt_stdio_output@@@__crt_stdio_output@@IEAA_NXZ 0000000140036c74 f i libucrt:output.obj
 0001:00035cbc       ?validate_and_update_state_at_end_of_format_string@?$positional_parameter_base@DV?$stream_output_adapter@D@__crt_stdio_output@@@__crt_stdio_output@@IEAA_NXZ 0000000140036cbc f i libucrt:output.obj
 0001:00035d74       ?validate_and_update_state_at_end_of_format_string@?$positional_parameter_base@DV?$string_output_adapter@D@__crt_stdio_output@@@__crt_stdio_output@@IEAA_NXZ 0000000140036d74 f i libucrt:output.obj
 0001:00035e2c       ?validate_and_update_state_at_end_of_format_string@?$positional_parameter_base@_WV?$stream_output_adapter@_W@__crt_stdio_output@@@__crt_stdio_output@@IEAA_NXZ 0000000140036e2c f i libucrt:output.obj
 0001:00035ee4       ?validate_and_update_state_at_end_of_format_string@?$positional_parameter_base@_WV?$string_output_adapter@_W@__crt_stdio_output@@@__crt_stdio_output@@IEAA_NXZ 0000000140036ee4 f i libucrt:output.obj
 0001:00035f9c       ?validate_and_update_state_at_end_of_format_string@?$standard_base@DV?$stream_output_adapter@D@__crt_stdio_output@@@__crt_stdio_output@@IEBA_NXZ 0000000140036f9c f i libucrt:output.obj
 0001:00035fa0       ?validate_and_update_state_at_end_of_format_string@?$standard_base@DV?$string_output_adapter@D@__crt_stdio_output@@@__crt_stdio_output@@IEBA_NXZ 0000000140036fa0 f i libucrt:output.obj
 0001:00035fa4       ?validate_and_update_state_at_end_of_format_string@?$standard_base@_WV?$stream_output_adapter@_W@__crt_stdio_output@@@__crt_stdio_output@@IEBA_NXZ 0000000140036fa4 f i libucrt:output.obj
 0001:00035fa8       ?validate_and_update_state_at_end_of_format_string@?$standard_base@_WV?$string_output_adapter@_W@__crt_stdio_output@@@__crt_stdio_output@@IEBA_NXZ 0000000140036fa8 f i libucrt:output.obj
 0001:00035fac       ?validate_state_for_type_case_a@?$positional_parameter_base@DV?$stream_output_adapter@D@__crt_stdio_output@@@__crt_stdio_output@@IEAA_NXZ 0000000140036fac f i libucrt:output.obj
 0001:00036090       ?validate_state_for_type_case_a@?$positional_parameter_base@DV?$string_output_adapter@D@__crt_stdio_output@@@__crt_stdio_output@@IEAA_NXZ 0000000140037090 f i libucrt:output.obj
 0001:00036174       ?validate_state_for_type_case_a@?$positional_parameter_base@_WV?$stream_output_adapter@_W@__crt_stdio_output@@@__crt_stdio_output@@IEAA_NXZ 0000000140037174 f i libucrt:output.obj
 0001:00036258       ?validate_state_for_type_case_a@?$positional_parameter_base@_WV?$string_output_adapter@_W@__crt_stdio_output@@@__crt_stdio_output@@IEAA_NXZ 0000000140037258 f i libucrt:output.obj
 0001:0003633c       ?validate_state_for_type_case_a@?$standard_base@DV?$stream_output_adapter@D@__crt_stdio_output@@@__crt_stdio_output@@IEBA_NXZ 000000014003733c f i libucrt:output.obj
 0001:00036340       ?validate_state_for_type_case_a@?$standard_base@DV?$string_output_adapter@D@__crt_stdio_output@@@__crt_stdio_output@@IEBA_NXZ 0000000140037340 f i libucrt:output.obj
 0001:00036344       ?validate_state_for_type_case_a@?$standard_base@_WV?$stream_output_adapter@_W@__crt_stdio_output@@@__crt_stdio_output@@IEBA_NXZ 0000000140037344 f i libucrt:output.obj
 0001:00036348       ?validate_state_for_type_case_a@?$standard_base@_WV?$string_output_adapter@_W@__crt_stdio_output@@@__crt_stdio_output@@IEBA_NXZ 0000000140037348 f i libucrt:output.obj
 0001:0003634c       ?validate_stream_is_ansi_if_required@?$__acrt_stdio_char_traits@D@@SA_NQEAU_iobuf@@@Z 000000014003734c f i libucrt:output.obj
 0001:000363e8       ?validate_stream_is_ansi_if_required@?$__acrt_stdio_char_traits@_W@@SA_NQEAU_iobuf@@@Z 00000001400373e8 f i libucrt:output.obj
 0001:000363ec       ?wide_character_to_digit@__crt_strtox@@YAH_W@Z 00000001400373ec f i libucrt:output.obj
 0001:0003658c       ?wide_null_string@?$output_processor@DV?$stream_output_adapter@D@__crt_stdio_output@@V?$format_validation_base@DV?$stream_output_adapter@D@__crt_stdio_output@@@2@@__crt_stdio_output@@CAPEA_WXZ 000000014003758c f i libucrt:output.obj
 0001:00036594       ?wide_null_string@?$output_processor@DV?$stream_output_adapter@D@__crt_stdio_output@@V?$positional_parameter_base@DV?$stream_output_adapter@D@__crt_stdio_output@@@2@@__crt_stdio_output@@CAPEA_WXZ 0000000140037594 f i libucrt:output.obj
 0001:0003659c       ?wide_null_string@?$output_processor@DV?$stream_output_adapter@D@__crt_stdio_output@@V?$standard_base@DV?$stream_output_adapter@D@__crt_stdio_output@@@2@@__crt_stdio_output@@CAPEA_WXZ 000000014003759c f i libucrt:output.obj
 0001:000365a4       ?wide_null_string@?$output_processor@DV?$string_output_adapter@D@__crt_stdio_output@@V?$format_validation_base@DV?$string_output_adapter@D@__crt_stdio_output@@@2@@__crt_stdio_output@@CAPEA_WXZ 00000001400375a4 f i libucrt:output.obj
 0001:000365ac       ?wide_null_string@?$output_processor@DV?$string_output_adapter@D@__crt_stdio_output@@V?$positional_parameter_base@DV?$string_output_adapter@D@__crt_stdio_output@@@2@@__crt_stdio_output@@CAPEA_WXZ 00000001400375ac f i libucrt:output.obj
 0001:000365b4       ?wide_null_string@?$output_processor@DV?$string_output_adapter@D@__crt_stdio_output@@V?$standard_base@DV?$string_output_adapter@D@__crt_stdio_output@@@2@@__crt_stdio_output@@CAPEA_WXZ 00000001400375b4 f i libucrt:output.obj
 0001:000365bc       ?wide_null_string@?$output_processor@_WV?$stream_output_adapter@_W@__crt_stdio_output@@V?$format_validation_base@_WV?$stream_output_adapter@_W@__crt_stdio_output@@@2@@__crt_stdio_output@@CAPEA_WXZ 00000001400375bc f i libucrt:output.obj
 0001:000365c4       ?wide_null_string@?$output_processor@_WV?$stream_output_adapter@_W@__crt_stdio_output@@V?$positional_parameter_base@_WV?$stream_output_adapter@_W@__crt_stdio_output@@@2@@__crt_stdio_output@@CAPEA_WXZ 00000001400375c4 f i libucrt:output.obj
 0001:000365cc       ?wide_null_string@?$output_processor@_WV?$stream_output_adapter@_W@__crt_stdio_output@@V?$standard_base@_WV?$stream_output_adapter@_W@__crt_stdio_output@@@2@@__crt_stdio_output@@CAPEA_WXZ 00000001400375cc f i libucrt:output.obj
 0001:000365d4       ?wide_null_string@?$output_processor@_WV?$string_output_adapter@_W@__crt_stdio_output@@V?$format_validation_base@_WV?$string_output_adapter@_W@__crt_stdio_output@@@2@@__crt_stdio_output@@CAPEA_WXZ 00000001400375d4 f i libucrt:output.obj
 0001:000365dc       ?wide_null_string@?$output_processor@_WV?$string_output_adapter@_W@__crt_stdio_output@@V?$positional_parameter_base@_WV?$string_output_adapter@_W@__crt_stdio_output@@@2@@__crt_stdio_output@@CAPEA_WXZ 00000001400375dc f i libucrt:output.obj
 0001:000365e4       ?wide_null_string@?$output_processor@_WV?$string_output_adapter@_W@__crt_stdio_output@@V?$standard_base@_WV?$string_output_adapter@_W@__crt_stdio_output@@@2@@__crt_stdio_output@@CAPEA_WXZ 00000001400375e4 f i libucrt:output.obj
 0001:000365ec       ?write_character@?$output_adapter_common@DV?$stream_output_adapter@D@__crt_stdio_output@@@__crt_stdio_output@@QEBAXDQEAHAEAV__crt_cached_ptd_host@@@Z 00000001400375ec f i libucrt:output.obj
 0001:00036638       ?write_character@?$output_adapter_common@_WV?$stream_output_adapter@_W@__crt_stdio_output@@@__crt_stdio_output@@QEBAX_WQEAHAEAV__crt_cached_ptd_host@@@Z 0000000140037638 f i libucrt:output.obj
 0001:00036688       ?write_character@?$string_output_adapter@D@__crt_stdio_output@@QEBA_NDQEAHAEAV__crt_cached_ptd_host@@@Z 0000000140037688 f i libucrt:output.obj
 0001:000366d0       ?write_character@?$string_output_adapter@_W@__crt_stdio_output@@QEBA_N_WQEAHAEAV__crt_cached_ptd_host@@@Z 00000001400376d0 f i libucrt:output.obj
 0001:00036718       ?write_character_without_count_update@?$stream_output_adapter@D@__crt_stdio_output@@QEBA_NDAEAV__crt_cached_ptd_host@@@Z 0000000140037718 f i libucrt:output.obj
 0001:00036758       ?write_character_without_count_update@?$stream_output_adapter@_W@__crt_stdio_output@@QEBA_N_WAEAV__crt_cached_ptd_host@@@Z 0000000140037758 f i libucrt:output.obj
 0001:0003679c       ?write_stored_string_tchar@?$output_processor@DV?$stream_output_adapter@D@__crt_stdio_output@@V?$format_validation_base@DV?$stream_output_adapter@D@__crt_stdio_output@@@2@@__crt_stdio_output@@AEAA_ND@Z 000000014003779c f i libucrt:output.obj
 0001:00036988       ?write_stored_string_tchar@?$output_processor@DV?$stream_output_adapter@D@__crt_stdio_output@@V?$positional_parameter_base@DV?$stream_output_adapter@D@__crt_stdio_output@@@2@@__crt_stdio_output@@AEAA_ND@Z 0000000140037988 f i libucrt:output.obj
 0001:00036b74       ?write_stored_string_tchar@?$output_processor@DV?$stream_output_adapter@D@__crt_stdio_output@@V?$standard_base@DV?$stream_output_adapter@D@__crt_stdio_output@@@2@@__crt_stdio_output@@AEAA_ND@Z 0000000140037b74 f i libucrt:output.obj
 0001:00036d60       ?write_stored_string_tchar@?$output_processor@DV?$string_output_adapter@D@__crt_stdio_output@@V?$format_validation_base@DV?$string_output_adapter@D@__crt_stdio_output@@@2@@__crt_stdio_output@@AEAA_ND@Z 0000000140037d60 f i libucrt:output.obj
 0001:00036f00       ?write_stored_string_tchar@?$output_processor@DV?$string_output_adapter@D@__crt_stdio_output@@V?$positional_parameter_base@DV?$string_output_adapter@D@__crt_stdio_output@@@2@@__crt_stdio_output@@AEAA_ND@Z 0000000140037f00 f i libucrt:output.obj
 0001:000370a0       ?write_stored_string_tchar@?$output_processor@DV?$string_output_adapter@D@__crt_stdio_output@@V?$standard_base@DV?$string_output_adapter@D@__crt_stdio_output@@@2@@__crt_stdio_output@@AEAA_ND@Z 00000001400380a0 f i libucrt:output.obj
 0001:00037240       ?write_stored_string_tchar@?$output_processor@_WV?$stream_output_adapter@_W@__crt_stdio_output@@V?$format_validation_base@_WV?$stream_output_adapter@_W@__crt_stdio_output@@@2@@__crt_stdio_output@@AEAA_N_W@Z 0000000140038240 f i libucrt:output.obj
 0001:000374d0       ?write_stored_string_tchar@?$output_processor@_WV?$stream_output_adapter@_W@__crt_stdio_output@@V?$positional_parameter_base@_WV?$stream_output_adapter@_W@__crt_stdio_output@@@2@@__crt_stdio_output@@AEAA_N_W@Z 00000001400384d0 f i libucrt:output.obj
 0001:00037760       ?write_stored_string_tchar@?$output_processor@_WV?$stream_output_adapter@_W@__crt_stdio_output@@V?$standard_base@_WV?$stream_output_adapter@_W@__crt_stdio_output@@@2@@__crt_stdio_output@@AEAA_N_W@Z 0000000140038760 f i libucrt:output.obj
 0001:000379f0       ?write_stored_string_tchar@?$output_processor@_WV?$string_output_adapter@_W@__crt_stdio_output@@V?$format_validation_base@_WV?$string_output_adapter@_W@__crt_stdio_output@@@2@@__crt_stdio_output@@AEAA_N_W@Z 00000001400389f0 f i libucrt:output.obj
 0001:00037c24       ?write_stored_string_tchar@?$output_processor@_WV?$string_output_adapter@_W@__crt_stdio_output@@V?$positional_parameter_base@_WV?$string_output_adapter@_W@__crt_stdio_output@@@2@@__crt_stdio_output@@AEAA_N_W@Z 0000000140038c24 f i libucrt:output.obj
 0001:00037e58       ?write_stored_string_tchar@?$output_processor@_WV?$string_output_adapter@_W@__crt_stdio_output@@V?$standard_base@_WV?$string_output_adapter@_W@__crt_stdio_output@@@2@@__crt_stdio_output@@AEAA_N_W@Z 0000000140038e58 f i libucrt:output.obj
 0001:0003808c       ?write_string@?$stream_output_adapter@D@__crt_stdio_output@@QEBAXQEBDHQEAHAEAV__crt_cached_ptd_host@@@Z 000000014003908c f i libucrt:output.obj
 0001:000380b4       ?write_string@?$stream_output_adapter@_W@__crt_stdio_output@@QEBAXQEB_WHQEAHAEAV__crt_cached_ptd_host@@@Z 00000001400390b4 f i libucrt:output.obj
 0001:000380dc       ?write_string@?$string_output_adapter@D@__crt_stdio_output@@QEBAXQEBDHQEAHAEAV__crt_cached_ptd_host@@@Z 00000001400390dc f i libucrt:output.obj
 0001:00038180       ?write_string@?$string_output_adapter@_W@__crt_stdio_output@@QEBAXQEB_WHQEAHAEAV__crt_cached_ptd_host@@@Z 0000000140039180 f i libucrt:output.obj
 0001:00038228       ?write_string_impl@?$output_adapter_common@DV?$stream_output_adapter@D@__crt_stdio_output@@@__crt_stdio_output@@IEBAXQEBDHQEAHAEAV__crt_cached_ptd_host@@@Z 0000000140039228 f i libucrt:output.obj
 0001:000382f8       ?write_string_impl@?$output_adapter_common@_WV?$stream_output_adapter@_W@__crt_stdio_output@@@__crt_stdio_output@@IEBAXQEB_WHQEAHAEAV__crt_cached_ptd_host@@@Z 00000001400392f8 f i libucrt:output.obj
 0001:000383dc       __acrt_disable_global_locale_sync 00000001400393dc f i libucrt:output.obj
 0001:000383e4       __acrt_enable_global_locale_sync 00000001400393e4 f i libucrt:output.obj
 0001:000383f0       __acrt_isleadbyte_l_noupdate 00000001400393f0 f i libucrt:output.obj
 0001:00038414       __acrt_locale_changed      0000000140039414 f i libucrt:output.obj
 0001:00038420       __acrt_locale_get_ctype_array_value 0000000140039420 f i libucrt:output.obj
 0001:00038438       __ascii_iswalpha           0000000140039438 f i libucrt:output.obj
 0001:00038454       __ascii_toupper            0000000140039454 f i libucrt:output.obj
 0001:00038464       __ascii_towupper           0000000140039464 f i libucrt:output.obj
 0001:00038474       __stdio_common_vfprintf    0000000140039474 f   libucrt:output.obj
 0001:00038598       __stdio_common_vfprintf_p  0000000140039598 f   libucrt:output.obj
 0001:000386bc       __stdio_common_vfprintf_s  00000001400396bc f   libucrt:output.obj
 0001:000387e0       __stdio_common_vfwprintf   00000001400397e0 f   libucrt:output.obj
 0001:00038904       __stdio_common_vfwprintf_p 0000000140039904 f   libucrt:output.obj
 0001:00038a28       __stdio_common_vfwprintf_s 0000000140039a28 f   libucrt:output.obj
 0001:00038b4c       __stdio_common_vsnprintf_s 0000000140039b4c f   libucrt:output.obj
 0001:00038d10       __stdio_common_vsnwprintf_s 0000000140039d10 f   libucrt:output.obj
 0001:00038ed4       __stdio_common_vsprintf    0000000140039ed4 f   libucrt:output.obj
 0001:00039128       __stdio_common_vsprintf_p  000000014003a128 f   libucrt:output.obj
 0001:000391e0       __stdio_common_vsprintf_s  000000014003a1e0 f   libucrt:output.obj
 0001:000392f4       __stdio_common_vswprintf   000000014003a2f4 f   libucrt:output.obj
 0001:00039550       __stdio_common_vswprintf_p 000000014003a550 f   libucrt:output.obj
 0001:00039608       __stdio_common_vswprintf_s 000000014003a608 f   libucrt:output.obj
 0001:0003971c       _ctype_fast_check_internal 000000014003a71c f i libucrt:output.obj
 0001:00039730       _isdigit_fast_internal     000000014003a730 f i libucrt:output.obj
 0001:00039744       _tolower_fast_internal     000000014003a744 f i libucrt:output.obj
 0001:00039778       _seh_filter_dll            000000014003a778 f   libucrt:exception_filter.obj
 0001:0003978c       _seh_filter_exe            000000014003a78c f   libucrt:exception_filter.obj
 0001:000399d4       __acrt_report_runtime_error 000000014003a9d4 f   libucrt:report_runtime_error.obj
 0001:00039b34       _invoke_watson_if_error    000000014003ab34 f i libucrt:report_runtime_error.obj
 0001:00039b68       _query_app_type            000000014003ab68 f   libucrt:report_runtime_error.obj
 0001:00039b70       _set_app_type              000000014003ab70 f   libucrt:report_runtime_error.obj
 0001:00039b80       ??$__crt_fast_decode_pointer@P6AHPEAU_exception@@@Z@@YAP6AHPEAU_exception@@@ZQ6AH0@Z@Z 000000014003ab80 f i libucrt:matherr.obj
 0001:00039ba0       ??$__crt_fast_encode_pointer@P6AHPEAU_exception@@@Z@@YAP6AHPEAU_exception@@@ZQ6AH0@Z@Z 000000014003aba0 f i libucrt:matherr.obj
 0001:00039bc0       ?__crt_rotate_pointer_value@@YA_K_KH@Z 000000014003abc0 f i libucrt:matherr.obj
 0001:00039bd0       ?get_current_state_index@__crt_state_management@@YA_KXZ 000000014003abd0 f i libucrt:matherr.obj
 0001:00039be0       ?initialize@?$dual_state_global@P6AHPEAU_exception@@@Z@__crt_state_management@@QEAAXQ6AHPEAU_exception@@@Z@Z 000000014003abe0 f i libucrt:matherr.obj
 0001:00039bf0       ?value@?$dual_state_global@P6AHPEAU_exception@@@Z@__crt_state_management@@QEAAAEAP6AHPEAU_exception@@@ZXZ 000000014003abf0 f i libucrt:matherr.obj
 0001:00039c00       __acrt_has_user_matherr    000000014003ac00 f   libucrt:matherr.obj
 0001:00039c20       __acrt_initialize_user_matherr 000000014003ac20 f   libucrt:matherr.obj
 0001:00039c30       __acrt_invoke_user_matherr 000000014003ac30 f   libucrt:matherr.obj
 0001:00039c60       __setusermatherr           000000014003ac60 f   libucrt:matherr.obj
 0001:00039c84       ??$?RE@__crt_internal_free_policy@@QEBAXQEBE@Z 000000014003ac84 f i libucrt:argv_parsing.obj
 0001:00039c8c       ??$?RPEAD@__crt_internal_free_policy@@QEBAXQEBQEAD@Z 000000014003ac8c f i libucrt:argv_parsing.obj
 0001:00039c94       ??$?RPEA_W@__crt_internal_free_policy@@QEBAXQEBQEA_W@Z 000000014003ac94 f i libucrt:argv_parsing.obj
 0001:00039f90       ??$get_module_file_name@$$TAEAY0BAF@DH@?$__crt_char_traits@D@@SAK$$QEA$$TAEAY0BAF@D$$QEAH@Z 000000014003af90 f i libucrt:argv_parsing.obj
 0001:00039f9c       ??$get_module_file_name@$$TAEAY0BAF@_WH@?$__crt_char_traits@_W@@SAK$$QEA$$TAEAY0BAF@_W$$QEAH@Z 000000014003af9c f i libucrt:argv_parsing.obj
 0001:0003a310       ??$set_program_name@PEAD@?$__crt_char_traits@D@@SAX$$QEAPEAD@Z 000000014003b310 f i libucrt:argv_parsing.obj
 0001:0003a31c       ??$set_program_name@PEA_W@?$__crt_char_traits@_W@@SAX$$QEAPEA_W@Z 000000014003b31c f i libucrt:argv_parsing.obj
 0001:0003a338       ??0?$__crt_unique_heap_ptr@EU__crt_internal_free_policy@@@@QEAA@QEAE@Z 000000014003b338 f i libucrt:argv_parsing.obj
 0001:0003a340       ??0?$__crt_unique_heap_ptr@PEADU__crt_internal_free_policy@@@@QEAA@QEAPEAD@Z 000000014003b340 f i libucrt:argv_parsing.obj
 0001:0003a348       ??0?$__crt_unique_heap_ptr@PEA_WU__crt_internal_free_policy@@@@QEAA@QEAPEA_W@Z 000000014003b348 f i libucrt:argv_parsing.obj
 0001:0003a350       ??1?$__crt_unique_heap_ptr@EU__crt_internal_free_policy@@@@QEAA@XZ 000000014003b350 f i libucrt:argv_parsing.obj
 0001:0003a36c       ??1?$__crt_unique_heap_ptr@PEADU__crt_internal_free_policy@@@@QEAA@XZ 000000014003b36c f i libucrt:argv_parsing.obj
 0001:0003a388       ??1?$__crt_unique_heap_ptr@PEA_WU__crt_internal_free_policy@@@@QEAA@XZ 000000014003b388 f i libucrt:argv_parsing.obj
 0001:0003a3a4       ??B?$__crt_unique_heap_ptr@EU__crt_internal_free_policy@@@@QEBA_NXZ 000000014003b3a4 f i libucrt:argv_parsing.obj
 0001:0003a3e4       ?detach@?$__crt_unique_heap_ptr@EU__crt_internal_free_policy@@@@QEAAPEAEXZ 000000014003b3e4 f i libucrt:argv_parsing.obj
 0001:0003a3ec       ?detach@?$__crt_unique_heap_ptr@PEADU__crt_internal_free_policy@@@@QEAAPEAPEADXZ 000000014003b3ec f i libucrt:argv_parsing.obj
 0001:0003a3f4       ?detach@?$__crt_unique_heap_ptr@PEA_WU__crt_internal_free_policy@@@@QEAAPEAPEA_WXZ 000000014003b3f4 f i libucrt:argv_parsing.obj
 0001:0003a418       ?get@?$__crt_unique_heap_ptr@EU__crt_internal_free_policy@@@@QEBAPEAEXZ 000000014003b418 f i libucrt:argv_parsing.obj
 0001:0003a41c       ?get@?$__crt_unique_heap_ptr@PEADU__crt_internal_free_policy@@@@QEBAPEAPEADXZ 000000014003b41c f i libucrt:argv_parsing.obj
 0001:0003a420       ?get@?$__crt_unique_heap_ptr@PEA_WU__crt_internal_free_policy@@@@QEBAPEAPEA_WXZ 000000014003b420 f i libucrt:argv_parsing.obj
 0001:0003a424       ?get_address_of@?$__crt_unique_heap_ptr@PEADU__crt_internal_free_policy@@@@QEAAPEAPEAPEADXZ 000000014003b424 f i libucrt:argv_parsing.obj
 0001:0003a428       ?get_address_of@?$__crt_unique_heap_ptr@PEA_WU__crt_internal_free_policy@@@@QEAAPEAPEAPEA_WXZ 000000014003b428 f i libucrt:argv_parsing.obj
 0001:0003a44c       ?is_valid@?$__crt_unique_heap_ptr@EU__crt_internal_free_policy@@@@QEBA_NXZ 000000014003b44c f i libucrt:argv_parsing.obj
 0001:0003a454       ?release@?$__crt_unique_heap_ptr@EU__crt_internal_free_policy@@@@QEAAXXZ 000000014003b454 f i libucrt:argv_parsing.obj
 0001:0003a470       ?release@?$__crt_unique_heap_ptr@PEADU__crt_internal_free_policy@@@@QEAAXXZ 000000014003b470 f i libucrt:argv_parsing.obj
 0001:0003a48c       ?release@?$__crt_unique_heap_ptr@PEA_WU__crt_internal_free_policy@@@@QEAAXXZ 000000014003b48c f i libucrt:argv_parsing.obj
 0001:0003a4c4       __acrt_allocate_buffer_for_argv 000000014003b4c4 f   libucrt:argv_parsing.obj
 0001:0003a524       _configure_narrow_argv     000000014003b524 f   libucrt:argv_parsing.obj
 0001:0003a6a4       _configure_wide_argv       000000014003b6a4 f   libucrt:argv_parsing.obj
 0001:0003a820       _set_pgmptr                000000014003b820 f i libucrt:argv_parsing.obj
 0001:0003a828       _set_wpgmptr               000000014003b828 f i libucrt:argv_parsing.obj
 0001:0003a830       ??$?R_W@__crt_internal_free_policy@@QEBAXQEB_W@Z 000000014003b830 f i libucrt:environment_initialization.obj
 0001:0003ad60       ??$get_environment_from_os@$$V@?$__crt_char_traits@D@@SAPEADXZ 000000014003bd60 f i libucrt:environment_initialization.obj
 0001:0003ad68       ??$get_environment_from_os@$$V@?$__crt_char_traits@_W@@SAPEA_WXZ 000000014003bd68 f i libucrt:environment_initialization.obj
 0001:0003af0c       ??$set_variable_in_environment_nolock@PEADH@?$__crt_char_traits@D@@SAH$$QEAPEAD$$QEAH@Z 000000014003bf0c f i libucrt:environment_initialization.obj
 0001:0003af18       ??$set_variable_in_environment_nolock@PEA_WH@?$__crt_char_traits@_W@@SAH$$QEAPEA_W$$QEAH@Z 000000014003bf18 f i libucrt:environment_initialization.obj
 0001:0003af24       ??$tcscpy_s@PEADAEB_KAEAPEAD@?$__crt_char_traits@D@@SAH$$QEAPEADAEB_KAEAPEAD@Z 000000014003bf24 f i libucrt:environment_initialization.obj
 0001:0003af34       ??$tcscpy_s@PEA_WAEB_KAEAPEA_W@?$__crt_char_traits@_W@@SAH$$QEAPEA_WAEB_KAEAPEA_W@Z 000000014003bf34 f i libucrt:environment_initialization.obj
 0001:0003af44       ??$tcslen@AEAPEAD@?$__crt_char_traits@D@@SA_KAEAPEAD@Z 000000014003bf44 f i libucrt:environment_initialization.obj
 0001:0003af58       ??$tcslen@AEAPEA_W@?$__crt_char_traits@_W@@SA_KAEAPEA_W@Z 000000014003bf58 f i libucrt:environment_initialization.obj
 0001:0003af6c       ??$uninitialize@A6AXAEAPEAPEAD@_E@?$dual_state_global@PEAPEAD@__crt_state_management@@QEAAXA6AXAEAPEAPEAD@_E@Z 000000014003bf6c f i libucrt:environment_initialization.obj
 0001:0003afb8       ??$uninitialize@A6AXAEAPEAPEA_W@_E@?$dual_state_global@PEAPEA_W@__crt_state_management@@QEAAXA6AXAEAPEAPEA_W@_E@Z 000000014003bfb8 f i libucrt:environment_initialization.obj
 0001:0003b03c       ??0?$__crt_unique_heap_ptr@_WU__crt_internal_free_policy@@@@QEAA@QEA_W@Z 000000014003c03c f i libucrt:environment_initialization.obj
 0001:0003b044       ??1?$__crt_unique_heap_ptr@_WU__crt_internal_free_policy@@@@QEAA@XZ 000000014003c044 f i libucrt:environment_initialization.obj
 0001:0003b060       ??B?$__crt_unique_heap_ptr@PEADU__crt_internal_free_policy@@@@QEBA_NXZ 000000014003c060 f i libucrt:environment_initialization.obj
 0001:0003b068       ??B?$__crt_unique_heap_ptr@PEA_WU__crt_internal_free_policy@@@@QEBA_NXZ 000000014003c068 f i libucrt:environment_initialization.obj
 0001:0003b070       ??B?$__crt_unique_heap_ptr@_WU__crt_internal_free_policy@@@@QEBA_NXZ 000000014003c070 f i libucrt:environment_initialization.obj
 0001:0003b078       ?__crt_compute_required_transform_buffer_count@@YA_KIQEBD@Z 000000014003c078 f i libucrt:environment_initialization.obj
 0001:0003b09c       ?__crt_compute_required_transform_buffer_count@@YA_KIQEB_W@Z 000000014003c09c f i libucrt:environment_initialization.obj
 0001:0003b0cc       ?__crt_transform_string@@YA_KIQEBDQEA_W_K@Z 000000014003c0cc f i libucrt:environment_initialization.obj
 0001:0003b0f0       ?__crt_transform_string@@YA_KIQEB_WQEAD_K@Z 000000014003c0f0 f i libucrt:environment_initialization.obj
 0001:0003b120       ?detach@?$__crt_unique_heap_ptr@DU__crt_internal_free_policy@@@@QEAAPEADXZ 000000014003c120 f i libucrt:environment_initialization.obj
 0001:0003b128       ?detach@?$__crt_unique_heap_ptr@_WU__crt_internal_free_policy@@@@QEAAPEA_WXZ 000000014003c128 f i libucrt:environment_initialization.obj
 0001:0003b130       ?get@?$__crt_unique_heap_ptr@_WU__crt_internal_free_policy@@@@QEBAPEA_WXZ 000000014003c130 f i libucrt:environment_initialization.obj
 0001:0003b164       ?initialize@?$dual_state_global@PEAPEAD@__crt_state_management@@QEAAXQEAPEAD@Z 000000014003c164 f i libucrt:environment_initialization.obj
 0001:0003b174       ?initialize@?$dual_state_global@PEAPEA_W@__crt_state_management@@QEAAXQEAPEA_W@Z 000000014003c174 f i libucrt:environment_initialization.obj
 0001:0003b184       ?is_valid@?$__crt_unique_heap_ptr@PEADU__crt_internal_free_policy@@@@QEBA_NXZ 000000014003c184 f i libucrt:environment_initialization.obj
 0001:0003b18c       ?is_valid@?$__crt_unique_heap_ptr@PEA_WU__crt_internal_free_policy@@@@QEBA_NXZ 000000014003c18c f i libucrt:environment_initialization.obj
 0001:0003b194       ?is_valid@?$__crt_unique_heap_ptr@_WU__crt_internal_free_policy@@@@QEBA_NXZ 000000014003c194 f i libucrt:environment_initialization.obj
 0001:0003b1a8       ?release@?$__crt_unique_heap_ptr@_WU__crt_internal_free_policy@@@@QEAAXXZ 000000014003c1a8 f i libucrt:environment_initialization.obj
 0001:0003b1c4       ?value@?$dual_state_global@PEAPEAD@__crt_state_management@@QEAAAEAPEAPEADXZ 000000014003c1c4 f i libucrt:environment_initialization.obj
 0001:0003b1c8       ?value@?$dual_state_global@PEAPEA_W@__crt_state_management@@QEAAAEAPEAPEA_WXZ 000000014003c1c8 f i libucrt:environment_initialization.obj
 0001:0003b1cc       __dcrt_get_or_create_narrow_environment_nolock 000000014003c1cc f   libucrt:environment_initialization.obj
 0001:0003b208       __dcrt_get_or_create_wide_environment_nolock 000000014003c208 f   libucrt:environment_initialization.obj
 0001:0003b244       __dcrt_uninitialize_environments_nolock 000000014003c244 f   libucrt:environment_initialization.obj
 0001:0003b288       __p__environ               000000014003c288 f   libucrt:environment_initialization.obj
 0001:0003b290       __p__wenviron              000000014003c290 f   libucrt:environment_initialization.obj
 0001:0003b298       _get_initial_narrow_environment 000000014003c298 f   libucrt:environment_initialization.obj
 0001:0003b2e8       _get_initial_wide_environment 000000014003c2e8 f   libucrt:environment_initialization.obj
 0001:0003b338       _initialize_narrow_environment 000000014003c338 f   libucrt:environment_initialization.obj
 0001:0003b340       _initialize_wide_environment 000000014003c340 f   libucrt:environment_initialization.obj
 0001:0003b448       _get_narrow_winmain_command_line 000000014003c448 f   libucrt:argv_winmain.obj
 0001:0003b4bc       _get_wide_winmain_command_line 000000014003c4bc f   libucrt:argv_winmain.obj
 0001:0003b510       _initterm                  000000014003c510 f   libucrt:initterm.obj
 0001:0003b548       _initterm_e                000000014003c548 f   libucrt:initterm.obj
 0001:0003b584       ??$?B$$A6AXPEAXK0@Z@__crt_fast_encoded_nullptr_t@@QEBAP6AXPEAXK0@ZXZ 000000014003c584 f i libucrt:exit.obj
 0001:0003b5f4       ??$__crt_fast_decode_pointer@P6AXPEAXK0@Z@@YAP6AXPEAXK0@ZQ6AX0K0@Z@Z 000000014003c5f4 f i libucrt:exit.obj
 0001:0003b60c       ??$__crt_fast_encode_pointer@P6AXPEAXK0@Z@@YAP6AXPEAXK0@ZQ6AX0K0@Z@Z 000000014003c60c f i libucrt:exit.obj
 0001:0003b62c       ??$__crt_get_proc_address@P6AXI@Z@@YAP6AXI@ZQEAUHINSTANCE__@@QEBD@Z 000000014003c62c f i libucrt:exit.obj
 0001:0003b654       ??0?$__crt_unique_handle_t@U__crt_hmodule_traits@@@@QEAA@QEAUHINSTANCE__@@@Z 000000014003c654 f i libucrt:exit.obj
 0001:0003b65c       ??1?$__crt_unique_handle_t@U__crt_hmodule_traits@@@@QEAA@XZ 000000014003c65c f i libucrt:exit.obj
 0001:0003b750       ?__acrt_select_exit_lock@@YA?AW4__acrt_lock_id@@XZ 000000014003c750 f i libucrt:exit.obj
 0001:0003b758       ?__crt_fast_encode_pointer@@YA?AU__crt_fast_encoded_nullptr_t@@$$T@Z 000000014003c758 f i libucrt:exit.obj
 0001:0003b76c       ?close@?$__crt_unique_handle_t@U__crt_hmodule_traits@@@@QEAAXXZ 000000014003c76c f i libucrt:exit.obj
 0001:0003b790       ?close@__crt_hmodule_traits@@SA_NPEAUHINSTANCE__@@@Z 000000014003c790 f i libucrt:exit.obj
 0001:0003b8b8       ?get@?$__crt_unique_handle_t@U__crt_hmodule_traits@@@@QEBAPEAUHINSTANCE__@@XZ 000000014003c8b8 f i libucrt:exit.obj
 0001:0003b8bc       ?get_address_of@?$__crt_unique_handle_t@U__crt_hmodule_traits@@@@QEAAPEAPEAUHINSTANCE__@@XZ 000000014003c8bc f i libucrt:exit.obj
 0001:0003b8c0       ?get_invalid_value@__crt_hmodule_traits@@SAPEAUHINSTANCE__@@XZ 000000014003c8c0 f i libucrt:exit.obj
 0001:0003b9a0       _Exit                      000000014003c9a0 f   libucrt:exit.obj
 0001:0003b9ac       __acrt_initialize_thread_local_exit_callback 000000014003c9ac f   libucrt:exit.obj
 0001:0003b9b4       _c_exit                    000000014003c9b4 f   libucrt:exit.obj
 0001:0003b9c4       _cexit                     000000014003c9c4 f   libucrt:exit.obj
 0001:0003b9d4       _exit                      000000014003c9d4 f   libucrt:exit.obj
 0001:0003b9e0       _is_c_termination_complete 000000014003c9e0 f   libucrt:exit.obj
 0001:0003b9e8       _register_thread_local_exe_atexit_callback 000000014003c9e8 f   libucrt:exit.obj
 0001:0003ba24       exit                       000000014003ca24 f   libucrt:exit.obj
 0001:0003ba30       quick_exit                 000000014003ca30 f   libucrt:exit.obj
 0001:0003ba3c       ??$__crt_interlocked_read@H@@YAHPEDH@Z 000000014003ca3c f i libucrt:setmode.obj
 0001:0003ba40       ?value@?$dual_state_global@H@__crt_state_management@@QEAAAEAHXZ 000000014003ca40 f i libucrt:setmode.obj
 0001:0003ba44       _get_fmode                 000000014003ca44 f   libucrt:setmode.obj
 0001:0003ba74       _set_fmode                 000000014003ca74 f   libucrt:setmode.obj
 0001:0003bab4       _setmode                   000000014003cab4 f   libucrt:setmode.obj
 0001:0003bbd0       _setmode_nolock            000000014003cbd0 f   libucrt:setmode.obj
 0001:0003bcb8       ??$?RU__crt_locale_data@@@__crt_internal_free_policy@@QEBAXQEBU__crt_locale_data@@@Z 000000014003ccb8 f i libucrt:wsetlocale.obj
 0001:0003bcc0       ??$?RU__crt_locale_pointers@@@__crt_internal_free_policy@@QEBAXQEBU__crt_locale_pointers@@@Z 000000014003ccc0 f i libucrt:wsetlocale.obj
 0001:0003bcc8       ??$?RU__crt_multibyte_data@@@__crt_internal_free_policy@@QEBAXQEBU__crt_multibyte_data@@@Z 000000014003ccc8 f i libucrt:wsetlocale.obj
 0001:0003c0cc       ??0?$__crt_unique_heap_ptr@U__crt_locale_data@@U__crt_internal_free_policy@@@@QEAA@QEAU__crt_locale_data@@@Z 000000014003d0cc f i libucrt:wsetlocale.obj
 0001:0003c0d4       ??0?$__crt_unique_heap_ptr@U__crt_locale_pointers@@U__crt_internal_free_policy@@@@QEAA@QEAU__crt_locale_pointers@@@Z 000000014003d0d4 f i libucrt:wsetlocale.obj
 0001:0003c0dc       ??0?$__crt_unique_heap_ptr@U__crt_multibyte_data@@U__crt_internal_free_policy@@@@QEAA@QEAU__crt_multibyte_data@@@Z 000000014003d0dc f i libucrt:wsetlocale.obj
 0001:0003c0e4       ??0_expandlocale_locale_name_cache@@QEAA@QEA_W_KQEAU__crt_qualified_locale_data@@@Z 000000014003d0e4 f i libucrt:wsetlocale.obj
 0001:0003c140       ??1?$__crt_unique_heap_ptr@U__crt_locale_data@@U__crt_internal_free_policy@@@@QEAA@XZ 000000014003d140 f i libucrt:wsetlocale.obj
 0001:0003c15c       ??1?$__crt_unique_heap_ptr@U__crt_locale_pointers@@U__crt_internal_free_policy@@@@QEAA@XZ 000000014003d15c f i libucrt:wsetlocale.obj
 0001:0003c178       ??1?$__crt_unique_heap_ptr@U__crt_multibyte_data@@U__crt_internal_free_policy@@@@QEAA@XZ 000000014003d178 f i libucrt:wsetlocale.obj
 0001:0003c194       ??1_expandlocale_locale_name_cache@@QEAA@XZ 000000014003d194 f i libucrt:wsetlocale.obj
 0001:0003c1dc       ??B?$__crt_unique_heap_ptr@U__crt_locale_data@@U__crt_internal_free_policy@@@@QEBA_NXZ 000000014003d1dc f i libucrt:wsetlocale.obj
 0001:0003c1e4       ??B?$__crt_unique_heap_ptr@U__crt_locale_pointers@@U__crt_internal_free_policy@@@@QEBA_NXZ 000000014003d1e4 f i libucrt:wsetlocale.obj
 0001:0003c1ec       ??B?$__crt_unique_heap_ptr@U__crt_multibyte_data@@U__crt_internal_free_policy@@@@QEBA_NXZ 000000014003d1ec f i libucrt:wsetlocale.obj
 0001:0003c46c       ?commit_locale_name@_expandlocale_locale_name_cache@@QEAAXQEB_W_K@Z 000000014003d46c f i libucrt:wsetlocale.obj
 0001:0003c4e4       ?commit_locale_name_cache_already_updated@_expandlocale_locale_name_cache@@QEAAXQEB_W_K@Z 000000014003d4e4 f i libucrt:wsetlocale.obj
 0001:0003c524       ?detach@?$__crt_unique_heap_ptr@U__crt_locale_data@@U__crt_internal_free_policy@@@@QEAAPEAU__crt_locale_data@@XZ 000000014003d524 f i libucrt:wsetlocale.obj
 0001:0003c52c       ?detach@?$__crt_unique_heap_ptr@U__crt_locale_pointers@@U__crt_internal_free_policy@@@@QEAAPEAU__crt_locale_pointers@@XZ 000000014003d52c f i libucrt:wsetlocale.obj
 0001:0003c534       ?detach@?$__crt_unique_heap_ptr@U__crt_multibyte_data@@U__crt_internal_free_policy@@@@QEAAPEAU__crt_multibyte_data@@XZ 000000014003d534 f i libucrt:wsetlocale.obj
 0001:0003c53c       ?get@?$__crt_unique_heap_ptr@U__crt_locale_data@@U__crt_internal_free_policy@@@@QEBAPEAU__crt_locale_data@@XZ 000000014003d53c f i libucrt:wsetlocale.obj
 0001:0003c540       ?get@?$__crt_unique_heap_ptr@U__crt_locale_pointers@@U__crt_internal_free_policy@@@@QEBAPEAU__crt_locale_pointers@@XZ 000000014003d540 f i libucrt:wsetlocale.obj
 0001:0003c544       ?get@?$__crt_unique_heap_ptr@U__crt_multibyte_data@@U__crt_internal_free_policy@@@@QEBAPEAU__crt_multibyte_data@@XZ 000000014003d544 f i libucrt:wsetlocale.obj
 0001:0003c548       ?is_valid@?$__crt_unique_heap_ptr@U__crt_locale_data@@U__crt_internal_free_policy@@@@QEBA_NXZ 000000014003d548 f i libucrt:wsetlocale.obj
 0001:0003c550       ?is_valid@?$__crt_unique_heap_ptr@U__crt_locale_pointers@@U__crt_internal_free_policy@@@@QEBA_NXZ 000000014003d550 f i libucrt:wsetlocale.obj
 0001:0003c558       ?is_valid@?$__crt_unique_heap_ptr@U__crt_multibyte_data@@U__crt_internal_free_policy@@@@QEBA_NXZ 000000014003d558 f i libucrt:wsetlocale.obj
 0001:0003c560       ?release@?$__crt_unique_heap_ptr@U__crt_locale_data@@U__crt_internal_free_policy@@@@QEAAXXZ 000000014003d560 f i libucrt:wsetlocale.obj
 0001:0003c57c       ?release@?$__crt_unique_heap_ptr@U__crt_locale_pointers@@U__crt_internal_free_policy@@@@QEAAXXZ 000000014003d57c f i libucrt:wsetlocale.obj
 0001:0003c598       ?release@?$__crt_unique_heap_ptr@U__crt_multibyte_data@@U__crt_internal_free_policy@@@@QEAAXXZ 000000014003d598 f i libucrt:wsetlocale.obj
 0001:0003c5b4       ?value@?$dual_state_global@PEAU__crt_locale_data@@@__crt_state_management@@QEAAAEAPEAU__crt_locale_data@@XZ 000000014003d5b4 f i libucrt:wsetlocale.obj
 0001:0003c5b8       __acrt_copy_locale_name    000000014003d5b8 f   libucrt:wsetlocale.obj
 0001:0003c63c       __acrt_set_locale_changed  000000014003d63c f   libucrt:wsetlocale.obj
 0001:0003c648       __acrt_uninitialize_locale 000000014003d648 f   libucrt:wsetlocale.obj
 0001:0003c678       __ascii_tolower            000000014003d678 f i libucrt:wsetlocale.obj
 0001:0003c688       __ascii_towlower           000000014003d688 f i libucrt:wsetlocale.obj
 0001:0003c698       __lc_lctowcs               000000014003d698 f   libucrt:wsetlocale.obj
 0001:0003c73c       __lc_wcstolc               000000014003d73c f   libucrt:wsetlocale.obj
 0001:0003c8a0       _configthreadlocale        000000014003d8a0 f   libucrt:wsetlocale.obj
 0001:0003c9cc       _create_locale             000000014003d9cc f   libucrt:wsetlocale.obj
 0001:0003cec8       _free_locale               000000014003dec8 f   libucrt:wsetlocale.obj
 0001:0003cf6c       _get_current_locale        000000014003df6c f   libucrt:wsetlocale.obj
 0001:0003d030       _wcreate_locale            000000014003e030 f   libucrt:wsetlocale.obj
 0001:0003d178       _wcscats                   000000014003e178 f   libucrt:wsetlocale.obj
 0001:0003d1e0       _wsetlocale                000000014003e1e0 f   libucrt:wsetlocale.obj
 0001:0003e020       _query_new_mode            000000014003f020 f   libucrt:new_mode.obj
 0001:0003e030       _set_new_mode              000000014003f030 f   libucrt:new_mode.obj
 0001:0003e05c       ?value@?$dual_state_global@J@__crt_state_management@@QEAAAEAJXZ 000000014003f05c f i libucrt:new_mode.obj
 0001:0003e060       __p__commode               000000014003f060 f   libucrt:ncommode.obj
 0001:0003e068       ??$?B$$A6AXXZ@__crt_fast_encoded_nullptr_t@@QEBAP6AXXZXZ 000000014003f068 f i libucrt:onexit.obj
 0001:0003e070       ??$?BP6AXXZ@__crt_fast_encoded_nullptr_t@@QEBAPEAP6AXXZXZ 000000014003f070 f i libucrt:onexit.obj
 0001:0003e078       ??$?RP6AXXZ@__crt_internal_free_policy@@QEBAXQEBQ6AXXZ@Z 000000014003f078 f i libucrt:onexit.obj
 0001:0003e150       ??$__crt_fast_decode_pointer@P6AXXZ@@YAP6AXXZQ6AXXZ@Z 000000014003f150 f i libucrt:onexit.obj
 0001:0003e168       ??$__crt_fast_decode_pointer@PEAP6AXXZ@@YAPEAP6AXXZQEAP6AXXZ@Z 000000014003f168 f i libucrt:onexit.obj
 0001:0003e180       ??$__crt_fast_encode_pointer@P6AHXZ@@YAP6AHXZQ6AHXZ@Z 000000014003f180 f i libucrt:onexit.obj
 0001:0003e1a0       ??$__crt_fast_encode_pointer@P6AXXZ@@YAP6AXXZQ6AXXZ@Z 000000014003f1a0 f i libucrt:onexit.obj
 0001:0003e1c0       ??$__crt_fast_encode_pointer@PEAP6AXXZ@@YAPEAP6AXXZQEAP6AXXZ@Z 000000014003f1c0 f i libucrt:onexit.obj
 0001:0003e214       ??0?$__crt_unique_heap_ptr@P6AXXZU__crt_internal_free_policy@@@@QEAA@QEAP6AXXZ@Z 000000014003f214 f i libucrt:onexit.obj
 0001:0003e21c       ??1?$__crt_unique_heap_ptr@P6AXXZU__crt_internal_free_policy@@@@QEAA@XZ 000000014003f21c f i libucrt:onexit.obj
 0001:0003e238       ??1scoped_global_state_reset@__crt_state_management@@QEAA@XZ 000000014003f238 f i libucrt:onexit.obj
 0001:0003e524       ?detach@?$__crt_unique_heap_ptr@P6AXXZU__crt_internal_free_policy@@@@QEAAPEAP6AXXZXZ 000000014003f524 f i libucrt:onexit.obj
 0001:0003e52c       ?release@?$__crt_unique_heap_ptr@P6AXXZU__crt_internal_free_policy@@@@QEAAXXZ 000000014003f52c f i libucrt:onexit.obj
 0001:0003e548       _crt_at_quick_exit         000000014003f548 f   libucrt:onexit.obj
 0001:0003e558       _crt_atexit                000000014003f558 f   libucrt:onexit.obj
 0001:0003e568       _execute_onexit_table      000000014003f568 f   libucrt:onexit.obj
 0001:0003e5ac       _initialize_onexit_table   000000014003f5ac f   libucrt:onexit.obj
 0001:0003e5d4       _register_onexit_function  000000014003f5d4 f   libucrt:onexit.obj
 0001:0003e75c       ??$?BX@__crt_fast_encoded_nullptr_t@@QEBAPEAXXZ 000000014003f75c f i libucrt:initialization.obj
 0001:0003e764       ??$__crt_fast_encode_pointer@PEAX@@YAPEAXQEAX@Z 000000014003f764 f i libucrt:initialization.obj
 0001:0003e820       ?__acrt_stdio_is_initialized@@YA_NXZ 000000014003f820 f i libucrt:initialization.obj
 0001:0003e82c       ?initialize@?$dual_state_global@PEAU__crt_locale_data@@@__crt_state_management@@QEAAXQEAU__crt_locale_data@@@Z 000000014003f82c f i libucrt:initialization.obj
 0001:0003e83c       __acrt_initialize          000000014003f83c f   libucrt:initialization.obj
 0001:0003e850       __acrt_thread_attach       000000014003f850 f   libucrt:initialization.obj
 0001:0003e864       __acrt_thread_detach       000000014003f864 f   libucrt:initialization.obj
 0001:0003e874       __acrt_uninitialize        000000014003f874 f   libucrt:initialization.obj
 0001:0003e8ac       __acrt_uninitialize_critical 000000014003f8ac f   libucrt:initialization.obj
 0001:0003e8d0       _get_terminate             000000014003f8d0 f   libucrt:terminate.obj
 0001:0003e8f4       set_terminate              000000014003f8f4 f   libucrt:terminate.obj
 0001:0003e920       terminate                  000000014003f920 f   libucrt:terminate.obj
 0001:0003e940       free                       000000014003f940 f   libucrt:free.obj
 0001:0003e950       malloc                     000000014003f950 f   libucrt:malloc.obj
 0001:0003e9e0       strcpy_s                   000000014003f9e0 f   libucrt:strcpy_s.obj
 0001:0003ea60       _set_abort_behavior        000000014003fa60 f   libucrt:abort.obj
 0001:0003ea7c       abort                      000000014003fa7c f   libucrt:abort.obj
 0001:0003eae0       calloc                     000000014003fae0 f   libucrt:calloc.obj
 0001:0003eae8       ??$is_overflow_condition@_K@__crt_strtox@@YA_NI_K@Z 000000014003fae8 f i libucrt:atox.obj
 0001:0003eb20       ??$make_c_string_character_source@D$$T@__crt_strtox@@YA?AV?$c_string_character_source@D@0@QEBD$$T@Z 000000014003fb20 f i libucrt:atox.obj
 0001:0003eb34       ??$make_c_string_character_source@_W$$T@__crt_strtox@@YA?AV?$c_string_character_source@_W@0@QEB_W$$T@Z 000000014003fb34 f i libucrt:atox.obj
 0001:0003eb48       ??$parse_integer@KV?$c_string_character_source@D@__crt_strtox@@$00@__crt_strtox@@YAKAEAV__crt_cached_ptd_host@@V?$c_string_character_source@D@0@H_N@Z 000000014003fb48 f i libucrt:atox.obj
 0001:0003ee24       ??$parse_integer@KV?$c_string_character_source@_W@__crt_strtox@@$00@__crt_strtox@@YAKAEAV__crt_cached_ptd_host@@V?$c_string_character_source@_W@0@H_N@Z 000000014003fe24 f i libucrt:atox.obj
 0001:0003f5c0       ??$parse_integer@_KV?$c_string_character_source@D@__crt_strtox@@$00@__crt_strtox@@YA_KAEAV__crt_cached_ptd_host@@V?$c_string_character_source@D@0@H_N@Z 00000001400405c0 f i libucrt:atox.obj
 0001:0003f89c       ??$parse_integer@_KV?$c_string_character_source@_W@__crt_strtox@@$00@__crt_strtox@@YA_KAEAV__crt_cached_ptd_host@@V?$c_string_character_source@_W@0@H_N@Z 000000014004089c f i libucrt:atox.obj
 0001:00040020       ??$parse_integer_from_string@JD$$T@__crt_strtox@@YAJQEBD$$THQEAU__crt_locale_pointers@@@Z 0000000140041020 f i libucrt:atox.obj
 0001:000400dc       ??$parse_integer_from_string@J_W$$T@__crt_strtox@@YAJQEB_W$$THQEAU__crt_locale_pointers@@@Z 00000001400410dc f i libucrt:atox.obj
 0001:00040198       ??$parse_integer_from_string@_JD$$T@__crt_strtox@@YA_JQEBD$$THQEAU__crt_locale_pointers@@@Z 0000000140041198 f i libucrt:atox.obj
 0001:00040258       ??$parse_integer_from_string@_J_W$$T@__crt_strtox@@YA_JQEB_W$$THQEAU__crt_locale_pointers@@@Z 0000000140041258 f i libucrt:atox.obj
 0001:00040318       ?is_space@__crt_strtox@@YA_NDQEAU__crt_locale_pointers@@@Z 0000000140041318 f i libucrt:atox.obj
 0001:00040338       ?is_space@__crt_strtox@@YA_N_WPEAU__crt_locale_pointers@@@Z 0000000140041338 f i libucrt:atox.obj
 0001:00040350       ?maximum_signed_value@__crt_strtox@@YA_J_K@Z 0000000140041350 f i libucrt:atox.obj
 0001:0004035c       ?minimum_signed_value@__crt_strtox@@YA_J_K@Z 000000014004135c f i libucrt:atox.obj
 0001:00040368       __acrt_get_locale_data_prefix 0000000140041368 f i libucrt:atox.obj
 0001:0004036c       _atoi64                    000000014004136c f   libucrt:atox.obj
 0001:00040420       _atoi64_l                  0000000140041420 f   libucrt:atox.obj
 0001:000404dc       _atoi_l                    00000001400414dc f   libucrt:atox.obj
 0001:00040598       _atol_l                    0000000140041598 f   libucrt:atox.obj
 0001:00040654       _atoll_l                   0000000140041654 f   libucrt:atox.obj
 0001:00040710       _chvalidchk_l              0000000140041710 f i libucrt:atox.obj
 0001:00040774       _ischartype_l              0000000140041774 f i libucrt:atox.obj
 0001:000407ec       _wtoi                      00000001400417ec f   libucrt:atox.obj
 0001:0004089c       _wtoi64                    000000014004189c f   libucrt:atox.obj
 0001:00040950       _wtoi64_l                  0000000140041950 f   libucrt:atox.obj
 0001:00040a0c       _wtoi_l                    0000000140041a0c f   libucrt:atox.obj
 0001:00040ac8       _wtol                      0000000140041ac8 f   libucrt:atox.obj
 0001:00040b78       _wtol_l                    0000000140041b78 f   libucrt:atox.obj
 0001:00040c34       _wtoll                     0000000140041c34 f   libucrt:atox.obj
 0001:00040ce8       _wtoll_l                   0000000140041ce8 f   libucrt:atox.obj
 0001:00040da4       atoi                       0000000140041da4 f   libucrt:atox.obj
 0001:00040e54       atol                       0000000140041e54 f   libucrt:atox.obj
 0001:00040f04       atoll                      0000000140041f04 f   libucrt:atox.obj
 0001:00040fc0       wcsncmp                    0000000140041fc0 f   libucrt:wcsncmp.obj
 0001:00040ff4       ??$__crt_fast_decode_pointer@P6AXPEB_W00I_K@Z@@YAP6AXPEB_W00I_K@ZQ6AX000I1@Z@Z 0000000140041ff4 f i libucrt:invalid_parameter.obj
 0001:0004100c       ??$__crt_fast_encode_pointer@P6AXPEB_W00I_K@Z@@YAP6AXPEB_W00I_K@ZQ6AX000I1@Z@Z 000000014004200c f i libucrt:invalid_parameter.obj
 0001:0004102c       ??$initialize_from_array@$$BY00Q6AXPEB_W00I_K@Z@?$dual_state_global@P6AXPEB_W00I_K@Z@__crt_state_management@@QEAAXAEAY00Q6AXPEB_W00I_K@Z@Z 000000014004202c f i libucrt:invalid_parameter.obj
 0001:000410b4       ?check_synchronize_global_state_index@__crt_cached_ptd_host@@AEAA_KXZ 00000001400420b4 f i libucrt:invalid_parameter.obj
 0001:000410e8       ?dangerous_get_state_array@?$dual_state_global@P6AXPEB_W00I_K@Z@__crt_state_management@@QEAAPEAP6AXPEB_W00I_K@ZXZ 00000001400420e8 f i libucrt:invalid_parameter.obj
 0001:000410ec       ?get_current_global_state_index@__crt_cached_ptd_host@@QEAA_KXZ 00000001400420ec f i libucrt:invalid_parameter.obj
 0001:0004112c       ?get_raw_ptd_noexit@__crt_cached_ptd_host@@QEAAPEAU__acrt_ptd@@XZ 000000014004212c f i libucrt:invalid_parameter.obj
 0001:00041198       ?try_synchronize_per_thread_data@__crt_cached_ptd_host@@AEAAPEAU__acrt_ptd@@XZ 0000000140042198 f i libucrt:invalid_parameter.obj
 0001:000411fc       ?value@?$dual_state_global@P6AXPEB_W00I_K@Z@__crt_state_management@@QEAAAEAP6AXPEB_W00I_K@ZAEAV__crt_cached_ptd_host@@@Z 00000001400421fc f i libucrt:invalid_parameter.obj
 0001:00041248       ?value@?$dual_state_global@P6AXPEB_W00I_K@Z@__crt_state_management@@QEAAAEAP6AXPEB_W00I_K@ZXZ 0000000140042248 f i libucrt:invalid_parameter.obj
 0001:0004124c       __acrt_call_reportfault    000000014004224c f   libucrt:invalid_parameter.obj
 0001:000413bc       __acrt_initialize_invalid_parameter_handler 00000001400423bc f   libucrt:invalid_parameter.obj
 0001:000413c4       _get_invalid_parameter_handler 00000001400423c4 f   libucrt:invalid_parameter.obj
 0001:000413e0       _get_thread_local_invalid_parameter_handler 00000001400423e0 f   libucrt:invalid_parameter.obj
 0001:000413fc       _invalid_parameter         00000001400423fc f   libucrt:invalid_parameter.obj
 0001:00041498       _invalid_parameter_internal 0000000140042498 f   libucrt:invalid_parameter.obj
 0001:00041550       _invalid_parameter_noinfo  0000000140042550 f   libucrt:invalid_parameter.obj
 0001:00041570       _invalid_parameter_noinfo_noreturn 0000000140042570 f   libucrt:invalid_parameter.obj
 0001:000415a0       _invoke_watson             00000001400425a0 f   libucrt:invalid_parameter.obj
 0001:000415e8       _set_invalid_parameter_handler 00000001400425e8 f   libucrt:invalid_parameter.obj
 0001:0004161c       _set_thread_local_invalid_parameter_handler 000000014004261c f   libucrt:invalid_parameter.obj
 0001:000416d0       ?get_doserrno@__crt_cached_ptd_host@@QEAA@XZ 00000001400426d0 f i libucrt:errno.obj
 0001:000416d8       ?set@?$cached@K@__crt_cached_ptd_host@@QEAAKK@Z 00000001400426d8 f i libucrt:errno.obj
 0001:000416e4       __acrt_errno_from_os_error 00000001400426e4 f   libucrt:errno.obj
 0001:000417b4       __acrt_errno_map_os_error  00000001400427b4 f   libucrt:errno.obj
 0001:000417dc       __acrt_errno_map_os_error_ptd 00000001400427dc f   libucrt:errno.obj
 0001:00041800       __doserrno                 0000000140042800 f   libucrt:errno.obj
 0001:00041824       _errno                     0000000140042824 f   libucrt:errno.obj
 0001:00041848       _get_doserrno              0000000140042848 f   libucrt:errno.obj
 0001:00041874       _get_errno                 0000000140042874 f   libucrt:errno.obj
 0001:000418a0       _set_doserrno              00000001400428a0 f   libucrt:errno.obj
 0001:000418c8       _set_errno                 00000001400428c8 f   libucrt:errno.obj
 0001:000418f0       _free_base                 00000001400428f0 f   libucrt:free_base.obj
 0001:00041950       _malloc_base               0000000140042950 f   libucrt:malloc_base.obj
 0001:000423d0       ??1?$__crt_simd_cleanup_guard@$00@@QEAA@XZ 00000001400433d0 f i libucrt:strnlen.obj
 0001:000423e0       ??1?$__crt_simd_cleanup_guard@$0A@@@QEAA@XZ 00000001400433e0 f i libucrt:strnlen.obj
 0001:000423f0       ?compare_equals@?$__crt_simd_traits@$00E@@SA?AT__m256i@@T2@0@Z 00000001400433f0 f i libucrt:strnlen.obj
 0001:00042400       ?compare_equals@?$__crt_simd_traits@$00G@@SA?AT__m256i@@T2@0@Z 0000000140043400 f i libucrt:strnlen.obj
 0001:00042410       ?compare_equals@?$__crt_simd_traits@$0A@E@@SA?AT__m128i@@T2@0@Z 0000000140043410 f i libucrt:strnlen.obj
 0001:00042420       ?compare_equals@?$__crt_simd_traits@$0A@G@@SA?AT__m128i@@T2@0@Z 0000000140043420 f i libucrt:strnlen.obj
 0001:00042430       ?compute_byte_mask@?$__crt_simd_pack_traits@$00@@SAHT__m256i@@@Z 0000000140043430 f i libucrt:strnlen.obj
 0001:00042440       ?compute_byte_mask@?$__crt_simd_pack_traits@$0A@@@SAHT__m128i@@@Z 0000000140043440 f i libucrt:strnlen.obj
 0001:00042450       ?get_zero_pack@?$__crt_simd_pack_traits@$00@@SA?AT__m256i@@XZ 0000000140043450 f i libucrt:strnlen.obj
 0001:00042460       ?get_zero_pack@?$__crt_simd_pack_traits@$0A@@@SA?AT__m128i@@XZ 0000000140043460 f i libucrt:strnlen.obj
 0001:00042470       strnlen                    0000000140043470 f   libucrt:strnlen.obj
 0001:00042600       wcslen                     0000000140043600 f   libucrt:strnlen.obj
 0001:00042750       wcsnlen                    0000000140043750 f   libucrt:strnlen.obj
 0001:00042958       ?value@?$dual_state_global@PEAU__crt_multibyte_data@@@__crt_state_management@@QEAAAEAPEAU__crt_multibyte_data@@XZ 0000000140043958 f i libucrt:locale_update.obj
 0001:0004295c       ?value_explicit@?$dual_state_global@PEAU__crt_locale_data@@@__crt_state_management@@QEAAAEAPEAU__crt_locale_data@@_K@Z 000000014004395c f i libucrt:locale_update.obj
 0001:00042964       ?value_explicit@?$dual_state_global@PEAU__crt_multibyte_data@@@__crt_state_management@@QEAAAEAPEAU__crt_multibyte_data@@_K@Z 0000000140043964 f i libucrt:locale_update.obj
 0001:0004296c       __acrt_should_sync_with_global_locale 000000014004396c f i libucrt:locale_update.obj
 0001:0004297c       __acrt_update_locale_info  000000014004397c f   libucrt:locale_update.obj
 0001:000429b0       __acrt_update_locale_info_explicit 00000001400439b0 f   libucrt:locale_update.obj
 0001:000429e8       __acrt_update_multibyte_info 00000001400439e8 f   libucrt:locale_update.obj
 0001:00042a1c       __acrt_update_multibyte_info_explicit 0000000140043a1c f   libucrt:locale_update.obj
 0001:00042a54       ?__acrt_fp_classify@@YA?AW4__acrt_fp_class@@AEBN@Z 0000000140043a54 f i libucrt:cvt.obj
 0001:00042ab0       ?__acrt_fp_is_negative@@YA_NAEBN@Z 0000000140043ab0 f i libucrt:cvt.obj
 0001:00043718       ?strrchr@@YAPEADQEADH@Z    0000000140044718 f i libucrt:cvt.obj
 0001:00043720       __acrt_fp_format           0000000140044720 f   libucrt:cvt.obj
 0001:00043a08       ?value_or@?$cached@H@__crt_cached_ptd_host@@QEBAHH@Z 0000000140044a08 f i libucrt:wctomb.obj
 0001:00043a14       _wctomb_internal           0000000140044a14 f   libucrt:wctomb.obj
 0001:00043bc4       _wctomb_l                  0000000140044bc4 f   libucrt:wctomb.obj
 0001:00043cb0       _wctomb_s_l                0000000140044cb0 f   libucrt:wctomb.obj
 0001:00043d60       wctomb                     0000000140044d60 f   libucrt:wctomb.obj
 0001:00043e28       wctomb_s                   0000000140044e28 f   libucrt:wctomb.obj
 0001:00043ec8       _isleadbyte_fast_internal  0000000140044ec8 f i libucrt:mbtowc.obj
 0001:00043ee0       _mbtowc_internal           0000000140044ee0 f   libucrt:mbtowc.obj
 0001:00044058       _mbtowc_l                  0000000140045058 f   libucrt:mbtowc.obj
 0001:000440fc       mbtowc                     00000001400450fc f   libucrt:mbtowc.obj
 0001:00044194       ?__mblen_utf8@__crt_mbstring@@YAHPEBD@Z 0000000140045194 f   libucrt:mbrtoc32.obj
 0001:000441cc       ?__mbrtoc32_utf8@__crt_mbstring@@YA_KPEA_UPEBD_KPEAU_Mbstatet@@AEAV__crt_cached_ptd_host@@@Z 00000001400451cc f   libucrt:mbrtoc32.obj
 0001:0004438c       mbrtoc32                   000000014004538c f   libucrt:mbrtoc32.obj
 0001:00044430       ?__c16rtomb_utf8@__crt_mbstring@@YA_KPEAD_SPEAU_Mbstatet@@AEAV__crt_cached_ptd_host@@@Z 0000000140045430 f   libucrt:c16rtomb.obj
 0001:00044524       c16rtomb                   0000000140045524 f   libucrt:c16rtomb.obj
 0001:000445e8       ?__mbrtowc_utf8@__crt_mbstring@@YA_KPEA_WPEBD_KPEAU_Mbstatet@@AEAV__crt_cached_ptd_host@@@Z 00000001400455e8 f   libucrt:mbrtowc.obj
 0001:00044630       ?__mbsrtowcs_utf8@__crt_mbstring@@YA_KPEA_WPEAPEBD_KPEAU_Mbstatet@@AEAV__crt_cached_ptd_host@@@Z 0000000140045630 f   libucrt:mbrtowc.obj
 0001:00044ca8       btowc                      0000000140045ca8 f   libucrt:mbrtowc.obj
 0001:00044d80       mbrlen                     0000000140045d80 f   libucrt:mbrtowc.obj
 0001:00044e48       mbrtowc                    0000000140045e48 f   libucrt:mbrtowc.obj
 0001:00044f30       mbsrtowcs                  0000000140045f30 f   libucrt:mbrtowc.obj
 0001:00044fd4       mbsrtowcs_s                0000000140045fd4 f   libucrt:mbrtowc.obj
 0001:00045134       ?lowio_handle@__crt_stdio_stream@@QEBAHXZ 0000000140046134 f i libucrt:fileno.obj
 0001:0004513c       _fileno                    000000014004613c f   libucrt:fileno.obj
 0001:00045164       ??$?RPEAU__crt_stdio_stream_data@@@__crt_internal_free_policy@@QEBAXQEBQEAU__crt_stdio_stream_data@@@Z 0000000140046164 f i libucrt:_file.obj
 0001:0004516c       ??0?$__crt_unique_heap_ptr@PEAU__crt_stdio_stream_data@@U__crt_internal_free_policy@@@@QEAA@QEAPEAU__crt_stdio_stream_data@@@Z 000000014004616c f i libucrt:_file.obj
 0001:00045174       ??1?$__crt_unique_heap_ptr@PEAU__crt_stdio_stream_data@@U__crt_internal_free_policy@@@@QEAA@XZ 0000000140046174 f i libucrt:_file.obj
 0001:00045190       ?detach@?$__crt_unique_heap_ptr@PEAU__crt_stdio_stream_data@@U__crt_internal_free_policy@@@@QEAAPEAPEAU__crt_stdio_stream_data@@XZ 0000000140046190 f i libucrt:_file.obj
 0001:00045198       ?release@?$__crt_unique_heap_ptr@PEAU__crt_stdio_stream_data@@U__crt_internal_free_policy@@@@QEAAXXZ 0000000140046198 f i libucrt:_file.obj
 0001:000451b4       __acrt_initialize_stdio    00000001400461b4 f   libucrt:_file.obj
 0001:000452d4       __acrt_iob_func            00000001400462d4 f   libucrt:_file.obj
 0001:000452e8       __acrt_uninitialize_stdio  00000001400462e8 f   libucrt:_file.obj
 0001:00045344       _get_stream_buffer_pointers 0000000140046344 f   libucrt:_file.obj
 0001:0004538c       _lock_file                 000000014004638c f   libucrt:_file.obj
 0001:00045398       _unlock_file               0000000140046398 f   libucrt:_file.obj
 0001:000453a4       _get_printf_count_output   00000001400463a4 f   libucrt:printf_count_output.obj
 0001:000453bc       _set_printf_count_output   00000001400463bc f   libucrt:printf_count_output.obj
 0001:00045480       _fputwc_nolock             0000000140046480 f   libucrt:fputwc.obj
 0001:0004551c       _fputwc_nolock_internal    000000014004651c f   libucrt:fputwc.obj
 0001:000456b0       _fputwchar                 00000001400466b0 f   libucrt:fputwc.obj
 0001:000456d4       _putwc_nolock              00000001400466d4 f   libucrt:fputwc.obj
 0001:000456dc       fputwc                     00000001400466dc f   libucrt:fputwc.obj
 0001:00045778       putwc                      0000000140046778 f   libucrt:fputwc.obj
 0001:00045780       putwchar                   0000000140046780 f   libucrt:fputwc.obj
 0001:000458ec       _fputc_nolock              00000001400468ec f   libucrt:fputc.obj
 0001:00045998       _fputc_nolock_internal     0000000140046998 f   libucrt:fputc.obj
 0001:000459b0       _fputchar                  00000001400469b0 f   libucrt:fputc.obj
 0001:000459d4       _putc_nolock               00000001400469d4 f   libucrt:fputc.obj
 0001:000459dc       fputc                      00000001400469dc f   libucrt:fputc.obj
 0001:00045a74       putc                       0000000140046a74 f   libucrt:fputc.obj
 0001:00045a7c       putchar                    0000000140046a7c f   libucrt:fputc.obj
 0001:00045a84       ?has_any_buffer@__crt_stdio_stream@@QEBA_NXZ 0000000140046a84 f i libucrt:_sftbuf.obj
 0001:00045a98       ?has_any_of@__crt_stdio_stream@@QEBA_NJ@Z 0000000140046a98 f i libucrt:_sftbuf.obj
 0001:00045aa8       ?has_temporary_buffer@__crt_stdio_stream@@QEBA_NXZ 0000000140046aa8 f i libucrt:_sftbuf.obj
 0001:00045ab8       ?set_flags@__crt_stdio_stream@@QEBA_NJ@Z 0000000140046ab8 f i libucrt:_sftbuf.obj
 0001:00045ad8       ?unset_flags@__crt_stdio_stream@@QEBA_NJ@Z 0000000140046ad8 f i libucrt:_sftbuf.obj
 0001:00045b00       __acrt_should_use_temporary_buffer 0000000140046b00 f   libucrt:_sftbuf.obj
 0001:00045b4c       __acrt_stdio_begin_temporary_buffering_nolock 0000000140046b4c f   libucrt:_sftbuf.obj
 0001:00045c14       __acrt_stdio_end_temporary_buffering_nolock 0000000140046c14 f   libucrt:_sftbuf.obj
 0001:00045c54       ??$?RU__acrt_ptd@@@__crt_internal_free_policy@@QEBAXQEBU__acrt_ptd@@@Z 0000000140046c54 f i libucrt:per_thread_data.obj
 0001:00045e24       ??$internal_get_ptd_head@P6APEAXK@Z@@YAPEAU__acrt_ptd@@P6APEAXK@Z@Z 0000000140046e24 f i libucrt:per_thread_data.obj
 0001:00045e68       ??$try_get_ptd_head@P6APEAXK@Z@@YAPEAU__acrt_ptd@@P6APEAXK@Z@Z 0000000140046e68 f i libucrt:per_thread_data.obj
 0001:00045ef8       ??0?$__crt_unique_heap_ptr@U__acrt_ptd@@U__crt_internal_free_policy@@@@QEAA@QEAU__acrt_ptd@@@Z 0000000140046ef8 f i libucrt:per_thread_data.obj
 0001:00045f00       ??1?$__crt_unique_heap_ptr@U__acrt_ptd@@U__crt_internal_free_policy@@@@QEAA@XZ 0000000140046f00 f i libucrt:per_thread_data.obj
 0001:00045f1c       ??B?$__crt_unique_heap_ptr@U__acrt_ptd@@U__crt_internal_free_policy@@@@QEBA_NXZ 0000000140046f1c f i libucrt:per_thread_data.obj
 0001:00046170       ?dangerous_get_state_array@?$dual_state_global@PEAU__crt_locale_data@@@__crt_state_management@@QEAAPEAPEAU__crt_locale_data@@XZ 0000000140047170 f i libucrt:per_thread_data.obj
 0001:00046384       ?detach@?$__crt_unique_heap_ptr@U__acrt_ptd@@U__crt_internal_free_policy@@@@QEAAPEAU__acrt_ptd@@XZ 0000000140047384 f i libucrt:per_thread_data.obj
 0001:0004638c       ?get@?$__crt_unique_heap_ptr@U__acrt_ptd@@U__crt_internal_free_policy@@@@QEBAPEAU__acrt_ptd@@XZ 000000014004738c f i libucrt:per_thread_data.obj
 0001:00046390       ?get_current_state_index2@__crt_state_management@@YA_KXZ 0000000140047390 f i libucrt:per_thread_data.obj
 0001:00046394       ?internal_get_ptd_head_slow@@YAPEAU__acrt_ptd@@XZ 0000000140047394 f   libucrt:per_thread_data.obj
 0001:00046540       ?is_valid@?$__crt_unique_heap_ptr@U__acrt_ptd@@U__crt_internal_free_policy@@@@QEBA_NXZ 0000000140047540 f i libucrt:per_thread_data.obj
 0001:00046548       ?release@?$__crt_unique_heap_ptr@U__acrt_ptd@@U__crt_internal_free_policy@@@@QEAAXXZ 0000000140047548 f i libucrt:per_thread_data.obj
 0001:000465cc       __acrt_freeptd             00000001400475cc f   libucrt:per_thread_data.obj
 0001:0004661c       __acrt_getptd              000000014004761c f   libucrt:per_thread_data.obj
 0001:00046638       __acrt_getptd_head         0000000140047638 f   libucrt:per_thread_data.obj
 0001:0004667c       __acrt_getptd_noexit       000000014004767c f   libucrt:per_thread_data.obj
 0001:0004670c       __acrt_getptd_noexit_explicit 000000014004770c f   libucrt:per_thread_data.obj
 0001:00046768       __acrt_initialize_ptd      0000000140047768 f   libucrt:per_thread_data.obj
 0001:000467ac       __acrt_uninitialize_ptd    00000001400477ac f   libucrt:per_thread_data.obj
 0001:000467d0       __threadhandle             00000001400477d0 f   libucrt:per_thread_data.obj
 0001:000467d8       __threadid                 00000001400477d8 f   libucrt:per_thread_data.obj
 0001:000467e0       __p___mb_cur_max           00000001400477e0 f   libucrt:nlsdata.obj
 0001:00046a34       __acrt_initialize_lowio    0000000140047a34 f   libucrt:ioinit.obj
 0001:00046a70       __acrt_uninitialize_lowio  0000000140047a70 f   libucrt:ioinit.obj
 0001:00046ab0       _set_error_mode            0000000140047ab0 f   libucrt:set_error_mode.obj
 0001:00046b90       wcscat_s                   0000000140047b90 f   libucrt:wcscat_s.obj
 0001:00046cb0       wcscpy_s                   0000000140047cb0 f   libucrt:wcscpy_s.obj
 0001:00046e80       wcsncpy_s                  0000000140047e80 f   libucrt:wcsncpy_s.obj
 0001:0004710c       ??$message_box@$$TAEBQEBDAEBQEBDK@?$__crt_char_traits@D@@SAH$$QEA$$TAEBQEBD1$$QEAK@Z 000000014004810c f i libucrt:crtmbox.obj
 0001:00047120       ??$message_box@$$TAEBQEB_WAEBQEB_WK@?$__crt_char_traits@_W@@SAH$$QEA$$TAEBQEB_W1$$QEAK@Z 0000000140048120 f i libucrt:crtmbox.obj
 0001:00047134       ??$message_box@PEAUHWND__@@AEBQEBDAEBQEBDAEBI@?$__crt_char_traits@D@@SAH$$QEAPEAUHWND__@@AEBQEBD1AEBI@Z 0000000140048134 f i libucrt:crtmbox.obj
 0001:00047148       ??$message_box@PEAUHWND__@@AEBQEB_WAEBQEB_WAEBI@?$__crt_char_traits@_W@@SAH$$QEAPEAUHWND__@@AEBQEB_W1AEBI@Z 0000000140048148 f i libucrt:crtmbox.obj
 0001:0004715c       ??$output_debug_string@AEBQEBD@?$__crt_char_traits@D@@SAXAEBQEBD@Z 000000014004815c f i libucrt:crtmbox.obj
 0001:00047164       ??$output_debug_string@AEBQEB_W@?$__crt_char_traits@_W@@SAXAEBQEB_W@Z 0000000140048164 f i libucrt:crtmbox.obj
 0001:00047170       __acrt_show_narrow_message_box 0000000140048170 f   libucrt:crtmbox.obj
 0001:00047214       __acrt_show_wide_message_box 0000000140048214 f   libucrt:crtmbox.obj
 0001:000472c0       _calloc_base               00000001400482c0 f   libucrt:calloc_base.obj
 0001:00047360       ??$__acrt_convert_wcs_mbs_cp@D_WV<lambda_7c9dea7b4ca7285d2cdb541a38da6275>@@U__crt_win32_buffer_internal_dynamic_resizing@@@@YAHQEBDAEAV?$__crt_win32_buffer@_WU__crt_win32_buffer_internal_dynamic_resizing@@@@AEBV<lambda_7c9dea7b4ca7285d2cdb541a38da6275>@@I@Z 0000000140048360 f i libucrt:argv_wildcards.obj
 0001:00047500       ??$__acrt_convert_wcs_mbs_cp@_WDV<lambda_d8593a27d1aa8c02be35c86a17d324c4>@@U__crt_win32_buffer_internal_dynamic_resizing@@@@YAHQEB_WAEAV?$__crt_win32_buffer@DU__crt_win32_buffer_internal_dynamic_resizing@@@@AEBV<lambda_d8593a27d1aa8c02be35c86a17d324c4>@@I@Z 0000000140048500 f i libucrt:argv_wildcards.obj
 0001:000476ac       ??$__acrt_mbs_to_wcs_cp@U__crt_win32_buffer_internal_dynamic_resizing@@@@YAHQEBDAEAV?$__crt_win32_buffer@_WU__crt_win32_buffer_internal_dynamic_resizing@@@@I@Z 00000001400486ac f i libucrt:argv_wildcards.obj
 0001:000476bc       ??$__acrt_wcs_to_mbs_cp@U__crt_win32_buffer_internal_dynamic_resizing@@@@YAHQEB_WAEAV?$__crt_win32_buffer@DU__crt_win32_buffer_internal_dynamic_resizing@@@@I@Z 00000001400486bc f i libucrt:argv_wildcards.obj
 0001:00048518       ??$tcslen@AEBQEBD@?$__crt_char_traits@D@@SA_KAEBQEBD@Z 0000000140049518 f i libucrt:argv_wildcards.obj
 0001:0004852c       ??$tcslen@AEBQEB_W@?$__crt_char_traits@_W@@SA_KAEBQEB_W@Z 000000014004952c f i libucrt:argv_wildcards.obj
 0001:00048540       ??$tcsncpy_s@AEAPEAD_KAEAPEADAEB_K@?$__crt_char_traits@D@@SAHAEAPEAD$$QEA_K0AEB_K@Z 0000000140049540 f i libucrt:argv_wildcards.obj
 0001:00048554       ??$tcsncpy_s@AEAPEA_W_KAEAPEA_WAEB_K@?$__crt_char_traits@_W@@SAHAEAPEA_W$$QEA_K0AEB_K@Z 0000000140049554 f i libucrt:argv_wildcards.obj
 0001:00048568       ??$tcsncpy_s@PEADAEB_KAEBQEBDAEB_K@?$__crt_char_traits@D@@SAH$$QEAPEADAEB_KAEBQEBD1@Z 0000000140049568 f i libucrt:argv_wildcards.obj
 0001:0004857c       ??$tcsncpy_s@PEAD_KAEBQEBDAEB_K@?$__crt_char_traits@D@@SAH$$QEAPEAD$$QEA_KAEBQEBDAEB_K@Z 000000014004957c f i libucrt:argv_wildcards.obj
 0001:00048590       ??$tcsncpy_s@PEA_WAEB_KAEBQEB_WAEB_K@?$__crt_char_traits@_W@@SAH$$QEAPEA_WAEB_KAEBQEB_W1@Z 0000000140049590 f i libucrt:argv_wildcards.obj
 0001:000485a4       ??$tcsncpy_s@PEA_W_KAEBQEB_WAEB_K@?$__crt_char_traits@_W@@SAH$$QEAPEA_W$$QEA_KAEBQEB_WAEB_K@Z 00000001400495a4 f i libucrt:argv_wildcards.obj
 0001:000485b8       ??$tcspbrk@AEAPEADAEAY02$$CBD@?$__crt_char_traits@D@@SAPEADAEAPEADAEAY02$$CBD@Z 00000001400495b8 f i libucrt:argv_wildcards.obj
 0001:000485c0       ??$tcspbrk@AEAPEA_WAEAY02$$CB_W@?$__crt_char_traits@_W@@SAPEA_WAEAPEA_WAEAY02$$CB_W@Z 00000001400495c0 f i libucrt:argv_wildcards.obj
 0001:000485c8       ??0?$__crt_unique_handle_t@U__crt_findfile_traits@@@@QEAA@QEAX@Z 00000001400495c8 f i libucrt:argv_wildcards.obj
 0001:000485d0       ??0?$__crt_win32_buffer@DU__crt_win32_buffer_internal_dynamic_resizing@@@@QEAA@XZ 00000001400495d0 f i libucrt:argv_wildcards.obj
 0001:000485ec       ??0?$__crt_win32_buffer@_WU__crt_win32_buffer_internal_dynamic_resizing@@@@QEAA@XZ 00000001400495ec f i libucrt:argv_wildcards.obj
 0001:00048630       ??0_LocaleUpdate@@QEAA@QEAU__crt_locale_pointers@@@Z 0000000140049630 f i libucrt:argv_wildcards.obj
 0001:000486cc       ??1?$__crt_unique_handle_t@U__crt_findfile_traits@@@@QEAA@XZ 00000001400496cc f i libucrt:argv_wildcards.obj
 0001:000486f0       ??1?$__crt_win32_buffer@DU__crt_win32_buffer_internal_dynamic_resizing@@@@QEAA@XZ 00000001400496f0 f i libucrt:argv_wildcards.obj
 0001:00048714       ??1?$__crt_win32_buffer@_WU__crt_win32_buffer_internal_dynamic_resizing@@@@QEAA@XZ 0000000140049714 f i libucrt:argv_wildcards.obj
 0001:000487b0       ??1_LocaleUpdate@@QEAA@XZ  00000001400497b0 f i libucrt:argv_wildcards.obj
 0001:000487d4       ??R<lambda_7c9dea7b4ca7285d2cdb541a38da6275>@@QEBA@IQEBDQEA_W_K@Z 00000001400497d4 f i libucrt:argv_wildcards.obj
 0001:00048864       ??R<lambda_d8593a27d1aa8c02be35c86a17d324c4>@@QEBA@IQEB_WQEAD_K@Z 0000000140049864 f i libucrt:argv_wildcards.obj
 0001:00048894       ?GetLocaleT@_LocaleUpdate@@QEAAPEAU__crt_locale_pointers@@XZ 0000000140049894 f i libucrt:argv_wildcards.obj
 0001:0004889c       ?__acrt_get_utf8_acp_compatibility_codepage@@YAIXZ 000000014004989c f i libucrt:argv_wildcards.obj
 0001:000488e8       ?_deallocate@?$__crt_win32_buffer@DU__crt_win32_buffer_internal_dynamic_resizing@@@@AEAAXXZ 00000001400498e8 f i libucrt:argv_wildcards.obj
 0001:0004890c       ?_deallocate@?$__crt_win32_buffer@_WU__crt_win32_buffer_internal_dynamic_resizing@@@@AEAAXXZ 000000014004990c f i libucrt:argv_wildcards.obj
 0001:00048930       ?allocate@?$__crt_win32_buffer@DU__crt_win32_buffer_internal_dynamic_resizing@@@@QEAAH_K@Z 0000000140049930 f i libucrt:argv_wildcards.obj
 0001:00048994       ?allocate@?$__crt_win32_buffer@_WU__crt_win32_buffer_internal_dynamic_resizing@@@@QEAAH_K@Z 0000000140049994 f i libucrt:argv_wildcards.obj
 0001:000489f8       ?allocate@__crt_win32_buffer_internal_dynamic_resizing@@SAHQEAPEAX_KAEBV__crt_win32_buffer_empty_debug_info@@@Z 00000001400499f8 f i libucrt:argv_wildcards.obj
 0001:00048be4       ?capacity@?$__crt_win32_buffer@DU__crt_win32_buffer_internal_dynamic_resizing@@@@QEBA_KXZ 0000000140049be4 f i libucrt:argv_wildcards.obj
 0001:00048bec       ?capacity@?$__crt_win32_buffer@_WU__crt_win32_buffer_internal_dynamic_resizing@@@@QEBA_KXZ 0000000140049bec f i libucrt:argv_wildcards.obj
 0001:00048bf4       ?close@?$__crt_unique_handle_t@U__crt_findfile_traits@@@@QEAAXXZ 0000000140049bf4 f i libucrt:argv_wildcards.obj
 0001:00048c18       ?close@__crt_findfile_traits@@SA_NPEAX@Z 0000000140049c18 f i libucrt:argv_wildcards.obj
 0001:00048c2c       ?data@?$__crt_win32_buffer@DU__crt_win32_buffer_internal_dynamic_resizing@@@@QEAAPEADXZ 0000000140049c2c f i libucrt:argv_wildcards.obj
 0001:00048c34       ?data@?$__crt_win32_buffer@_WU__crt_win32_buffer_internal_dynamic_resizing@@@@QEAAPEA_WXZ 0000000140049c34 f i libucrt:argv_wildcards.obj
 0001:00048c3c       ?deallocate@__crt_win32_buffer_internal_dynamic_resizing@@SAXQEAXAEBV__crt_win32_buffer_empty_debug_info@@@Z 0000000140049c3c f i libucrt:argv_wildcards.obj
 0001:00048c44       ?debug_info@?$__crt_win32_buffer@DU__crt_win32_buffer_internal_dynamic_resizing@@@@QEBAAEBV__crt_win32_buffer_empty_debug_info@@XZ 0000000140049c44 f i libucrt:argv_wildcards.obj
 0001:00048c48       ?debug_info@?$__crt_win32_buffer@_WU__crt_win32_buffer_internal_dynamic_resizing@@@@QEBAAEBV__crt_win32_buffer_empty_debug_info@@XZ 0000000140049c48 f i libucrt:argv_wildcards.obj
 0001:00048dec       ?get@?$__crt_unique_handle_t@U__crt_findfile_traits@@@@QEBAPEAXXZ 0000000140049dec f i libucrt:argv_wildcards.obj
 0001:00048e98       ?get_invalid_value@__crt_findfile_traits@@SAPEAXXZ 0000000140049e98 f i libucrt:argv_wildcards.obj
 0001:00048f58       ?set_to_nullptr@?$__crt_win32_buffer@DU__crt_win32_buffer_internal_dynamic_resizing@@@@QEAAXXZ 0000000140049f58 f i libucrt:argv_wildcards.obj
 0001:00048f94       ?set_to_nullptr@?$__crt_win32_buffer@_WU__crt_win32_buffer_internal_dynamic_resizing@@@@QEAAXXZ 0000000140049f94 f i libucrt:argv_wildcards.obj
 0001:00048fd0       ?size@?$__crt_win32_buffer@DU__crt_win32_buffer_internal_dynamic_resizing@@@@QEAAX_K@Z 0000000140049fd0 f i libucrt:argv_wildcards.obj
 0001:00048fd8       ?size@?$__crt_win32_buffer@_WU__crt_win32_buffer_internal_dynamic_resizing@@@@QEAAX_K@Z 0000000140049fd8 f i libucrt:argv_wildcards.obj
 0001:00048ff8       ?strpbrk@@YAPEADQEADQEBD@Z 0000000140049ff8 f i libucrt:argv_wildcards.obj
 0001:00049000       ?wcspbrk@@YAPEA_WPEA_WPEB_W@Z 000000014004a000 f i libucrt:argv_wildcards.obj
 0001:00049008       __acrt_expand_narrow_argv_wildcards 000000014004a008 f   libucrt:argv_wildcards.obj
 0001:00049010       __acrt_expand_wide_argv_wildcards 000000014004a010 f   libucrt:argv_wildcards.obj
 0001:00049018       ??$__acrt_convert_wcs_mbs_cp@_WDV<lambda_f788ae46380686e8b737efdd8c720d07>@@U__crt_win32_buffer_no_resizing@@@@YAHQEB_WAEAV?$__crt_win32_buffer@DU__crt_win32_buffer_no_resizing@@@@AEBV<lambda_f788ae46380686e8b737efdd8c720d07>@@I@Z 000000014004a018 f i libucrt:getmodulefilenamea.obj
 0001:00049134       ??$__acrt_wcs_to_mbs_cp@U__crt_win32_buffer_no_resizing@@@@YAHQEB_WAEAV?$__crt_win32_buffer@DU__crt_win32_buffer_no_resizing@@@@I@Z 000000014004a134 f i libucrt:getmodulefilenamea.obj
 0001:00049144       ??0?$__crt_win32_buffer@DU__crt_win32_buffer_no_resizing@@@@QEAA@QEAD_K@Z 000000014004a144 f i libucrt:getmodulefilenamea.obj
 0001:00049160       ??1?$__crt_win32_buffer@DU__crt_win32_buffer_no_resizing@@@@QEAA@XZ 000000014004a160 f i libucrt:getmodulefilenamea.obj
 0001:0004916c       ??R<lambda_f788ae46380686e8b737efdd8c720d07>@@QEBA@IQEB_WQEAD_K@Z 000000014004a16c f i libucrt:getmodulefilenamea.obj
 0001:0004919c       ?_deallocate@?$__crt_win32_buffer@DU__crt_win32_buffer_no_resizing@@@@AEAAXXZ 000000014004a19c f i libucrt:getmodulefilenamea.obj
 0001:000491a8       ?allocate@?$__crt_win32_buffer@DU__crt_win32_buffer_no_resizing@@@@QEAAH_K@Z 000000014004a1a8 f i libucrt:getmodulefilenamea.obj
 0001:000491d8       ?allocate@__crt_win32_buffer_no_resizing@@SAHQEAPEAX_KAEBV__crt_win32_buffer_empty_debug_info@@@Z 000000014004a1d8 f i libucrt:getmodulefilenamea.obj
 0001:000491f0       ?capacity@?$__crt_win32_buffer@DU__crt_win32_buffer_no_resizing@@@@QEBA_KXZ 000000014004a1f0 f i libucrt:getmodulefilenamea.obj
 0001:000491f8       ?data@?$__crt_win32_buffer@DU__crt_win32_buffer_no_resizing@@@@QEAAPEADXZ 000000014004a1f8 f i libucrt:getmodulefilenamea.obj
 0001:00049200       ?deallocate@__crt_win32_buffer_no_resizing@@SAXQEAXAEBV__crt_win32_buffer_empty_debug_info@@@Z 000000014004a200 f i libucrt:getmodulefilenamea.obj
 0001:00049204       ?debug_info@?$__crt_win32_buffer@DU__crt_win32_buffer_no_resizing@@@@QEBAAEBV__crt_win32_buffer_empty_debug_info@@XZ 000000014004a204 f i libucrt:getmodulefilenamea.obj
 0001:00049208       ?set_to_nullptr@?$__crt_win32_buffer@DU__crt_win32_buffer_no_resizing@@@@QEAAXXZ 000000014004a208 f i libucrt:getmodulefilenamea.obj
 0001:00049220       ?size@?$__crt_win32_buffer@DU__crt_win32_buffer_no_resizing@@@@QEAAX_K@Z 000000014004a220 f i libucrt:getmodulefilenamea.obj
 0001:00049228       ?size@?$__crt_win32_buffer@DU__crt_win32_buffer_no_resizing@@@@QEBA_KXZ 000000014004a228 f i libucrt:getmodulefilenamea.obj
 0001:00049230       __acrt_GetModuleFileNameA  000000014004a230 f   libucrt:getmodulefilenamea.obj
 0001:0004954c       ??$initialize_from_array@$$BY10BAA@E@?$dual_state_global@PEAE@__crt_state_management@@QEAAXAEAY10BAA@E@Z 000000014004a54c f i libucrt:mbctype.obj
 0001:00049550       ??$initialize_from_array@$$BY10BAB@E@?$dual_state_global@PEAE@__crt_state_management@@QEAAXAEAY10BAB@E@Z 000000014004a550 f i libucrt:mbctype.obj
 0001:0004975c       ?dangerous_get_state_array@?$dual_state_global@PEAE@__crt_state_management@@QEAAPEAPEAEXZ 000000014004a75c f i libucrt:mbctype.obj
 0001:00049760       ?dangerous_get_state_array@?$dual_state_global@PEAU__crt_multibyte_data@@@__crt_state_management@@QEAAPEAPEAU__crt_multibyte_data@@XZ 000000014004a760 f i libucrt:mbctype.obj
 0001:000497e4       ?initialize@?$dual_state_global@PEAU__crt_multibyte_data@@@__crt_state_management@@QEAAXQEAU__crt_multibyte_data@@@Z 000000014004a7e4 f i libucrt:mbctype.obj
 0001:00049dac       ?value@?$dual_state_global@PEAE@__crt_state_management@@QEAAAEAPEAEXZ 000000014004adac f i libucrt:mbctype.obj
 0001:00049db0       __acrt_initialize_multibyte 000000014004adb0 f   libucrt:mbctype.obj
 0001:00049e10       __acrt_update_thread_multibyte_data 000000014004ae10 f   libucrt:mbctype.obj
 0001:00049e2c       __p__mbcasemap             000000014004ae2c f   libucrt:mbctype.obj
 0001:00049e34       __p__mbctype               000000014004ae34 f   libucrt:mbctype.obj
 0001:00049e3c       _getmbcp                   000000014004ae3c f   libucrt:mbctype.obj
 0001:00049e78       _setmbcp                   000000014004ae78 f   libucrt:mbctype.obj
 0001:00049ea0       _setmbcp_nolock            000000014004aea0 f   libucrt:mbctype.obj
 0001:0004a264       _ismbbalnum                000000014004b264 f   libucrt:ismbbyte.obj
 0001:0004a27c       _ismbbalnum_l              000000014004b27c f   libucrt:ismbbyte.obj
 0001:0004a298       _ismbbalpha                000000014004b298 f   libucrt:ismbbyte.obj
 0001:0004a2b0       _ismbbalpha_l              000000014004b2b0 f   libucrt:ismbbyte.obj
 0001:0004a2cc       _ismbbblank                000000014004b2cc f   libucrt:ismbbyte.obj
 0001:0004a2e8       _ismbbblank_l              000000014004b2e8 f   libucrt:ismbbyte.obj
 0001:0004a308       _ismbbgraph                000000014004b308 f   libucrt:ismbbyte.obj
 0001:0004a320       _ismbbgraph_l              000000014004b320 f   libucrt:ismbbyte.obj
 0001:0004a33c       _ismbbkalnum               000000014004b33c f   libucrt:ismbbyte.obj
 0001:0004a350       _ismbbkalnum_l             000000014004b350 f   libucrt:ismbbyte.obj
 0001:0004a368       _ismbbkana                 000000014004b368 f   libucrt:ismbbyte.obj
 0001:0004a370       _ismbbkana_l               000000014004b370 f   libucrt:ismbbyte.obj
 0001:0004a3d8       _ismbbkprint               000000014004b3d8 f   libucrt:ismbbyte.obj
 0001:0004a3ec       _ismbbkprint_l             000000014004b3ec f   libucrt:ismbbyte.obj
 0001:0004a404       _ismbbkpunct               000000014004b404 f   libucrt:ismbbyte.obj
 0001:0004a418       _ismbbkpunct_l             000000014004b418 f   libucrt:ismbbyte.obj
 0001:0004a430       _ismbblead                 000000014004b430 f   libucrt:ismbbyte.obj
 0001:0004a444       _ismbblead_l               000000014004b444 f   libucrt:ismbbyte.obj
 0001:0004a45c       _ismbbprint                000000014004b45c f   libucrt:ismbbyte.obj
 0001:0004a474       _ismbbprint_l              000000014004b474 f   libucrt:ismbbyte.obj
 0001:0004a490       _ismbbpunct                000000014004b490 f   libucrt:ismbbyte.obj
 0001:0004a4a4       _ismbbpunct_l              000000014004b4a4 f   libucrt:ismbbyte.obj
 0001:0004a4bc       _ismbbtrail                000000014004b4bc f   libucrt:ismbbyte.obj
 0001:0004a4d0       _ismbbtrail_l              000000014004b4d0 f   libucrt:ismbbyte.obj
 0001:0004a4e8       __acrt_initialize_command_line 000000014004b4e8 f   libucrt:argv_data.obj
 0001:0004a510       __acrt_uninitialize_command_line 000000014004b510 f   libucrt:argv_data.obj
 0001:0004a514       __p___argc                 000000014004b514 f   libucrt:argv_data.obj
 0001:0004a51c       __p___argv                 000000014004b51c f   libucrt:argv_data.obj
 0001:0004a524       __p___wargv                000000014004b524 f   libucrt:argv_data.obj
 0001:0004a52c       __p__acmdln                000000014004b52c f   libucrt:argv_data.obj
 0001:0004a534       __p__pgmptr                000000014004b534 f   libucrt:argv_data.obj
 0001:0004a53c       __p__wcmdln                000000014004b53c f   libucrt:argv_data.obj
 0001:0004a544       __p__wpgmptr               000000014004b544 f   libucrt:argv_data.obj
 0001:0004a54c       _get_pgmptr                000000014004b54c f   libucrt:argv_data.obj
 0001:0004a584       _get_wpgmptr               000000014004b584 f   libucrt:argv_data.obj
 0001:0004a648       __acrt_MultiByteToWideChar 000000014004b648 f   libucrt:multibytetowidechar.obj
 0001:0004a760       __acrt_WideCharToMultiByte 000000014004b760 f   libucrt:widechartomultibyte.obj
 0001:0004a8e0       __dcrt_get_narrow_environment_from_os 000000014004b8e0 f   libucrt:get_environment_from_os.obj
 0001:0004a9f0       __dcrt_get_wide_environment_from_os 000000014004b9f0 f   libucrt:get_environment_from_os.obj
 0001:0004b488       ??$get_or_create_environment_nolock@$$V@?$__crt_char_traits@D@@SAPEAPEADXZ 000000014004c488 f i libucrt:setenv.obj
 0001:0004b490       ??$get_or_create_environment_nolock@$$V@?$__crt_char_traits@_W@@SAPEAPEA_WXZ 000000014004c490 f i libucrt:setenv.obj
 0001:0004b498       ??$set_environment_variable@AEBQEADQEAD@?$__crt_char_traits@D@@SAHAEBQEAD$$QEBQEAD@Z 000000014004c498 f i libucrt:setenv.obj
 0001:0004b4a4       ??$set_environment_variable@AEBQEA_WQEA_W@?$__crt_char_traits@_W@@SAHAEBQEA_W$$QEBQEA_W@Z 000000014004c4a4 f i libucrt:setenv.obj
 0001:0004b4b4       ??$tcschr@AEBQEADD@?$__crt_char_traits@D@@SAPEADAEBQEAD$$QEAD@Z 000000014004c4b4 f i libucrt:setenv.obj
 0001:0004b4c0       ??$tcschr@AEBQEA_WD@?$__crt_char_traits@_W@@SAPEA_WAEBQEA_W$$QEAD@Z 000000014004c4c0 f i libucrt:setenv.obj
 0001:0004b4cc       ??$tcscpy_s@AEAPEADAEB_KAEAPEAD@?$__crt_char_traits@D@@SAHAEAPEADAEB_K0@Z 000000014004c4cc f i libucrt:setenv.obj
 0001:0004b4dc       ??$tcscpy_s@AEAPEA_WAEB_KAEAPEA_W@?$__crt_char_traits@_W@@SAHAEAPEA_WAEB_K0@Z 000000014004c4dc f i libucrt:setenv.obj
 0001:0004b4ec       ??$tcscpy_s@AEBQEADAEB_KAEBQEAD@?$__crt_char_traits@D@@SAHAEBQEADAEB_K0@Z 000000014004c4ec f i libucrt:setenv.obj
 0001:0004b4fc       ??$tcscpy_s@AEBQEA_WAEB_KAEBQEA_W@?$__crt_char_traits@_W@@SAHAEBQEA_WAEB_K0@Z 000000014004c4fc f i libucrt:setenv.obj
 0001:0004b50c       ??$tcslen@AEBQEAD@?$__crt_char_traits@D@@SA_KAEBQEAD@Z 000000014004c50c f i libucrt:setenv.obj
 0001:0004b520       ??$tcslen@AEBQEA_W@?$__crt_char_traits@_W@@SA_KAEBQEA_W@Z 000000014004c520 f i libucrt:setenv.obj
 0001:0004b534       ??$tcsnicoll@AEBQEBDAEAPEADAEB_K@?$__crt_char_traits@D@@SAHAEBQEBDAEAPEADAEB_K@Z 000000014004c534 f i libucrt:setenv.obj
 0001:0004b544       ??$tcsnicoll@AEBQEB_WAEAPEA_WAEB_K@?$__crt_char_traits@_W@@SAHAEBQEB_WAEAPEA_WAEB_K@Z 000000014004c544 f i libucrt:setenv.obj
 0001:0004b584       ?strchr@@YAPEADQEADH@Z     000000014004c584 f i libucrt:setenv.obj
 0001:0004b58c       ?wcschr@@YAPEA_WPEA_W_W@Z  000000014004c58c f i libucrt:setenv.obj
 0001:0004b594       __dcrt_set_variable_in_narrow_environment_nolock 000000014004c594 f   libucrt:setenv.obj
 0001:0004b59c       __dcrt_set_variable_in_wide_environment_nolock 000000014004c59c f   libucrt:setenv.obj
 0001:0004b5a4       __acrt_initialize_locks    000000014004c5a4 f   libucrt:locks.obj
 0001:0004b5ec       __acrt_lock                000000014004c5ec f   libucrt:locks.obj
 0001:0004b608       __acrt_uninitialize_locks  000000014004c608 f   libucrt:locks.obj
 0001:0004b640       __acrt_unlock              000000014004c640 f   libucrt:locks.obj
 0001:0004b65c       _lock_locales              000000014004c65c f   libucrt:locks.obj
 0001:0004b678       _unlock_locales            000000014004c678 f   libucrt:locks.obj
 0001:0004b688       __acrt_app_verifier_enabled 000000014004c688 f   libucrt:peb_access.obj
 0001:0004b6a4       __acrt_is_secure_process   000000014004c6a4 f   libucrt:peb_access.obj
 0001:0004b848       __acrt_get_begin_thread_init_policy 000000014004c848 f   libucrt:win_policies.obj
 0001:0004b888       __acrt_get_developer_information_policy 000000014004c888 f   libucrt:win_policies.obj
 0001:0004b8cc       __acrt_get_process_end_policy 000000014004c8cc f   libucrt:win_policies.obj
 0001:0004b8fc       __acrt_get_windowing_model_policy 000000014004c8fc f   libucrt:win_policies.obj
 0001:0004b964       ??$?RU__crt_lowio_handle_data@@@__crt_internal_free_policy@@QEBAXQEBU__crt_lowio_handle_data@@@Z 000000014004c964 f i libucrt:osfinfo.obj
 0001:0004b96c       ??0?$__crt_unique_heap_ptr@U__crt_lowio_handle_data@@U__crt_internal_free_policy@@@@QEAA@QEAU__crt_lowio_handle_data@@@Z 000000014004c96c f i libucrt:osfinfo.obj
 0001:0004b974       ??1?$__crt_unique_heap_ptr@U__crt_lowio_handle_data@@U__crt_internal_free_policy@@@@QEAA@XZ 000000014004c974 f i libucrt:osfinfo.obj
 0001:0004b990       ??B?$__crt_unique_heap_ptr@U__crt_lowio_handle_data@@U__crt_internal_free_policy@@@@QEBA_NXZ 000000014004c990 f i libucrt:osfinfo.obj
 0001:0004b998       ?detach@?$__crt_unique_heap_ptr@U__crt_lowio_handle_data@@U__crt_internal_free_policy@@@@QEAAPEAU__crt_lowio_handle_data@@XZ 000000014004c998 f i libucrt:osfinfo.obj
 0001:0004b9a0       ?get@?$__crt_unique_heap_ptr@U__crt_lowio_handle_data@@U__crt_internal_free_policy@@@@QEBAPEAU__crt_lowio_handle_data@@XZ 000000014004c9a0 f i libucrt:osfinfo.obj
 0001:0004b9a4       ?is_valid@?$__crt_unique_heap_ptr@U__crt_lowio_handle_data@@U__crt_internal_free_policy@@@@QEBA_NXZ 000000014004c9a4 f i libucrt:osfinfo.obj
 0001:0004b9ac       ?release@?$__crt_unique_heap_ptr@U__crt_lowio_handle_data@@U__crt_internal_free_policy@@@@QEAAXXZ 000000014004c9ac f i libucrt:osfinfo.obj
 0001:0004b9c8       __acrt_lowio_create_handle_array 000000014004c9c8 f   libucrt:osfinfo.obj
 0001:0004ba70       __acrt_lowio_destroy_handle_array 000000014004ca70 f   libucrt:osfinfo.obj
 0001:0004bac0       __acrt_lowio_ensure_fh_exists 000000014004cac0 f   libucrt:osfinfo.obj
 0001:0004bb68       __acrt_lowio_lock_fh       000000014004cb68 f   libucrt:osfinfo.obj
 0001:0004bb90       __acrt_lowio_set_os_handle 000000014004cb90 f   libucrt:osfinfo.obj
 0001:0004bc50       __acrt_lowio_unlock_fh     000000014004cc50 f   libucrt:osfinfo.obj
 0001:0004bc78       _alloc_osfhnd              000000014004cc78 f   libucrt:osfinfo.obj
 0001:0004bdb8       _free_osfhnd               000000014004cdb8 f   libucrt:osfinfo.obj
 0001:0004be74       _get_osfhandle             000000014004ce74 f   libucrt:osfinfo.obj
 0001:0004beec       _open_osfhandle            000000014004ceec f   libucrt:osfinfo.obj
 0001:0004bfec       ?dangerous_get_state_array@?$dual_state_global@H@__crt_state_management@@QEAAPEAHXZ 000000014004cfec f i libucrt:txtmode.obj
 0001:0004bff0       __acrt_initialize_fmode    000000014004cff0 f   libucrt:txtmode.obj
 0001:0004c008       __p__fmode                 000000014004d008 f   libucrt:txtmode.obj
 0001:0004c010       ??$?RG@__crt_internal_free_policy@@QEBAXQEBG@Z 000000014004d010 f i libucrt:initctype.obj
 0001:0004c018       ??$?RJ@__crt_internal_free_policy@@QEBAXQEBJ@Z 000000014004d018 f i libucrt:initctype.obj
 0001:0004c020       ??0?$__crt_unique_heap_ptr@GU__crt_internal_free_policy@@@@QEAA@QEAG@Z 000000014004d020 f i libucrt:initctype.obj
 0001:0004c028       ??0?$__crt_unique_heap_ptr@JU__crt_internal_free_policy@@@@QEAA@QEAJ@Z 000000014004d028 f i libucrt:initctype.obj
 0001:0004c030       ??1?$__crt_unique_heap_ptr@GU__crt_internal_free_policy@@@@QEAA@XZ 000000014004d030 f i libucrt:initctype.obj
 0001:0004c04c       ??1?$__crt_unique_heap_ptr@JU__crt_internal_free_policy@@@@QEAA@XZ 000000014004d04c f i libucrt:initctype.obj
 0001:0004c068       ?detach@?$__crt_unique_heap_ptr@GU__crt_internal_free_policy@@@@QEAAPEAGXZ 000000014004d068 f i libucrt:initctype.obj
 0001:0004c070       ?detach@?$__crt_unique_heap_ptr@JU__crt_internal_free_policy@@@@QEAAPEAJXZ 000000014004d070 f i libucrt:initctype.obj
 0001:0004c078       ?release@?$__crt_unique_heap_ptr@GU__crt_internal_free_policy@@@@QEAAXXZ 000000014004d078 f i libucrt:initctype.obj
 0001:0004c094       ?release@?$__crt_unique_heap_ptr@JU__crt_internal_free_policy@@@@QEAAXXZ 000000014004d094 f i libucrt:initctype.obj
 0001:0004c0b0       ___lc_codepage_func        000000014004d0b0 f   libucrt:initctype.obj
 0001:0004c0e0       ___lc_collate_cp_func      000000014004d0e0 f   libucrt:initctype.obj
 0001:0004c110       ___lc_locale_name_func     000000014004d110 f   libucrt:initctype.obj
 0001:0004c144       ___mb_cur_max_func         000000014004d144 f   libucrt:initctype.obj
 0001:0004c174       ___mb_cur_max_l_func       000000014004d174 f   libucrt:initctype.obj
 0001:0004c184       __acrt_locale_initialize_ctype 000000014004d184 f   libucrt:initctype.obj
 0001:0004c7c8       ??$?RUlconv@@@__crt_internal_free_policy@@QEBAXQEBUlconv@@@Z 000000014004d7c8 f i libucrt:initmon.obj
 0001:0004c7d0       ??0?$__crt_unique_heap_ptr@Ulconv@@U__crt_internal_free_policy@@@@QEAA@QEAUlconv@@@Z 000000014004d7d0 f i libucrt:initmon.obj
 0001:0004c7d8       ??1?$__crt_unique_heap_ptr@Ulconv@@U__crt_internal_free_policy@@@@QEAA@XZ 000000014004d7d8 f i libucrt:initmon.obj
 0001:0004c7f4       ?detach@?$__crt_unique_heap_ptr@Ulconv@@U__crt_internal_free_policy@@@@QEAAPEAUlconv@@XZ 000000014004d7f4 f i libucrt:initmon.obj
 0001:0004c7fc       ?release@?$__crt_unique_heap_ptr@Ulconv@@U__crt_internal_free_policy@@@@QEAAXXZ 000000014004d7fc f i libucrt:initmon.obj
 0001:0004c818       __acrt_locale_free_monetary 000000014004d818 f   libucrt:initmon.obj
 0001:0004c924       __acrt_locale_initialize_monetary 000000014004d924 f   libucrt:initmon.obj
 0001:0004ce74       __acrt_locale_free_numeric 000000014004de74 f   libucrt:initnum.obj
 0001:0004cee0       __acrt_locale_initialize_numeric 000000014004dee0 f   libucrt:initnum.obj
 0001:0004d1fc       ??$?RU__crt_lc_time_data@@@__crt_internal_free_policy@@QEBAXQEBU__crt_lc_time_data@@@Z 000000014004e1fc f i libucrt:inittime.obj
 0001:0004d24c       ??0?$__crt_unique_heap_ptr@U__crt_lc_time_data@@U__crt_internal_free_policy@@@@QEAA@QEAU__crt_lc_time_data@@@Z 000000014004e24c f i libucrt:inittime.obj
 0001:0004d254       ??1?$__crt_unique_heap_ptr@U__crt_lc_time_data@@U__crt_internal_free_policy@@@@QEAA@XZ 000000014004e254 f i libucrt:inittime.obj
 0001:0004d270       ??B?$__crt_unique_heap_ptr@U__crt_lc_time_data@@U__crt_internal_free_policy@@@@QEBA_NXZ 000000014004e270 f i libucrt:inittime.obj
 0001:0004d278       ?detach@?$__crt_unique_heap_ptr@U__crt_lc_time_data@@U__crt_internal_free_policy@@@@QEAAPEAU__crt_lc_time_data@@XZ 000000014004e278 f i libucrt:inittime.obj
 0001:0004d2b4       ?get@?$__crt_unique_heap_ptr@U__crt_lc_time_data@@U__crt_internal_free_policy@@@@QEBAPEAU__crt_lc_time_data@@XZ 000000014004e2b4 f i libucrt:inittime.obj
 0001:0004d678       ?is_valid@?$__crt_unique_heap_ptr@U__crt_lc_time_data@@U__crt_internal_free_policy@@@@QEBA_NXZ 000000014004e678 f i libucrt:inittime.obj
 0001:0004d680       ?release@?$__crt_unique_heap_ptr@U__crt_lc_time_data@@U__crt_internal_free_policy@@@@QEAAXXZ 000000014004e680 f i libucrt:inittime.obj
 0001:0004d69c       __acrt_locale_free_time    000000014004e69c f   libucrt:inittime.obj
 0001:0004d7a4       __acrt_locale_initialize_time 000000014004e7a4 f   libucrt:inittime.obj
 0001:0004d840       __pctype_func              000000014004e840 f   libucrt:ctype.obj
 0001:0004d870       __pwctype_func             000000014004e870 f   libucrt:ctype.obj
 0001:0004d9b0       wcsncat_s                  000000014004e9b0 f   libucrt:wcsncat_s.obj
 0001:0004daf0       wcscspn                    000000014004eaf0 f   libucrt:wcscspn.obj
 0001:0004db50       wcspbrk                    000000014004eb50 f   libucrt:wcspbrk.obj
 0001:0004dba8       ??0?$__crt_scoped_stack_ptr@_W@@QEAA@U?$__crt_scoped_stack_ptr_tag@_W@@@Z 000000014004eba8 f i libucrt:getstringtypea.obj
 0001:0004dbb0       ??0?$__crt_scoped_stack_ptr_tag@_W@@QEAA@QEA_W@Z 000000014004ebb0 f i libucrt:getstringtypea.obj
 0001:0004dbb8       ??1?$__crt_scoped_stack_ptr@_W@@QEAA@XZ 000000014004ebb8 f i libucrt:getstringtypea.obj
 0001:0004dbdc       ?get@?$__crt_scoped_stack_ptr@_W@@QEBAPEA_WXZ 000000014004ebdc f i libucrt:getstringtypea.obj
 0001:0004dbe0       _MallocaComputeSize        000000014004ebe0 f i libucrt:getstringtypea.obj
 0001:0004dbf0       _MarkAllocaS               000000014004ebf0 f i libucrt:getstringtypea.obj
 0001:0004dc00       __acrt_GetStringTypeA      000000014004ec00 f   libucrt:getstringtypea.obj
 0001:0004dd90       _freea_crt                 000000014004ed90 f i libucrt:getstringtypea.obj
 0001:0004ddb0       __acrt_add_locale_ref      000000014004edb0 f   libucrt:locale_refcounting.obj
 0001:0004de3c       __acrt_free_locale         000000014004ee3c f   libucrt:locale_refcounting.obj
 0001:0004dfb4       __acrt_locale_add_lc_time_reference 000000014004efb4 f   libucrt:locale_refcounting.obj
 0001:0004dfdc       __acrt_locale_free_lc_time_if_unreferenced 000000014004efdc f   libucrt:locale_refcounting.obj
 0001:0004e014       __acrt_locale_release_lc_time_reference 000000014004f014 f   libucrt:locale_refcounting.obj
 0001:0004e03c       __acrt_release_locale_ref  000000014004f03c f   libucrt:locale_refcounting.obj
 0001:0004e0e4       __acrt_update_thread_locale_data 000000014004f0e4 f   libucrt:locale_refcounting.obj
 0001:0004e154       _updatetlocinfoEx_nolock   000000014004f154 f   libucrt:locale_refcounting.obj
 0001:0004ea20       __acrt_get_qualified_locale 000000014004fa20 f   libucrt:get_qualified_locale.obj
 0001:0004f550       __acrt_get_qualified_locale_downlevel 0000000140050550 f   libucrt:getqloc_downlevel.obj
 0001:0004f8dc       ?ReadPointerNoFence@@YAPEAXPEDSEAX@Z 00000001400508dc f i libucrt:winapi_thunks.obj
 0001:000505c0       GetCurrentThreadEffectiveToken 00000001400515c0 f i libucrt:winapi_thunks.obj
 0001:000505c8       __acrt_AppPolicyGetProcessTerminationMethodInternal 00000001400515c8 f   libucrt:winapi_thunks.obj
 0001:00050624       __acrt_AppPolicyGetShowDeveloperDiagnosticInternal 0000000140051624 f   libucrt:winapi_thunks.obj
 0001:00050680       __acrt_AppPolicyGetThreadInitializationTypeInternal 0000000140051680 f   libucrt:winapi_thunks.obj
 0001:000506dc       __acrt_AppPolicyGetWindowingModelInternal 00000001400516dc f   libucrt:winapi_thunks.obj
 0001:00050738       __acrt_AreFileApisANSI     0000000140051738 f   libucrt:winapi_thunks.obj
 0001:00050784       __acrt_CompareStringEx     0000000140051784 f   libucrt:winapi_thunks.obj
 0001:00050848       __acrt_EnumSystemLocalesEx 0000000140051848 f   libucrt:winapi_thunks.obj
 0001:000508ec       __acrt_FlsAlloc            00000001400518ec f   libucrt:winapi_thunks.obj
 0001:000508f4       __acrt_FlsFree             00000001400518f4 f   libucrt:winapi_thunks.obj
 0001:000508fc       __acrt_FlsGetValue         00000001400518fc f   libucrt:winapi_thunks.obj
 0001:00050904       __acrt_FlsGetValue2        0000000140051904 f   libucrt:winapi_thunks.obj
 0001:00050910       __acrt_FlsSetValue         0000000140051910 f   libucrt:winapi_thunks.obj
 0001:00050918       __acrt_GetDateFormatEx     0000000140051918 f   libucrt:winapi_thunks.obj
 0001:000509e0       __acrt_GetEnabledXStateFeatures 00000001400519e0 f   libucrt:winapi_thunks.obj
 0001:00050a28       __acrt_GetFileInformationByName 0000000140051a28 f   libucrt:winapi_thunks.obj
 0001:00050aa4       __acrt_GetLocaleInfoEx     0000000140051aa4 f   libucrt:winapi_thunks.obj
 0001:00050b38       __acrt_GetSystemTimePreciseAsFileTime 0000000140051b38 f   libucrt:winapi_thunks.obj
 0001:00050b94       __acrt_GetTempPath2W       0000000140051b94 f   libucrt:winapi_thunks.obj
 0001:00050bfc       __acrt_GetTimeFormatEx     0000000140051bfc f   libucrt:winapi_thunks.obj
 0001:00050cb4       __acrt_GetUserDefaultLocaleName 0000000140051cb4 f   libucrt:winapi_thunks.obj
 0001:00050d24       __acrt_GetXStateFeaturesMask 0000000140051d24 f   libucrt:winapi_thunks.obj
 0001:00050d84       __acrt_InitializeCriticalSectionEx 0000000140051d84 f   libucrt:winapi_thunks.obj
 0001:00050d8c       __acrt_IsThreadAFiber      0000000140051d8c f   libucrt:winapi_thunks.obj
 0001:00050d94       __acrt_IsValidLocaleName   0000000140051d94 f   libucrt:winapi_thunks.obj
 0001:00050dfc       __acrt_LCIDToLocaleName    0000000140051dfc f   libucrt:winapi_thunks.obj
 0001:00050e84       __acrt_LCMapStringEx       0000000140051e84 f   libucrt:winapi_thunks.obj
 0001:00050f78       __acrt_LocaleNameToLCID    0000000140051f78 f   libucrt:winapi_thunks.obj
 0001:00050fdc       __acrt_LocateXStateFeature 0000000140051fdc f   libucrt:winapi_thunks.obj
 0001:0005104c       __acrt_MessageBoxA         000000014005204c f   libucrt:winapi_thunks.obj
 0001:000510cc       __acrt_MessageBoxW         00000001400520cc f   libucrt:winapi_thunks.obj
 0001:0005114c       __acrt_RoInitialize        000000014005214c f   libucrt:winapi_thunks.obj
 0001:0005119c       __acrt_RoUninitialize      000000014005219c f   libucrt:winapi_thunks.obj
 0001:000511e0       __acrt_RtlGenRandom        00000001400521e0 f   libucrt:winapi_thunks.obj
 0001:00051240       __acrt_SetThreadStackGuarantee 0000000140052240 f   libucrt:winapi_thunks.obj
 0001:00051294       __acrt_can_show_message_box 0000000140052294 f   libucrt:winapi_thunks.obj
 0001:00051318       __acrt_can_use_vista_locale_apis 0000000140052318 f   libucrt:winapi_thunks.obj
 0001:0005132c       __acrt_can_use_xstate_apis 000000014005232c f   libucrt:winapi_thunks.obj
 0001:00051370       __acrt_eagerly_load_locale_apis 0000000140052370 f   libucrt:winapi_thunks.obj
 0001:00051518       __acrt_get_parent_window   0000000140052518 f   libucrt:winapi_thunks.obj
 0001:000515b0       __acrt_initialize_winapi_thunks 00000001400525b0 f   libucrt:winapi_thunks.obj
 0001:000515e0       __acrt_is_interactive      00000001400525e0 f   libucrt:winapi_thunks.obj
 0001:000516cc       __acrt_tls2_supported      00000001400526cc f   libucrt:winapi_thunks.obj
 0001:00051710       __acrt_uninitialize_winapi_thunks 0000000140052710 f   libucrt:winapi_thunks.obj
 0001:00051754       localeconv                 0000000140052754 f   libucrt:localeconv.obj
 0001:00051790       _recalloc_base             0000000140052790 f   libucrt:recalloc.obj
 0001:00051830       _recalloc                  0000000140052830 f   libucrt:recalloc.obj
 0001:00051840       _get_heap_handle           0000000140052840 f   libucrt:heap_handle.obj
 0001:00051850       __acrt_initialize_heap     0000000140052850 f   libucrt:heap_handle.obj
 0001:00051880       __acrt_uninitialize_heap   0000000140052880 f   libucrt:heap_handle.obj
 0001:000518a0       __acrt_getheap             00000001400528a0 f   libucrt:heap_handle.obj
 0001:000518a8       __acrt_execute_initializers 00000001400528a8 f   libucrt:shared_initialization.obj
 0001:00051928       __acrt_execute_uninitializers 0000000140052928 f   libucrt:shared_initialization.obj
 0001:00051970       _callnewh                  0000000140052970 f   libucrt:new_handler.obj
 0001:000519b0       __acrt_initialize_new_handler 00000001400529b0 f   libucrt:new_handler.obj
 0001:000519c0       _query_new_handler         00000001400529c0 f   libucrt:new_handler.obj
 0001:00051a00       _set_new_handler           0000000140052a00 f   libucrt:new_handler.obj
 0001:00051a60       ?_set_new_handler@@YAP6AH_K@ZH@Z 0000000140052a60 f   libucrt:new_handler.obj
 0001:00051a6c       ??$?B$$A6AH_K@Z@__crt_fast_encoded_nullptr_t@@QEBAP6AH_K@ZXZ 0000000140052a6c f i libucrt:new_handler.obj
 0001:00051a74       ??$__crt_fast_decode_pointer@P6AH_K@Z@@YAP6AH_K@ZQ6AH0@Z@Z 0000000140052a74 f i libucrt:new_handler.obj
 0001:00051a8c       ??$__crt_fast_encode_pointer@P6AH_K@Z@@YAP6AH_K@ZQ6AH0@Z@Z 0000000140052a8c f i libucrt:new_handler.obj
 0001:00051aac       ?initialize@?$dual_state_global@P6AH_K@Z@__crt_state_management@@QEAAXQ6AH_K@Z@Z 0000000140052aac f i libucrt:new_handler.obj
 0001:00051abc       ?value@?$dual_state_global@P6AH_K@Z@__crt_state_management@@QEAAAEAP6AH_K@ZXZ 0000000140052abc f i libucrt:new_handler.obj
 0001:00051ac0       ??$?B$$A6AXH@Z@__crt_fast_encoded_nullptr_t@@QEBAP6AXH@ZXZ 0000000140052ac0 f i libucrt:signal.obj
 0001:00051b38       ??$__crt_fast_decode_pointer@P6AXH@Z@@YAP6AXH@ZQ6AXH@Z@Z 0000000140052b38 f i libucrt:signal.obj
 0001:00051b50       ??$__crt_fast_encode_pointer@P6AXH@Z@@YAP6AXH@ZQ6AXH@Z@Z 0000000140052b50 f i libucrt:signal.obj
 0001:00051c7c       ?initialize@?$dual_state_global@P6AXH@Z@__crt_state_management@@QEAAXQ6AXH@Z@Z 0000000140052c7c f i libucrt:signal.obj
 0001:00051d0c       ?value@?$dual_state_global@P6AXH@Z@__crt_state_management@@QEAAAEAP6AXH@ZXZ 0000000140052d0c f i libucrt:signal.obj
 0001:00051d10       __acrt_get_sigabrt_handler 0000000140052d10 f   libucrt:signal.obj
 0001:00051d40       __acrt_initialize_signal_handlers 0000000140052d40 f   libucrt:signal.obj
 0001:00051d60       __fpecode                  0000000140052d60 f   libucrt:signal.obj
 0001:00051d74       __pxcptinfoptrs            0000000140052d74 f   libucrt:signal.obj
 0001:00051d88       raise                      0000000140052d88 f   libucrt:signal.obj
 0001:00051fe4       signal                     0000000140052fe4 f   libucrt:signal.obj
 0001:00052450       ??0__crt_stdio_stream@@QEAA@QEAU__crt_stdio_stream_data@@@Z 0000000140053450 f i libucrt:fflush.obj
 0001:000525c0       ?__acrt_stdio_reset_buffer@@YAXV__crt_stdio_stream@@@Z 00000001400535c0 f i libucrt:fflush.obj
 0001:000526b0       ?has_all_of@__crt_stdio_stream@@QEBA_NJ@Z 00000001400536b0 f i libucrt:fflush.obj
 0001:000526fc       __acrt_stdio_flush_nolock  00000001400536fc f   libucrt:fflush.obj
 0001:00052788       _fflush_nolock             0000000140053788 f   libucrt:fflush.obj
 0001:0005285c       _flushall                  000000014005385c f   libucrt:fflush.obj
 0001:00052864       fflush                     0000000140053864 f   libucrt:fflush.obj
 0001:000528cc       _iswctype_l                00000001400538cc f   libucrt:iswctype.obj
 0001:000528d4       iswctype                   00000001400538d4 f   libucrt:iswctype.obj
 0001:00052940       _isctype                   0000000140053940 f   libucrt:isctype.obj
 0001:00052970       _isctype_l                 0000000140053970 f   libucrt:isctype.obj
 0001:00052b60       __acrt_fp_strflt_to_string 0000000140053b60 f   libucrt:_fptostr.obj
 0001:00053dd0       ??0big_integer@__crt_strtox@@QEAA@AEBU01@@Z 0000000140054dd0 f i libucrt:cfout.obj
 0001:00053e00       ??0big_integer@__crt_strtox@@QEAA@XZ 0000000140054e00 f i libucrt:cfout.obj
 0001:00053ec0       ??4big_integer@__crt_strtox@@QEAAAEAU01@AEBU01@@Z 0000000140054ec0 f i libucrt:cfout.obj
 0001:00053ef0       ??8__crt_strtox@@YA_NAEBUbig_integer@0@0@Z 0000000140054ef0 f i libucrt:cfout.obj
 0001:00053f20       ??9__crt_strtox@@YA_NAEBUbig_integer@0@0@Z 0000000140054f20 f i libucrt:cfout.obj
 0001:00053f60       ?add_carry@__crt_strtox@@YAIAEAIII@Z 0000000140054f60 f i libucrt:cfout.obj
 0001:00053f80       ?add_multiply_carry@__crt_strtox@@YAIAEAIIII@Z 0000000140054f80 f i libucrt:cfout.obj
 0001:00053fa0       ?bit_scan_reverse@__crt_strtox@@YAII@Z 0000000140054fa0 f i libucrt:cfout.obj
 0001:00053fc0       ?count_sequential_high_zeroes@__crt_strtox@@YAII@Z 0000000140054fc0 f i libucrt:cfout.obj
 0001:00053fe0       ?divide@__crt_strtox@@YA_KAEAUbig_integer@1@AEBU21@@Z 0000000140054fe0 f i libucrt:cfout.obj
 0001:00054470       ?is_zero@__crt_strtox@@YA_NAEBUbig_integer@1@@Z 0000000140055470 f i libucrt:cfout.obj
 0001:00054480       ?make_big_integer@__crt_strtox@@YA?AUbig_integer@1@_K@Z 0000000140055480 f i libucrt:cfout.obj
 0001:000544a0       ?make_big_integer_power_of_two@__crt_strtox@@YA?AUbig_integer@1@I@Z 00000001400554a0 f i libucrt:cfout.obj
 0001:00054510       ?multiply@__crt_strtox@@YA_NAEAUbig_integer@1@AEBU21@@Z 0000000140055510 f i libucrt:cfout.obj
 0001:000548c0       ?multiply@__crt_strtox@@YA_NAEAUbig_integer@1@I@Z 00000001400558c0 f i libucrt:cfout.obj
 0001:000549b0       ?multiply_64_32@__crt_strtox@@YA_K_KI@Z 00000001400559b0 f i libucrt:cfout.obj
 0001:000549c0       ?multiply_by_power_of_ten@__crt_strtox@@YA_NAEAUbig_integer@1@I@Z 00000001400559c0 f i libucrt:cfout.obj
 0001:00054eb0       ?multiply_core@__crt_strtox@@YAIQEAIII@Z 0000000140055eb0 f i libucrt:cfout.obj
 0001:00054f00       ?shift_left@__crt_strtox@@YA_NAEAUbig_integer@1@I@Z 0000000140055f00 f i libucrt:cfout.obj
 0001:0005507c       __acrt_fltout              000000014005607c f   libucrt:cfout.obj
 0001:00056390       __fpe_flt_rounds           0000000140057390 f   libucrt:fegetround.obj
 0001:000563e0       fegetround                 00000001400573e0 f   libucrt:fegetround.obj
 0001:000563f4       ?__c32rtomb_utf8@__crt_mbstring@@YA_KPEAD_UPEAU_Mbstatet@@AEAV__crt_cached_ptd_host@@@Z 00000001400573f4 f   libucrt:c32rtomb.obj
 0001:00056498       c32rtomb                   0000000140057498 f   libucrt:c32rtomb.obj
 0001:00056534       ?reset_and_return@__crt_mbstring@@YA_K_KPEAU_Mbstatet@@@Z 0000000140057534 f   libucrt:common_utf8.obj
 0001:0005653c       ?return_illegal_sequence@__crt_mbstring@@YA_KPEAU_Mbstatet@@AEAV__crt_cached_ptd_host@@@Z 000000014005753c f   libucrt:common_utf8.obj
 0001:00056550       ?is_in_use@__crt_stdio_stream@@QEBA_NXZ 0000000140057550 f i libucrt:closeall.obj
 0001:00056560       _fcloseall                 0000000140057560 f   libucrt:closeall.obj
 0001:00056614       ?has_crt_buffer@__crt_stdio_stream@@QEBA_NXZ 0000000140057614 f i libucrt:_freebuf.obj
 0001:00056624       __acrt_stdio_free_buffer_nolock 0000000140057624 f   libucrt:_freebuf.obj
 0001:000569f4       ?has_big_buffer@__crt_stdio_stream@@QEBA_NXZ 00000001400579f4 f i libucrt:_flsbuf.obj
 0001:00056a8c       __acrt_stdio_flush_and_write_narrow_nolock 0000000140057a8c f   libucrt:_flsbuf.obj
 0001:00056b58       __acrt_stdio_flush_and_write_wide_nolock 0000000140057b58 f   libucrt:_flsbuf.obj
 0001:00056c24       _isatty                    0000000140057c24 f   libucrt:isatty.obj
 0001:00056c84       __acrt_OutputDebugStringA  0000000140057c84 f   libucrt:outputdebugstringa.obj
 0001:00056e20       qsort                      0000000140057e20 f   libucrt:qsort.obj
 0001:000572e0       strncpy_s                  00000001400582e0 f   libucrt:strncpy_s.obj
 0001:000574d0       strpbrk                    00000001400584d0 f   libucrt:strpbrk.obj
 0001:00057888       _mbsdec                    0000000140058888 f   libucrt:mbsdec.obj
 0001:00057890       _mbsdec_l                  0000000140058890 f   libucrt:mbsdec.obj
 0001:00057924       ??B?$__crt_scoped_stack_ptr@_W@@QEBA_NXZ 0000000140058924 f i libucrt:lcmapstringa.obj
 0001:00057c60       __acrt_LCMapStringA        0000000140058c60 f   libucrt:lcmapstringa.obj
 0001:00057d10       _wcsnicoll                 0000000140058d10 f   libucrt:wcsnicol.obj
 0001:00057eb0       _wcsnicoll_l               0000000140058eb0 f   libucrt:wcsnicol.obj
 0001:00058030       _strnicoll                 0000000140059030 f   libucrt:strnicol.obj
 0001:000581e0       _strnicoll_l               00000001400591e0 f   libucrt:strnicol.obj
 0001:00058364       __acrt_SetEnvironmentVariableA 0000000140059364 f   libucrt:setenvironmentvariablea.obj
 0001:00058680       __acrt_GetLocaleInfoA      0000000140059680 f   libucrt:getlocaleinfoa.obj
 0001:00058d30       _i64toa                    0000000140059d30 f   libucrt:xtoa.obj
 0001:00058d64       _i64toa_s                  0000000140059d64 f   libucrt:xtoa.obj
 0001:00058d88       _i64tow                    0000000140059d88 f   libucrt:xtoa.obj
 0001:00058dbc       _i64tow_s                  0000000140059dbc f   libucrt:xtoa.obj
 0001:00058de0       _itoa                      0000000140059de0 f   libucrt:xtoa.obj
 0001:00058e10       _itoa_s                    0000000140059e10 f   libucrt:xtoa.obj
 0001:00058e30       _itow                      0000000140059e30 f   libucrt:xtoa.obj
 0001:00058e60       _itow_s                    0000000140059e60 f   libucrt:xtoa.obj
 0001:00058e80       _ltoa                      0000000140059e80 f   libucrt:xtoa.obj
 0001:00058eb0       _ltoa_s                    0000000140059eb0 f   libucrt:xtoa.obj
 0001:00058ed0       _ltow                      0000000140059ed0 f   libucrt:xtoa.obj
 0001:00058f00       _ltow_s                    0000000140059f00 f   libucrt:xtoa.obj
 0001:00058f20       _ui64toa                   0000000140059f20 f   libucrt:xtoa.obj
 0001:00058f44       _ui64toa_s                 0000000140059f44 f   libucrt:xtoa.obj
 0001:00058f58       _ui64tow                   0000000140059f58 f   libucrt:xtoa.obj
 0001:00058f7c       _ui64tow_s                 0000000140059f7c f   libucrt:xtoa.obj
 0001:00058f90       _ultoa                     0000000140059f90 f   libucrt:xtoa.obj
 0001:00058fb4       _ultoa_s                   0000000140059fb4 f   libucrt:xtoa.obj
 0001:00058fc8       _ultow                     0000000140059fc8 f   libucrt:xtoa.obj
 0001:00058fec       _ultow_s                   0000000140059fec f   libucrt:xtoa.obj
 0001:00059030       __ascii_wcsicmp            000000014005a030 f   libucrt:wcsicmp.obj
 0001:00059090       _towlower_fast_internal    000000014005a090 f i libucrt:wcsicmp.obj
 0001:000590c0       _towlower_internal         000000014005a0c0 f i libucrt:wcsicmp.obj
 0001:00059100       _wcsicmp                   000000014005a100 f   libucrt:wcsicmp.obj
 0001:00059130       _wcsicmp_l                 000000014005a130 f   libucrt:wcsicmp.obj
 0001:00059330       __ascii_wcsnicmp           000000014005a330 f   libucrt:wcsnicmp.obj
 0001:000593a0       _wcsnicmp                  000000014005a3a0 f   libucrt:wcsnicmp.obj
 0001:000593d0       _wcsnicmp_l                000000014005a3d0 f   libucrt:wcsnicmp.obj
 0001:000595b0       wcscmp                     000000014005a5b0 f   libucrt:wcscmpc.obj
 0001:000596bc       __acrt_DownlevelLCIDToLocaleName 000000014005a6bc f   libucrt:lcidtoname_downlevel.obj
 0001:000597a4       __acrt_DownlevelLocaleNameToLCID 000000014005a7a4 f   libucrt:lcidtoname_downlevel.obj
 0001:00059850       _msize_base                000000014005a850 f   libucrt:msize.obj
 0001:00059890       _msize                     000000014005a890 f   libucrt:msize.obj
 0001:000598a0       _realloc_base              000000014005a8a0 f   libucrt:realloc_base.obj
 0001:00059a60       _commit                    000000014005aa60 f   libucrt:commit.obj
 0001:0005a4cc       _utf8_no_of_trailbytes     000000014005b4cc f i libucrt:write.obj
 0001:0005a4dc       _write                     000000014005b4dc f   libucrt:write.obj
 0001:0005a574       _write_internal            000000014005b574 f   libucrt:write.obj
 0001:0005a694       _write_nolock              000000014005b694 f   libucrt:write.obj
 0001:0005a9c4       __acrt_GetStringTypeW      000000014005b9c4 f   libucrt:getstringtypew.obj
 0001:0005a9d0       _controlfp_s               000000014005b9d0 f   libucrt:contrlfp.obj
 0001:0005aa40       fegetenv                   000000014005ba40 f   libucrt:fegetenv.obj
 0001:0005aa60       fesetenv                   000000014005ba60 f   libucrt:fesetenv.obj
 0001:0005aad0       feholdexcept               000000014005bad0 f   libucrt:feholdexcept.obj
 0001:0005ab30       ceil                       000000014005bb30 f   libucrt:ceil.obj
 0001:0005ac00       log10                      000000014005bc00 f   libucrt:log10.obj
 0001:0005b1b0       ??$__acrt_fenv_shift_bits@W4__acrt_fenv_abstract_control@@@@YA?AW4__acrt_fenv_abstract_control@@W40@0I@Z 000000014005c1b0 f i libucrt:_fenvutils.obj
 0001:0005b1c0       ??$__acrt_fenv_shift_bits@W4__acrt_fenv_abstract_status@@@@YA?AW4__acrt_fenv_abstract_status@@W40@0I@Z 000000014005c1c0 f i libucrt:_fenvutils.obj
 0001:0005b1d0       ??$__acrt_fenv_translate_bit@W4__acrt_fenv_abstract_control@@W4__acrt_fenv_machine_sse_control@@@@YA?AW4__acrt_fenv_abstract_control@@W4__acrt_fenv_machine_sse_control@@0W40@1@Z 000000014005c1d0 f i libucrt:_fenvutils.obj
 0001:0005b1e0       ??$__acrt_fenv_translate_bit@W4__acrt_fenv_abstract_status@@W4__acrt_fenv_machine_sse_status@@@@YA?AW4__acrt_fenv_abstract_status@@W4__acrt_fenv_machine_sse_status@@0W40@1@Z 000000014005c1e0 f i libucrt:_fenvutils.obj
 0001:0005b1f0       ??$__acrt_fenv_translate_bit@W4__acrt_fenv_machine_sse_control@@W4__acrt_fenv_abstract_control@@@@YA?AW4__acrt_fenv_machine_sse_control@@W4__acrt_fenv_abstract_control@@0W40@1@Z 000000014005c1f0 f i libucrt:_fenvutils.obj
 0001:0005b200       ??$__acrt_fenv_translate_bit@W4__acrt_fenv_machine_sse_status@@W4__acrt_fenv_abstract_status@@@@YA?AW4__acrt_fenv_machine_sse_status@@W4__acrt_fenv_abstract_status@@0W40@1@Z 000000014005c200 f i libucrt:_fenvutils.obj
 0001:0005b210       ??$__acrt_fenv_unshift_bits@W4__acrt_fenv_abstract_control@@@@YA?AW4__acrt_fenv_abstract_control@@W40@0I@Z 000000014005c210 f i libucrt:_fenvutils.obj
 0001:0005b220       ??$__acrt_fenv_unshift_bits@W4__acrt_fenv_abstract_status@@@@YA?AW4__acrt_fenv_abstract_status@@W40@0I@Z 000000014005c220 f i libucrt:_fenvutils.obj
 0001:0005b430       ??I@YA?AW4__acrt_fenv_abstract_control@@W40@0@Z 000000014005c430 f i libucrt:_fenvutils.obj
 0001:0005b440       ??I@YA?AW4__acrt_fenv_abstract_status@@W40@0@Z 000000014005c440 f i libucrt:_fenvutils.obj
 0001:0005b450       ??I@YA?AW4__acrt_fenv_machine_sse_control@@W40@0@Z 000000014005c450 f i libucrt:_fenvutils.obj
 0001:0005b460       ??I@YA?AW4__acrt_fenv_machine_sse_status@@W40@0@Z 000000014005c460 f i libucrt:_fenvutils.obj
 0001:0005b470       ??U@YA?AW4__acrt_fenv_abstract_control@@W40@0@Z 000000014005c470 f i libucrt:_fenvutils.obj
 0001:0005b480       ??U@YA?AW4__acrt_fenv_abstract_status@@W40@0@Z 000000014005c480 f i libucrt:_fenvutils.obj
 0001:0005b490       ??U@YA?AW4__acrt_fenv_machine_sse_control@@W40@0@Z 000000014005c490 f i libucrt:_fenvutils.obj
 0001:0005b4a0       ??_5@YAAEAW4__acrt_fenv_abstract_control@@AEAW40@W40@@Z 000000014005c4a0 f i libucrt:_fenvutils.obj
 0001:0005b4b0       ??_5@YAAEAW4__acrt_fenv_abstract_status@@AEAW40@W40@@Z 000000014005c4b0 f i libucrt:_fenvutils.obj
 0001:0005b4c0       ??_5@YAAEAW4__acrt_fenv_machine_sse_control@@AEAW40@W40@@Z 000000014005c4c0 f i libucrt:_fenvutils.obj
 0001:0005b4d0       ??_5@YAAEAW4__acrt_fenv_machine_sse_status@@AEAW40@W40@@Z 000000014005c4d0 f i libucrt:_fenvutils.obj
 0001:0005b4e0       ?__acrt_fenv_shift_abstract_sse_control@@YA?AW4__acrt_fenv_abstract_control@@W41@@Z 000000014005c4e0 f i libucrt:_fenvutils.obj
 0001:0005b500       ?__acrt_fenv_shift_abstract_sse_status@@YA?AW4__acrt_fenv_abstract_status@@W41@@Z 000000014005c500 f i libucrt:_fenvutils.obj
 0001:0005b510       ?__acrt_fenv_unshift_abstract_sse_control@@YA?AW4__acrt_fenv_abstract_control@@W41@@Z 000000014005c510 f i libucrt:_fenvutils.obj
 0001:0005b530       ?__acrt_fenv_unshift_abstract_sse_status@@YA?AW4__acrt_fenv_abstract_status@@W41@@Z 000000014005c530 f i libucrt:_fenvutils.obj
 0001:0005b840       __acrt_fenv_expand_round_control 000000014005c840 f   libucrt:_fenvutils.obj
 0001:0005b860       __acrt_fenv_get_common_round_control 000000014005c860 f   libucrt:_fenvutils.obj
 0001:0005b870       __acrt_fenv_get_control    000000014005c870 f   libucrt:_fenvutils.obj
 0001:0005b950       __acrt_fenv_get_fp_status_word_from_exception_mask 000000014005c950 f   libucrt:_fenvutils.obj
 0001:0005b960       __acrt_fenv_get_status     000000014005c960 f   libucrt:_fenvutils.obj
 0001:0005b9c0       __acrt_fenv_set_control    000000014005c9c0 f   libucrt:_fenvutils.obj
 0001:0005baf0       __acrt_fenv_set_status     000000014005caf0 f   libucrt:_fenvutils.obj
 0001:0005bc88       _fclose_nolock             000000014005cc88 f   libucrt:fclose.obj
 0001:0005bd20       fclose                     000000014005cd20 f   libucrt:fclose.obj
 0001:0005c238       _lseek                     000000014005d238 f   libucrt:lseek.obj
 0001:0005c2d0       _lseek_internal            000000014005d2d0 f   libucrt:lseek.obj
 0001:0005c2d8       _lseek_nolock              000000014005d2d8 f   libucrt:lseek.obj
 0001:0005c370       _lseek_nolock_internal     000000014005d370 f   libucrt:lseek.obj
 0001:0005c378       _lseeki64                  000000014005d378 f   libucrt:lseek.obj
 0001:0005c414       _lseeki64_internal         000000014005d414 f   libucrt:lseek.obj
 0001:0005c41c       _lseeki64_nolock           000000014005d41c f   libucrt:lseek.obj
 0001:0005c4b8       _lseeki64_nolock_internal  000000014005d4b8 f   libucrt:lseek.obj
 0001:0005c4c0       __acrt_stdio_allocate_buffer_nolock 000000014005d4c0 f   libucrt:_getbuf.obj
 0001:0005c52c       _guard_check_icall         000000014005d52c f i libucrt:checkcfg.obj
 0001:0005c85c       _mbstowcs_l                000000014005d85c f   libucrt:mbstowcs.obj
 0001:0005c904       _mbstowcs_s_l              000000014005d904 f   libucrt:mbstowcs.obj
 0001:0005c9bc       mbstowcs                   000000014005d9bc f   libucrt:mbstowcs.obj
 0001:0005ca58       mbstowcs_s                 000000014005da58 f   libucrt:mbstowcs.obj
 0001:0005cb00       __strncnt                  000000014005db00 f   libucrt:strncnt.obj
 0001:0005cb18       __acrt_CompareStringW      000000014005db18 f   libucrt:comparestringw.obj
 0001:0005cc20       __ascii_strnicmp           000000014005dc20 f   libucrt:strnicmp.obj
 0001:0005cc90       _strnicmp                  000000014005dc90 f   libucrt:strnicmp.obj
 0001:0005cd20       _strnicmp_l                000000014005dd20 f   libucrt:strnicmp.obj
 0001:0005d20c       __acrt_CompareStringA      000000014005e20c f   libucrt:comparestringa.obj
 0001:0005d298       _towlower_l                000000014005e298 f   libucrt:towlower.obj
 0001:0005d394       towlower                   000000014005e394 f   libucrt:towlower.obj
 0001:0005d438       _putwch                    000000014005e438 f   libucrt:putwch.obj
 0001:0005d474       _putwch_nolock             000000014005e474 f   libucrt:putwch.obj
 0001:0005d4b4       _putwch_nolock_internal    000000014005e4b4 f   libucrt:putwch.obj
 0001:0005dc84       _read                      000000014005ec84 f   libucrt:read.obj
 0001:0005dda4       _read_nolock               000000014005eda4 f   libucrt:read.obj
 0001:0005e330       _clearfp                   000000014005f330 f   libucrt:ieee.obj
 0001:0005e3a0       _control87                 000000014005f3a0 f   libucrt:ieee.obj
 0001:0005e3b0       _controlfp                 000000014005f3b0 f   libucrt:ieee.obj
 0001:0005e3c0       _fpreset                   000000014005f3c0 f   libucrt:ieee.obj
 0001:0005e490       _set_controlfp             000000014005f490 f   libucrt:ieee.obj
 0001:0005e4c0       _statusfp                  000000014005f4c0 f   libucrt:ieee.obj
 0001:0005e930       _handle_error              000000014005f930 f   libucrt:libm_error.obj
 0001:0005ea70       _handle_errorf             000000014005fa70 f   libucrt:libm_error.obj
 0001:0005ebb0       _handle_nan                000000014005fbb0 f   libucrt:libm_error.obj
 0001:0005ebd0       _handle_nanf               000000014005fbd0 f   libucrt:libm_error.obj
 0001:0005ebe0       round_sse41                000000014005fbe0 f   libucrt:floorceil_sse41.obj
 0001:0005ec10       roundf_sse41               000000014005fc10 f   libucrt:floorceil_sse41.obj
 0001:0005ec30       floor_sse41                000000014005fc30 f   libucrt:floorceil_sse41.obj
 0001:0005ec40       floorf_sse41               000000014005fc40 f   libucrt:floorceil_sse41.obj
 0001:0005ec50       ceil_sse41                 000000014005fc50 f   libucrt:floorceil_sse41.obj
 0001:0005ec60       ceilf_sse41                000000014005fc60 f   libucrt:floorceil_sse41.obj
 0001:0005ec70       trunc_sse41                000000014005fc70 f   libucrt:floorceil_sse41.obj
 0001:0005ec80       truncl_sse41               000000014005fc80 f   libucrt:floorceil_sse41.obj
 0001:0005ec90       truncf_sse41               000000014005fc90 f   libucrt:floorceil_sse41.obj
 0001:0005eca0       nearbyint_sse41            000000014005fca0 f   libucrt:floorceil_sse41.obj
 0001:0005ecb0       nearbyintl_sse41           000000014005fcb0 f   libucrt:floorceil_sse41.obj
 0001:0005ecc0       nearbyintf_sse41           000000014005fcc0 f   libucrt:floorceil_sse41.obj
 0001:0005ecd0       rint_sse41                 000000014005fcd0 f   libucrt:floorceil_sse41.obj
 0001:0005ece0       rintl_sse41                000000014005fce0 f   libucrt:floorceil_sse41.obj
 0001:0005ecf0       rintf_sse41                000000014005fcf0 f   libucrt:floorceil_sse41.obj
 0001:0005ed00       __acrt_initialize_fma3     000000014005fd00 f   libucrt:fma3_available.obj
 0001:0005edc0       _get_FMA3_enable           000000014005fdc0 f   libucrt:fma3_available.obj
 0001:0005edd0       _set_FMA3_enable           000000014005fdd0 f   libucrt:fma3_available.obj
 0001:0005ee10       _log10_special             000000014005fe10 f   libucrt:log_special.obj
 0001:0005ee30       _log10f_special            000000014005fe30 f   libucrt:log_special.obj
 0001:0005ee50       _log_special               000000014005fe50 f   libucrt:log_special.obj
 0001:0005ef10       _logf_special              000000014005ff10 f   libucrt:log_special.obj
 0001:0005f168       _close                     0000000140060168 f   libucrt:close.obj
 0001:0005f200       _close_internal            0000000140060200 f   libucrt:close.obj
 0001:0005f2c4       _close_nolock              00000001400602c4 f   libucrt:close.obj
 0001:0005f35c       _close_nolock_internal     000000014006035c f   libucrt:close.obj
 0001:0005f42c       ??$?RU__crt_stdio_stream_data@@@__crt_internal_free_policy@@QEBAXQEBU__crt_stdio_stream_data@@@Z 000000014006042c f i libucrt:stream.obj
 0001:0005f434       ??0?$__crt_unique_heap_ptr@U__crt_stdio_stream_data@@U__crt_internal_free_policy@@@@QEAA@QEAU__crt_stdio_stream_data@@@Z 0000000140060434 f i libucrt:stream.obj
 0001:0005f43c       ??0__crt_stdio_stream@@QEAA@XZ 000000014006043c f i libucrt:stream.obj
 0001:0005f444       ??1?$__crt_unique_heap_ptr@U__crt_stdio_stream_data@@U__crt_internal_free_policy@@@@QEAA@XZ 0000000140060444 f i libucrt:stream.obj
 0001:0005f460       ?__acrt_stdio_allocate_stream@@YA?AV__crt_stdio_stream@@XZ 0000000140060460 f   libucrt:stream.obj
 0001:0005f4b8       ?__acrt_stdio_free_stream@@YAXV__crt_stdio_stream@@@Z 00000001400604b8 f   libucrt:stream.obj
 0001:0005f4d4       ?deallocate@__crt_stdio_stream@@QEAAXXZ 00000001400604d4 f i libucrt:stream.obj
 0001:0005f4e0       ?detach@?$__crt_unique_heap_ptr@U__crt_stdio_stream_data@@U__crt_internal_free_policy@@@@QEAAPEAU__crt_stdio_stream_data@@XZ 00000001400604e0 f i libucrt:stream.obj
 0001:0005f5d4       ?lock@__crt_stdio_stream@@QEBAXXZ 00000001400605d4 f i libucrt:stream.obj
 0001:0005f5dc       ?release@?$__crt_unique_heap_ptr@U__crt_stdio_stream_data@@U__crt_internal_free_policy@@@@QEAAXXZ 00000001400605dc f i libucrt:stream.obj
 0001:0005f5f8       ?try_allocate@__crt_stdio_stream@@QEAA_NXZ 00000001400605f8 f i libucrt:stream.obj
 0001:0005f618       ?unlock@__crt_stdio_stream@@QEBAXXZ 0000000140060618 f i libucrt:stream.obj
 0001:0005f620       __acrt_LCMapStringW        0000000140060620 f   libucrt:lcmapstringw.obj
 0001:0005f7d0       __dcrt_lowio_ensure_console_output_initialized 00000001400607d0 f   libucrt:initcon.obj
 0001:0005f824       __dcrt_terminate_console_output 0000000140060824 f   libucrt:initcon.obj
 0001:0005f840       __dcrt_write_console       0000000140060840 f   libucrt:initcon.obj
 0001:0005f900       _clrfp                     0000000140060900 f   libucrt:fpctrl.obj
 0001:0005f920       _ctrlfp                    0000000140060920 f   libucrt:fpctrl.obj
 0001:0005f9a0       _get_fpcsr                 00000001400609a0 f   libucrt:fpctrl.obj
 0001:0005f9b0       _get_fpsr                  00000001400609b0 f i libucrt:fpctrl.obj
 0001:0005f9c0       _set_fpcsr                 00000001400609c0 f   libucrt:fpctrl.obj
 0001:0005f9d0       _set_fpsr                  00000001400609d0 f i libucrt:fpctrl.obj
 0001:0005f9e0       _set_statfp                00000001400609e0 f   libucrt:fpctrl.obj
 0001:0005fa00       _statfp                    0000000140060a00 f   libucrt:fpctrl.obj
 0001:0005fac0       ?should_round_up@__crt_strtox@@YA_N_N000@Z 0000000140060ac0 f i libucrt:fpexcept.obj
 0001:0005fb40       _errcode                   0000000140060b40 f   libucrt:fpexcept.obj
 0001:0005fb80       _except1                   0000000140060b80 f   libucrt:fpexcept.obj
 0001:0005fd00       _except2                   0000000140060d00 f   libucrt:fpexcept.obj
 0001:0005feb0       _fperrraise                0000000140060eb0 f   libucrt:fpexcept.obj
 0001:0005ffc0       _handle_exc                0000000140060fc0 f   libucrt:fpexcept.obj
 0001:00060340       _handle_qnan2              0000000140061340 f   libucrt:fpexcept.obj
 0001:00060350       _raise_exc                 0000000140061350 f   libucrt:fpexcept.obj
 0001:00060380       _raise_exc_ex              0000000140061380 f   libucrt:fpexcept.obj
 0001:00060690       _raise_excf                0000000140061690 f   libucrt:fpexcept.obj
 0001:000606c0       _set_errno_from_matherr    00000001400616c0 f   libucrt:fpexcept.obj
 0001:00060700       _umatherr                  0000000140061700 f   libucrt:fpexcept.obj
 0001:00060860       ??_4@YAAEAW4__acrt_fenv_abstract_status@@AEAW40@W40@@Z 0000000140061860 f i libucrt:fegetexceptflag.obj
 0001:00060870       fegetexceptflag            0000000140061870 f   libucrt:fegetexceptflag.obj
 0001:000608c0       ??S@YA?AW4__acrt_fenv_abstract_status@@W40@@Z 00000001400618c0 f i libucrt:fesetexceptflag.obj
 0001:000608d0       fesetexceptflag            00000001400618d0 f   libucrt:fesetexceptflag.obj
 0001:00060950       _decomp                    0000000140061950 f i libucrt:frexp.obj
 0001:00060a50       _set_exp                   0000000140061a50 f i libucrt:frexp.obj
 0001:00060a80       _sptype                    0000000140061a80 f i libucrt:frexp.obj
 0001:00060b10       frexp                      0000000140061b10 f   libucrt:frexp.obj
 0001:00060cf0       fetestexcept               0000000140061cf0 f   libucrt:fetestexcept.obj
 0001:00060d20       _FindPESection             0000000140061d20 f   LIBCMT:pesect.obj
 0001:00060d70       _IsNonwritableInCurrentImage 0000000140061d70 f   LIBCMT:pesect.obj
 0001:00060dc0       _ValidateImageBase         0000000140061dc0 f   LIBCMT:pesect.obj
 0001:00060dec       ??1type_info@@UEAA@XZ      0000000140061dec f   LIBCMT:std_type_info_static.obj
 0001:00060df8       ??_Etype_info@@UEAAPEAXI@Z 0000000140061df8 f i LIBCMT:std_type_info_static.obj
 0001:00060df8       ??_Gtype_info@@UEAAPEAXI@Z 0000000140061df8 f i LIBCMT:std_type_info_static.obj
 0001:00060e24       ??3@YAXPEAX_K@Z            0000000140061e24 f   LIBCMT:delete_scalar_size.obj
 0001:00060e2c       __GSHandlerCheck_SEH       0000000140061e2c f   LIBCMT:gshandlerseh.obj
 0001:00060eb4       __GSHandlerCheck_EH        0000000140061eb4 f   LIBCMT:gshandlereh.obj
 0001:00060f34       ??3@YAXPEAX@Z              0000000140061f34 f   LIBCMT:delete_scalar.obj
 0001:00060f39       RtlUnwindEx                0000000140061f39 f   kernel32:KERNEL32.dll
 0001:00060f3f       InterlockedPushEntrySList  0000000140061f3f f   kernel32:KERNEL32.dll
 0001:00060f45       InterlockedFlushSList      0000000140061f45 f   kernel32:KERNEL32.dll
 0001:00060f4b       SetLastError               0000000140061f4b f   kernel32:KERNEL32.dll
 0001:00060f51       EnterCriticalSection       0000000140061f51 f   kernel32:KERNEL32.dll
 0001:00060f57       LeaveCriticalSection       0000000140061f57 f   kernel32:KERNEL32.dll
 0001:00060f5d       DeleteCriticalSection      0000000140061f5d f   kernel32:KERNEL32.dll
 0001:00060f63       InitializeCriticalSectionAndSpinCount 0000000140061f63 f   kernel32:KERNEL32.dll
 0001:00060f69       TlsAlloc                   0000000140061f69 f   kernel32:KERNEL32.dll
 0001:00060f6f       TlsGetValue                0000000140061f6f f   kernel32:KERNEL32.dll
 0001:00060f75       TlsSetValue                0000000140061f75 f   kernel32:KERNEL32.dll
 0001:00060f7b       TlsFree                    0000000140061f7b f   kernel32:KERNEL32.dll
 0001:00060f81       LoadLibraryExW             0000000140061f81 f   kernel32:KERNEL32.dll
 0001:00060f87       EncodePointer              0000000140061f87 f   kernel32:KERNEL32.dll
 0001:00060f8d       RaiseException             0000000140061f8d f   kernel32:KERNEL32.dll
 0001:00060f93       RtlPcToFileHeader          0000000140061f93 f   kernel32:KERNEL32.dll
 0001:00060f99       GetStdHandle               0000000140061f99 f   kernel32:KERNEL32.dll
 0001:00060f9f       GetModuleFileNameW         0000000140061f9f f   kernel32:KERNEL32.dll
 0001:00060fa5       ExitProcess                0000000140061fa5 f   kernel32:KERNEL32.dll
 0001:00060fab       GetModuleHandleExW         0000000140061fab f   kernel32:KERNEL32.dll
 0001:00060fb1       HeapFree                   0000000140061fb1 f   kernel32:KERNEL32.dll
 0001:00060fb7       HeapAlloc                  0000000140061fb7 f   kernel32:KERNEL32.dll
 0001:00060fbd       GetCurrentThread           0000000140061fbd f   kernel32:KERNEL32.dll
 0001:00060fc3       GetFileType                0000000140061fc3 f   kernel32:KERNEL32.dll
 0001:00060fc9       OutputDebugStringW         0000000140061fc9 f   kernel32:KERNEL32.dll
 0001:00060fcf       FindClose                  0000000140061fcf f   kernel32:KERNEL32.dll
 0001:00060fd5       FindFirstFileExW           0000000140061fd5 f   kernel32:KERNEL32.dll
 0001:00060fdb       FindNextFileW              0000000140061fdb f   kernel32:KERNEL32.dll
 0001:00060fe1       IsValidCodePage            0000000140061fe1 f   kernel32:KERNEL32.dll
 0001:00060fe7       GetACP                     0000000140061fe7 f   kernel32:KERNEL32.dll
 0001:00060fed       GetOEMCP                   0000000140061fed f   kernel32:KERNEL32.dll
 0001:00060ff3       GetCPInfo                  0000000140061ff3 f   kernel32:KERNEL32.dll
 0001:00060ff9       GetCommandLineA            0000000140061ff9 f   kernel32:KERNEL32.dll
 0001:00060fff       GetCommandLineW            0000000140061fff f   kernel32:KERNEL32.dll
 0001:00061005       MultiByteToWideChar        0000000140062005 f   kernel32:KERNEL32.dll
 0001:0006100b       WideCharToMultiByte        000000014006200b f   kernel32:KERNEL32.dll
 0001:00061011       GetEnvironmentStringsW     0000000140062011 f   kernel32:KERNEL32.dll
 0001:00061017       FreeEnvironmentStringsW    0000000140062017 f   kernel32:KERNEL32.dll
 0001:0006101d       SetEnvironmentVariableW    000000014006201d f   kernel32:KERNEL32.dll
 0001:00061023       SetStdHandle               0000000140062023 f   kernel32:KERNEL32.dll
 0001:00061029       GetStringTypeW             0000000140062029 f   kernel32:KERNEL32.dll
 0001:0006102f       GetLocaleInfoW             000000014006202f f   kernel32:KERNEL32.dll
 0001:00061035       IsValidLocale              0000000140062035 f   kernel32:KERNEL32.dll
 0001:0006103b       GetUserDefaultLCID         000000014006203b f   kernel32:KERNEL32.dll
 0001:00061041       EnumSystemLocalesW         0000000140062041 f   kernel32:KERNEL32.dll
 0001:00061047       GetTempPathW               0000000140062047 f   kernel32:KERNEL32.dll
 0001:0006104d       FlsAlloc                   000000014006204d f   kernel32:KERNEL32.dll
 0001:00061053       FlsGetValue                0000000140062053 f   kernel32:KERNEL32.dll
 0001:00061059       FlsSetValue                0000000140062059 f   kernel32:KERNEL32.dll
 0001:0006105f       FlsFree                    000000014006205f f   kernel32:KERNEL32.dll
 0001:00061065       IsThreadAFiber             0000000140062065 f   kernel32:KERNEL32.dll
 0001:0006106b       InitializeCriticalSectionEx 000000014006206b f   kernel32:KERNEL32.dll
 0001:00061071       VirtualProtect             0000000140062071 f   kernel32:KERNEL32.dll
 0001:00061077       GetDateFormatW             0000000140062077 f   kernel32:KERNEL32.dll
 0001:0006107d       GetTimeFormatW             000000014006207d f   kernel32:KERNEL32.dll
 0001:00061083       CompareStringW             0000000140062083 f   kernel32:KERNEL32.dll
 0001:00061089       LCMapStringW               0000000140062089 f   kernel32:KERNEL32.dll
 0001:0006108f       GetProcessHeap             000000014006208f f   kernel32:KERNEL32.dll
 0001:00061095       SetConsoleCtrlHandler      0000000140062095 f   kernel32:KERNEL32.dll
 0001:0006109b       SetFilePointerEx           000000014006209b f   kernel32:KERNEL32.dll
 0001:000610a1       HeapSize                   00000001400620a1 f   kernel32:KERNEL32.dll
 0001:000610a7       HeapReAlloc                00000001400620a7 f   kernel32:KERNEL32.dll
 0001:000610ad       FlushFileBuffers           00000001400620ad f   kernel32:KERNEL32.dll
 0001:000610b3       GetConsoleOutputCP         00000001400620b3 f   kernel32:KERNEL32.dll
 0001:000610b9       GetConsoleMode             00000001400620b9 f   kernel32:KERNEL32.dll
 0001:000610bf       ReadConsoleW               00000001400620bf f   kernel32:KERNEL32.dll
 0001:000610c5       CreateFileW                00000001400620c5 f   kernel32:KERNEL32.dll
 0001:000610cb       WriteConsoleW              00000001400620cb f   kernel32:KERNEL32.dll
 0001:000610e0       __C_specific_handler_noexcept 00000001400620e0 f   libvcruntime:chandler_noexcept.obj
 0001:0006112c       strrchr                    000000014006212c f   libvcruntime:strrchr.obj
 0001:00061268       _local_unwind              0000000140062268 f   libvcruntime:jmpuwind.obj
 0001:00061294       strchr                     0000000140062294 f   libvcruntime:strchr.obj
 0001:00061310       wcschr                     0000000140062310 f   libvcruntime:wcschr.obj
 0001:00061388       RtlUnwind                  0000000140062388 f   kernel32:KERNEL32.dll
 0001:000613a0       _guard_dispatch_icall_nop  00000001400623a0 f   LIBCMT:guard_dispatch.obj
 0001:000613c0       _guard_xfg_dispatch_icall_nop 00000001400623c0 f   LIBCMT:guard_xfg_dispatch.obj
 0001:000613e0       _guard_dispatch_icall      00000001400623e0 f   libucrt:dispatchcfg.obj
 0001:000613e0       _guard_dispatch_icall_$fo_default$ 00000001400623e0     libucrt:dispatchcfg.obj
 0001:00061410       memset_repstos             0000000140062410 f   libvcruntime:memset.obj
 0001:00061420       memset                     0000000140062420 f   libvcruntime:memset.obj
 0001:000617d0       memcpy_repmovs             00000001400627d0 f   libvcruntime:memcpy.obj
 0001:000617e0       memcpy                     00000001400627e0 f   libvcruntime:memcpy.obj
 0001:000617e0       memcpy_$fo_default$        00000001400627e0     libvcruntime:memcpy.obj
 0001:000617e0       memmove                    00000001400627e0 f   libvcruntime:memcpy.obj
 0001:00061e60       strncmp                    0000000140062e60 f   libucrt:strncmp.obj
 0001:00061ef0       memcmp                     0000000140062ef0 f   libvcruntime:memcmp.obj
 0002:00000000       __imp_PatBlt               0000000140064000     gdi32:GDI32.dll
 0002:00000008       __imp_GetDeviceCaps        0000000140064008     gdi32:GDI32.dll
 0002:00000010       __imp_StretchDIBits        0000000140064010     gdi32:GDI32.dll
 0002:00000018       \177GDI32_NULL_THUNK_DATA  0000000140064018     gdi32:GDI32.dll
 0002:00000020       __imp_GetConsoleMode       0000000140064020     kernel32:KERNEL32.dll
 0002:00000028       __imp_GetConsoleOutputCP   0000000140064028     kernel32:KERNEL32.dll
 0002:00000030       __imp_FlushFileBuffers     0000000140064030     kernel32:KERNEL32.dll
 0002:00000038       __imp_HeapReAlloc          0000000140064038     kernel32:KERNEL32.dll
 0002:00000040       __imp_HeapSize             0000000140064040     kernel32:KERNEL32.dll
 0002:00000048       __imp_SetFilePointerEx     0000000140064048     kernel32:KERNEL32.dll
 0002:00000050       __imp_SetConsoleCtrlHandler 0000000140064050     kernel32:KERNEL32.dll
 0002:00000058       __imp_GetProcessHeap       0000000140064058     kernel32:KERNEL32.dll
 0002:00000060       __imp_LCMapStringW         0000000140064060     kernel32:KERNEL32.dll
 0002:00000068       __imp_ReadConsoleW         0000000140064068     kernel32:KERNEL32.dll
 0002:00000070       __imp_GetTimeFormatW       0000000140064070     kernel32:KERNEL32.dll
 0002:00000078       __imp_GetDateFormatW       0000000140064078     kernel32:KERNEL32.dll
 0002:00000080       __imp_VirtualProtect       0000000140064080     kernel32:KERNEL32.dll
 0002:00000088       __imp_InitializeCriticalSectionEx 0000000140064088     kernel32:KERNEL32.dll
 0002:00000090       __imp_IsThreadAFiber       0000000140064090     kernel32:KERNEL32.dll
 0002:00000098       __imp_FlsFree              0000000140064098     kernel32:KERNEL32.dll
 0002:000000a0       __imp_FlsSetValue          00000001400640a0     kernel32:KERNEL32.dll
 0002:000000a8       __imp_FlsGetValue          00000001400640a8     kernel32:KERNEL32.dll
 0002:000000b0       __imp_FlsAlloc             00000001400640b0     kernel32:KERNEL32.dll
 0002:000000b8       __imp_CreateFileW          00000001400640b8     kernel32:KERNEL32.dll
 0002:000000c0       __imp_WriteConsoleW        00000001400640c0     kernel32:KERNEL32.dll
 0002:000000c8       __imp_CompareStringW       00000001400640c8     kernel32:KERNEL32.dll
 0002:000000d0       __imp_InterlockedPushEntrySList 00000001400640d0     kernel32:KERNEL32.dll
 0002:000000d8       __imp_GetTempPathW         00000001400640d8     kernel32:KERNEL32.dll
 0002:000000e0       __imp_EnumSystemLocalesW   00000001400640e0     kernel32:KERNEL32.dll
 0002:000000e8       __imp_CompareFileTime      00000001400640e8     kernel32:KERNEL32.dll
 0002:000000f0       __imp_CreateFileA          00000001400640f0     kernel32:KERNEL32.dll
 0002:000000f8       __imp_GetFileAttributesExA 00000001400640f8     kernel32:KERNEL32.dll
 0002:00000100       __imp_GetFileSizeEx        0000000140064100     kernel32:KERNEL32.dll
 0002:00000108       __imp_ReadFile             0000000140064108     kernel32:KERNEL32.dll
 0002:00000110       __imp_WriteFile            0000000140064110     kernel32:KERNEL32.dll
 0002:00000118       __imp_OutputDebugStringA   0000000140064118     kernel32:KERNEL32.dll
 0002:00000120       __imp_CloseHandle          0000000140064120     kernel32:KERNEL32.dll
 0002:00000128       __imp_GetLastError         0000000140064128     kernel32:KERNEL32.dll
 0002:00000130       __imp_QueryPerformanceCounter 0000000140064130     kernel32:KERNEL32.dll
 0002:00000138       __imp_QueryPerformanceFrequency 0000000140064138     kernel32:KERNEL32.dll
 0002:00000140       __imp_Sleep                0000000140064140     kernel32:KERNEL32.dll
 0002:00000148       __imp_VirtualAlloc         0000000140064148     kernel32:KERNEL32.dll
 0002:00000150       __imp_VirtualFree          0000000140064150     kernel32:KERNEL32.dll
 0002:00000158       __imp_MapViewOfFile        0000000140064158     kernel32:KERNEL32.dll
 0002:00000160       __imp_FreeLibrary          0000000140064160     kernel32:KERNEL32.dll
 0002:00000168       __imp_GetModuleFileNameA   0000000140064168     kernel32:KERNEL32.dll
 0002:00000170       __imp_GetProcAddress       0000000140064170     kernel32:KERNEL32.dll
 0002:00000178       __imp_CreateFileMappingA   0000000140064178     kernel32:KERNEL32.dll
 0002:00000180       __imp_LoadLibraryA         0000000140064180     kernel32:KERNEL32.dll
 0002:00000188       __imp_CopyFileA            0000000140064188     kernel32:KERNEL32.dll
 0002:00000190       __imp_RtlCaptureContext    0000000140064190     kernel32:KERNEL32.dll
 0002:00000198       __imp_RtlLookupFunctionEntry 0000000140064198     kernel32:KERNEL32.dll
 0002:000001a0       __imp_RtlVirtualUnwind     00000001400641a0     kernel32:KERNEL32.dll
 0002:000001a8       __imp_UnhandledExceptionFilter 00000001400641a8     kernel32:KERNEL32.dll
 0002:000001b0       __imp_SetUnhandledExceptionFilter 00000001400641b0     kernel32:KERNEL32.dll
 0002:000001b8       __imp_GetCurrentProcess    00000001400641b8     kernel32:KERNEL32.dll
 0002:000001c0       __imp_TerminateProcess     00000001400641c0     kernel32:KERNEL32.dll
 0002:000001c8       __imp_IsProcessorFeaturePresent 00000001400641c8     kernel32:KERNEL32.dll
 0002:000001d0       __imp_GetCurrentProcessId  00000001400641d0     kernel32:KERNEL32.dll
 0002:000001d8       __imp_GetCurrentThreadId   00000001400641d8     kernel32:KERNEL32.dll
 0002:000001e0       __imp_GetSystemTimeAsFileTime 00000001400641e0     kernel32:KERNEL32.dll
 0002:000001e8       __imp_InitializeSListHead  00000001400641e8     kernel32:KERNEL32.dll
 0002:000001f0       __imp_IsDebuggerPresent    00000001400641f0     kernel32:KERNEL32.dll
 0002:000001f8       __imp_GetStartupInfoW      00000001400641f8     kernel32:KERNEL32.dll
 0002:00000200       __imp_GetModuleHandleW     0000000140064200     kernel32:KERNEL32.dll
 0002:00000208       __imp_GetUserDefaultLCID   0000000140064208     kernel32:KERNEL32.dll
 0002:00000210       __imp_RtlUnwindEx          0000000140064210     kernel32:KERNEL32.dll
 0002:00000218       __imp_RtlUnwind            0000000140064218     kernel32:KERNEL32.dll
 0002:00000220       __imp_InterlockedFlushSList 0000000140064220     kernel32:KERNEL32.dll
 0002:00000228       __imp_SetLastError         0000000140064228     kernel32:KERNEL32.dll
 0002:00000230       __imp_EnterCriticalSection 0000000140064230     kernel32:KERNEL32.dll
 0002:00000238       __imp_LeaveCriticalSection 0000000140064238     kernel32:KERNEL32.dll
 0002:00000240       __imp_DeleteCriticalSection 0000000140064240     kernel32:KERNEL32.dll
 0002:00000248       __imp_InitializeCriticalSectionAndSpinCount 0000000140064248     kernel32:KERNEL32.dll
 0002:00000250       __imp_TlsAlloc             0000000140064250     kernel32:KERNEL32.dll
 0002:00000258       __imp_TlsGetValue          0000000140064258     kernel32:KERNEL32.dll
 0002:00000260       __imp_TlsSetValue          0000000140064260     kernel32:KERNEL32.dll
 0002:00000268       __imp_TlsFree              0000000140064268     kernel32:KERNEL32.dll
 0002:00000270       __imp_LoadLibraryExW       0000000140064270     kernel32:KERNEL32.dll
 0002:00000278       __imp_EncodePointer        0000000140064278     kernel32:KERNEL32.dll
 0002:00000280       __imp_RaiseException       0000000140064280     kernel32:KERNEL32.dll
 0002:00000288       __imp_RtlPcToFileHeader    0000000140064288     kernel32:KERNEL32.dll
 0002:00000290       __imp_GetStdHandle         0000000140064290     kernel32:KERNEL32.dll
 0002:00000298       __imp_GetModuleFileNameW   0000000140064298     kernel32:KERNEL32.dll
 0002:000002a0       __imp_ExitProcess          00000001400642a0     kernel32:KERNEL32.dll
 0002:000002a8       __imp_GetModuleHandleExW   00000001400642a8     kernel32:KERNEL32.dll
 0002:000002b0       __imp_HeapFree             00000001400642b0     kernel32:KERNEL32.dll
 0002:000002b8       __imp_HeapAlloc            00000001400642b8     kernel32:KERNEL32.dll
 0002:000002c0       __imp_GetCurrentThread     00000001400642c0     kernel32:KERNEL32.dll
 0002:000002c8       __imp_GetFileType          00000001400642c8     kernel32:KERNEL32.dll
 0002:000002d0       __imp_OutputDebugStringW   00000001400642d0     kernel32:KERNEL32.dll
 0002:000002d8       __imp_FindClose            00000001400642d8     kernel32:KERNEL32.dll
 0002:000002e0       __imp_FindFirstFileExW     00000001400642e0     kernel32:KERNEL32.dll
 0002:000002e8       __imp_FindNextFileW        00000001400642e8     kernel32:KERNEL32.dll
 0002:000002f0       __imp_IsValidCodePage      00000001400642f0     kernel32:KERNEL32.dll
 0002:000002f8       __imp_GetACP               00000001400642f8     kernel32:KERNEL32.dll
 0002:00000300       __imp_GetOEMCP             0000000140064300     kernel32:KERNEL32.dll
 0002:00000308       __imp_GetCPInfo            0000000140064308     kernel32:KERNEL32.dll
 0002:00000310       __imp_GetCommandLineA      0000000140064310     kernel32:KERNEL32.dll
 0002:00000318       __imp_GetCommandLineW      0000000140064318     kernel32:KERNEL32.dll
 0002:00000320       __imp_MultiByteToWideChar  0000000140064320     kernel32:KERNEL32.dll
 0002:00000328       __imp_WideCharToMultiByte  0000000140064328     kernel32:KERNEL32.dll
 0002:00000330       __imp_GetEnvironmentStringsW 0000000140064330     kernel32:KERNEL32.dll
 0002:00000338       __imp_FreeEnvironmentStringsW 0000000140064338     kernel32:KERNEL32.dll
 0002:00000340       __imp_SetEnvironmentVariableW 0000000140064340     kernel32:KERNEL32.dll
 0002:00000348       __imp_SetStdHandle         0000000140064348     kernel32:KERNEL32.dll
 0002:00000350       __imp_GetStringTypeW       0000000140064350     kernel32:KERNEL32.dll
 0002:00000358       __imp_GetLocaleInfoW       0000000140064358     kernel32:KERNEL32.dll
 0002:00000360       __imp_IsValidLocale        0000000140064360     kernel32:KERNEL32.dll
 0002:00000368       \177KERNEL32_NULL_THUNK_DATA 0000000140064368     kernel32:KERNEL32.dll
 0002:00000370       __imp_TranslateMessage     0000000140064370     user32:USER32.dll
 0002:00000378       __imp_DispatchMessageA     0000000140064378     user32:USER32.dll
 0002:00000380       __imp_PeekMessageA         0000000140064380     user32:USER32.dll
 0002:00000388       __imp_GetMonitorInfoA      0000000140064388     user32:USER32.dll
 0002:00000390       __imp_MonitorFromWindow    0000000140064390     user32:USER32.dll
 0002:00000398       __imp_SetWindowLongA       0000000140064398     user32:USER32.dll
 0002:000003a0       __imp_GetWindowLongA       00000001400643a0     user32:USER32.dll
 0002:000003a8       __imp_ScreenToClient       00000001400643a8     user32:USER32.dll
 0002:000003b0       __imp_GetCursorPos         00000001400643b0     user32:USER32.dll
 0002:000003b8       __imp_GetClientRect        00000001400643b8     user32:USER32.dll
 0002:000003c0       __imp_EndPaint             00000001400643c0     user32:USER32.dll
 0002:000003c8       __imp_BeginPaint           00000001400643c8     user32:USER32.dll
 0002:000003d0       __imp_ReleaseDC            00000001400643d0     user32:USER32.dll
 0002:000003d8       __imp_GetDC                00000001400643d8     user32:USER32.dll
 0002:000003e0       __imp_GetKeyState          00000001400643e0     user32:USER32.dll
 0002:000003e8       __imp_SetWindowPlacement   00000001400643e8     user32:USER32.dll
 0002:000003f0       __imp_GetWindowPlacement   00000001400643f0     user32:USER32.dll
 0002:000003f8       __imp_SetWindowPos         00000001400643f8     user32:USER32.dll
 0002:00000400       __imp_CreateWindowExA      0000000140064400     user32:USER32.dll
 0002:00000408       __imp_RegisterClassA       0000000140064408     user32:USER32.dll
 0002:00000410       __imp_DefWindowProcA       0000000140064410     user32:USER32.dll
 0002:00000418       __imp_wsprintfA            0000000140064418     user32:USER32.dll
 0002:00000420       \177USER32_NULL_THUNK_DATA 0000000140064420     user32:USER32.dll
 0002:00000428       __imp_timeBeginPeriod      0000000140064428     winmm:WINMM.dll
 0002:00000430       \177WINMM_NULL_THUNK_DATA  0000000140064430     winmm:WINMM.dll
 0002:00000438       __guard_check_icall_fptr   0000000140064438     LIBCMT:guard_support.obj
 0002:00000440       __guard_xfg_check_icall_fptr 0000000140064440     LIBCMT:guard_support.obj
 0002:00000448       __guard_dispatch_icall_fptr 0000000140064448     LIBCMT:guard_support.obj
 0002:00000450       __guard_xfg_dispatch_icall_fptr 0000000140064450     LIBCMT:guard_support.obj
 0002:00000458       __guard_xfg_table_dispatch_icall_fptr 0000000140064458     LIBCMT:guard_support.obj
 0002:00000460       __castguard_check_failure_os_handled_fptr 0000000140064460     LIBCMT:guard_support.obj
 0002:00000468       __guard_memcpy_fptr        0000000140064468     libvcruntime:softmemtag.obj
 0002:00000470       __xc_a                     0000000140064470     LIBCMT:initializers.obj
 0002:00000480       __xc_z                     0000000140064480     LIBCMT:initializers.obj
 0002:00000488       __xi_a                     0000000140064488     LIBCMT:initializers.obj
 0002:000004a0       __acrt_stdio_initializer   00000001400644a0     libucrt:stdio_initializer.obj
 0002:000004a8       __acrt_multibyte_initializer 00000001400644a8     libucrt:multibyte_initializer.obj
 0002:000004b0       __acrt_fmode_initializer   00000001400644b0     libucrt:fmode_initializer.obj
 0002:000004b8       __acrt_tran_fma3_initializer 00000001400644b8     libucrt:fma3_initializer.obj
 0002:000004c0       __xi_z                     00000001400644c0     LIBCMT:initializers.obj
 0002:000004c8       __xp_a                     00000001400644c8     LIBCMT:initializers.obj
 0002:000004d0       __acrt_locale_terminator   00000001400644d0     libucrt:locale_initializer.obj
 0002:000004d8       __dcrt_console_output_terminator 00000001400644d8     libucrt:console_output_initializer.obj
 0002:000004e0       __acrt_stdio_terminator    00000001400644e0     libucrt:stdio_initializer.obj
 0002:000004e8       __xp_z                     00000001400644e8     LIBCMT:initializers.obj
 0002:000004f0       __xt_a                     00000001400644f0     LIBCMT:initializers.obj
 0002:000004f8       __xt_z                     00000001400644f8     LIBCMT:initializers.obj
 0002:00000780       __real@00000000            0000000140064780     win32_apart.obj
 0002:00000784       __real@3f000000            0000000140064784     win32_apart.obj
 0002:00000788       __real@3f800000            0000000140064788     win32_apart.obj
 0002:0000078c       __real@40000000            000000014006478c     win32_apart.obj
 0002:00000790       __real@447a0000            0000000140064790     win32_apart.obj
 0002:00000794       __real@44800000            0000000140064794     win32_apart.obj
 0002:00000798       __real@46fffe00            0000000140064798     win32_apart.obj
 0002:0000079c       __real@47000000            000000014006479c     win32_apart.obj
 0002:000007a0       __real@bf800000            00000001400647a0     win32_apart.obj
 0002:000007b0       __xmm@80000000800000008000000080000000 00000001400647b0     win32_apart.obj
 0002:000007d0       __xmm@ffffffffffffffffffffffffffffffff 00000001400647d0     LIBCMT:utility.obj
 0002:000007e0       _pDestructExceptionObject  00000001400647e0     libvcruntime:ehhelpers.obj
 0002:00000f00       ??_C@_08EHJDFFNH@__based?$CI@ 0000000140064f00     libvcruntime:undname.obj
 0002:00000f10       ??_C@_07KOLFKCDI@__cdecl@  0000000140064f10     libvcruntime:undname.obj
 0002:00000f18       ??_C@_08GHMPAG@__pascal@   0000000140064f18     libvcruntime:undname.obj
 0002:00000f28       ??_C@_09IFJBGAPI@__stdcall@ 0000000140064f28     libvcruntime:undname.obj
 0002:00000f38       ??_C@_0L@NPHFGOKO@__thiscall@ 0000000140064f38     libvcruntime:undname.obj
 0002:00000f48       ??_C@_0L@JMKHOMEK@__fastcall@ 0000000140064f48     libvcruntime:undname.obj
 0002:00000f58       ??_C@_0N@BCKKPABJ@__vectorcall@ 0000000140064f58     libvcruntime:undname.obj
 0002:00000f68       ??_C@_09HIJEGCPM@__clrcall@ 0000000140064f68     libvcruntime:undname.obj
 0002:00000f74       ??_C@_06GHPCKEAG@__eabi@   0000000140064f74     libvcruntime:undname.obj
 0002:00000f80       ??_C@_09IOPIDJLG@__swift_1@ 0000000140064f80     libvcruntime:undname.obj
 0002:00000f90       ??_C@_09KFNFGKHF@__swift_2@ 0000000140064f90     libvcruntime:undname.obj
 0002:00000fa0       ??_C@_09LMMOFLDE@__swift_3@ 0000000140064fa0     libvcruntime:undname.obj
 0002:00000fb0       ??_C@_07JOMMBBKO@__ptr64@  0000000140064fb0     libvcruntime:undname.obj
 0002:00000fb8       ??_C@_0L@PILCLIHE@__restrict@ 0000000140064fb8     libvcruntime:undname.obj
 0002:00000fc8       ??_C@_0M@GFIIJFMG@__unaligned@ 0000000140064fc8     libvcruntime:undname.obj
 0002:00000fd8       ??_C@_09DHDLOLLB@restrict?$CI@ 0000000140064fd8     libvcruntime:undname.obj
 0002:00000fe2       ??_C@_00CNPNBAHC@@         0000000140064fe2     libvcruntime:undname.obj
 0002:00000fe4       ??_C@_04NIHEBCM@?5new@     0000000140064fe4     libvcruntime:undname.obj
 0002:00000ff0       ??_C@_07FPCDHGMM@?5delete@ 0000000140064ff0     libvcruntime:undname.obj
 0002:00000ff8       ??_C@_01NEMOKFLO@?$DN@     0000000140064ff8     libvcruntime:undname.obj
 0002:00000ffc       ??_C@_02GPIOPFAK@?$DO?$DO@ 0000000140064ffc     libvcruntime:undname.obj
 0002:00001000       ??_C@_02FODMEDOG@?$DM?$DM@ 0000000140065000     libvcruntime:undname.obj
 0002:00001004       ??_C@_01DCLJPIOD@?$CB@     0000000140065004     libvcruntime:undname.obj
 0002:00001008       ??_C@_02EGOFBIJA@?$DN?$DN@ 0000000140065008     libvcruntime:undname.obj
 0002:0000100c       ??_C@_02FDNJECIE@?$CB?$DN@ 000000014006500c     libvcruntime:undname.obj
 0002:00001010       ??_C@_02GPECMEKF@?$FL?$FN@ 0000000140065010     libvcruntime:undname.obj
 0002:00001018       ??_C@_08LHJFAFGD@operator@ 0000000140065018     libvcruntime:undname.obj
 0002:00001024       ??_C@_02HBOOOICD@?9?$DO@   0000000140065024     libvcruntime:undname.obj
 0002:00001028       ??_C@_01NBENCBCI@?$CK@     0000000140065028     libvcruntime:undname.obj
 0002:0000102c       ??_C@_02ECNGHCIF@?$CL?$CL@ 000000014006502c     libvcruntime:undname.obj
 0002:00001030       ??_C@_02BAABKJLB@?9?9@     0000000140065030     libvcruntime:undname.obj
 0002:00001034       ??_C@_01JOAMLHOP@?9@       0000000140065034     libvcruntime:undname.obj
 0002:00001038       ??_C@_01MIFGBAGJ@?$CL@     0000000140065038     libvcruntime:undname.obj
 0002:0000103c       ??_C@_01HNPIGOCE@?$CG@     000000014006503c     libvcruntime:undname.obj
 0002:00001040       ??_C@_03MNHNFDLC@?9?$DO?$CK@ 0000000140065040     libvcruntime:undname.obj
 0002:00001044       ??_C@_01KMDKNFGN@?1@       0000000140065044     libvcruntime:undname.obj
 0002:00001048       ??_C@_01FGNFDNOH@?$CF@     0000000140065048     libvcruntime:undname.obj
 0002:0000104c       ??_C@_01MNNFJEPP@?$DM@     000000014006504c     libvcruntime:undname.obj
 0002:00001050       ??_C@_02EHCHHCKH@?$DM?$DN@ 0000000140065050     libvcruntime:undname.obj
 0002:00001054       ??_C@_01PPODPGHN@?$DO@     0000000140065054     libvcruntime:undname.obj
 0002:00001058       ??_C@_02EEKDKGMJ@?$DO?$DN@ 0000000140065058     libvcruntime:undname.obj
 0002:0000105c       ??_C@_01IHBHIGKO@?0@       000000014006505c     libvcruntime:undname.obj
 0002:00001060       ??_C@_02HCKGKOFO@?$CI?$CJ@ 0000000140065060     libvcruntime:undname.obj
 0002:00001064       ??_C@_01PJKLJHI@?$HO@      0000000140065064     libvcruntime:undname.obj
 0002:00001068       ??_C@_01JKBOJNNK@?$FO@     0000000140065068     libvcruntime:undname.obj
 0002:0000106c       ??_C@_01DNKMNLPK@?$HM@     000000014006506c     libvcruntime:undname.obj
 0002:00001070       ??_C@_02PPKAJPJL@?$CG?$CG@ 0000000140065070     libvcruntime:undname.obj
 0002:00001074       ??_C@_02NONPIBCD@?$HM?$HM@ 0000000140065074     libvcruntime:undname.obj
 0002:00001078       ??_C@_02FPIMKNGF@?$CK?$DN@ 0000000140065078     libvcruntime:undname.obj
 0002:0000107c       ??_C@_02FOEOMHFC@?$CL?$DN@ 000000014006507c     libvcruntime:undname.obj
 0002:00001080       ??_C@_02FKMDLLOA@?9?$DN@   0000000140065080     libvcruntime:undname.obj
 0002:00001084       ??_C@_02FJEHGPIO@?1?$DN@   0000000140065084     libvcruntime:undname.obj
 0002:00001088       ??_C@_02FENAOKFI@?$CF?$DN@ 0000000140065088     libvcruntime:undname.obj
 0002:0000108c       ??_C@_03IKFCCPFF@?$DO?$DO?$DN@ 000000014006508c     libvcruntime:undname.obj
 0002:00001090       ??_C@_03CDNPDDLA@?$DM?$DM?$DN@ 0000000140065090     libvcruntime:undname.obj
 0002:00001094       ??_C@_02FGJGFEAB@?$CG?$DN@ 0000000140065094     libvcruntime:undname.obj
 0002:00001098       ??_C@_02DHLNPPGH@?$HM?$DN@ 0000000140065098     libvcruntime:undname.obj
 0002:0000109c       ??_C@_02MHEGNOJ@?$FO?$DN@  000000014006509c     libvcruntime:undname.obj
 0002:000010a0       ??_C@_09IFPLHPGF@?$GAvftable?8@ 00000001400650a0     libvcruntime:undname.obj
 0002:000010b0       ??_C@_09BLBHBJP@?$GAvbtable?8@ 00000001400650b0     libvcruntime:undname.obj
 0002:000010c0       ??_C@_07FEEIOKP@?$GAvcall?8@ 00000001400650c0     libvcruntime:undname.obj
 0002:000010c8       ??_C@_08LLFFHHDJ@?$GAtypeof?8@ 00000001400650c8     libvcruntime:undname.obj
 0002:000010d8       ??_C@_0BF@KDPPACIK@?$GAlocal?5static?5guard?8@ 00000001400650d8     libvcruntime:undname.obj
 0002:000010f0       ??_C@_08OBABFOLI@?$GAstring?8@ 00000001400650f0     libvcruntime:undname.obj
 0002:00001100       ??_C@_0BD@JDLKDPAB@?$GAvbase?5destructor?8@ 0000000140065100     libvcruntime:undname.obj
 0002:00001118       ??_C@_0BN@DEGPLNFK@?$GAvector?5deleting?5destructor?8@ 0000000140065118     libvcruntime:undname.obj
 0002:00001138       ??_C@_0BO@OBMKPJIG@?$GAdefault?5constructor?5closure?8@ 0000000140065138     libvcruntime:undname.obj
 0002:00001158       ??_C@_0BN@IMDCHIKM@?$GAscalar?5deleting?5destructor?8@ 0000000140065158     libvcruntime:undname.obj
 0002:00001178       ??_C@_0BO@PFGOCPJJ@?$GAvector?5constructor?5iterator?8@ 0000000140065178     libvcruntime:undname.obj
 0002:00001198       ??_C@_0BN@LFPFMEDL@?$GAvector?5destructor?5iterator?8@ 0000000140065198     libvcruntime:undname.obj
 0002:000011b8       ??_C@_0CE@IKBNEHA@?$GAvector?5vbase?5constructor?5itera@ 00000001400651b8     libvcruntime:undname.obj
 0002:000011e0       ??_C@_0BL@NILFHHPC@?$GAvirtual?5displacement?5map?8@ 00000001400651e0     libvcruntime:undname.obj
 0002:00001200       ??_C@_0CB@JONCMFFK@?$GAeh?5vector?5constructor?5iterator@ 0000000140065200     libvcruntime:undname.obj
 0002:00001228       ??_C@_0CA@GCEOPDGL@?$GAeh?5vector?5destructor?5iterator?8@ 0000000140065228     libvcruntime:undname.obj
 0002:00001248       ??_C@_0CH@OOJPLCPH@?$GAeh?5vector?5vbase?5constructor?5it@ 0000000140065248     libvcruntime:undname.obj
 0002:00001270       ??_C@_0BL@LLKPOHJI@?$GAcopy?5constructor?5closure?8@ 0000000140065270     libvcruntime:undname.obj
 0002:00001290       ??_C@_0BA@KBCDOMBN@?$GAudt?5returning?8@ 0000000140065290     libvcruntime:undname.obj
 0002:000012a0       ??_C@_03KLGMFNMG@?$GAEH@   00000001400652a0     libvcruntime:undname.obj
 0002:000012a4       ??_C@_05KHLCHHI@?$GARTTI@  00000001400652a4     libvcruntime:undname.obj
 0002:000012b0       ??_C@_0BA@KKLDJDLB@?$GAlocal?5vftable?8@ 00000001400652b0     libvcruntime:undname.obj
 0002:000012c0       ??_C@_0CE@IIHCMGGL@?$GAlocal?5vftable?5constructor?5clos@ 00000001400652c0     libvcruntime:undname.obj
 0002:000012e4       ??_C@_06FHBGPFGH@?5new?$FL?$FN@ 00000001400652e4     libvcruntime:undname.obj
 0002:000012f0       ??_C@_09LBNFPBCA@?5delete?$FL?$FN@ 00000001400652f0     libvcruntime:undname.obj
 0002:00001300       ??_C@_0P@HJKNJFNN@?$GAomni?5callsig?8@ 0000000140065300     libvcruntime:undname.obj
 0002:00001310       ??_C@_0BL@CNOONJFP@?$GAplacement?5delete?5closure?8@ 0000000140065310     libvcruntime:undname.obj
 0002:00001330       ??_C@_0BN@CKNJLHMB@?$GAplacement?5delete?$FL?$FN?5closure?8@ 0000000140065330     libvcruntime:undname.obj
 0002:00001350       ??_C@_0CG@CFDHKGGD@?$GAmanaged?5vector?5constructor?5ite@ 0000000140065350     libvcruntime:undname.obj
 0002:00001378       ??_C@_0CF@IMGKMJNO@?$GAmanaged?5vector?5destructor?5iter@ 0000000140065378     libvcruntime:undname.obj
 0002:000013a0       ??_C@_0CG@HLDDJMAG@?$GAeh?5vector?5copy?5constructor?5ite@ 00000001400653a0     libvcruntime:undname.obj
 0002:000013c8       ??_C@_0CM@FCBBDIGB@?$GAeh?5vector?5vbase?5copy?5construct@ 00000001400653c8     libvcruntime:undname.obj
 0002:000013f8       ??_C@_0BL@CLIPGLGB@?$GAdynamic?5initializer?5for?5?8@ 00000001400653f8     libvcruntime:undname.obj
 0002:00001418       ??_C@_0CB@PDBIFEP@?$GAdynamic?5atexit?5destructor?5for?5@ 0000000140065418     libvcruntime:undname.obj
 0002:00001440       ??_C@_0CD@CGAJBKEJ@?$GAvector?5copy?5constructor?5iterat@ 0000000140065440     libvcruntime:undname.obj
 0002:00001468       ??_C@_0CJ@GJELGAMM@?$GAvector?5vbase?5copy?5constructor?5@ 0000000140065468     libvcruntime:undname.obj
 0002:00001498       ??_C@_0CL@FGIJHLCE@?$GAmanaged?5vector?5copy?5constructo@ 0000000140065498     libvcruntime:undname.obj
 0002:000014c8       ??_C@_0BM@PMGGMLDN@?$GAlocal?5static?5thread?5guard?8@ 00000001400654c8     libvcruntime:undname.obj
 0002:000014e8       ??_C@_0N@BDNMDMOL@operator?5?$CC?$CC?5@ 00000001400654e8     libvcruntime:undname.obj
 0002:000014f8       ??_C@_0BC@GGEBGALA@operator?5co_await@ 00000001400654f8     libvcruntime:undname.obj
 0002:00001510       ??_C@_0M@GAAIMMOH@operator?$DM?$DN?$DO@ 0000000140065510     libvcruntime:undname.obj
 0002:00001520       ??_C@_0BC@DAFEJGAK@?5Type?5Descriptor?8@ 0000000140065520     libvcruntime:undname.obj
 0002:00001538       ??_C@_0BM@LDKODKLH@?5Base?5Class?5Descriptor?5at?5?$CI@ 0000000140065538     libvcruntime:undname.obj
 0002:00001558       ??_C@_0BD@LGICGFMM@?5Base?5Class?5Array?8@ 0000000140065558     libvcruntime:undname.obj
 0002:00001570       ??_C@_0BN@MECKDCOJ@?5Class?5Hierarchy?5Descriptor?8@ 0000000140065570     libvcruntime:undname.obj
 0002:00001590       ??_C@_0BK@CFCOFLF@?5Complete?5Object?5Locator?8@ 0000000140065590     libvcruntime:undname.obj
 0002:000015b0       ??_C@_0BG@JNJLAMPM@?$GAanonymous?5namespace?8@ 00000001400655b0     libvcruntime:undname.obj
 0002:000015c8       ??_C@_04HEJADOOB@CV?3?5@   00000001400655c8     libvcruntime:undname.obj
 0002:000015d0       ??_C@_02MOLJINC@?3?3@      00000001400655d0     libvcruntime:undname.obj
 0002:000015d8       ??_C@_0BE@JAEOCHPE@template?9parameter?9@ 00000001400655d8     libvcruntime:undname.obj
 0002:000015f0       ??_C@_0BF@LNLGBBNL@?$GAtemplate?9parameter?9@ 00000001400655f0     libvcruntime:undname.obj
 0002:00001608       ??_C@_0O@KHGCOMHP@generic?9type?9@ 0000000140065608     libvcruntime:undname.obj
 0002:00001618       ??_C@_0P@ODDENDLM@?$GAgeneric?9type?9@ 0000000140065618     libvcruntime:undname.obj
 0002:00001628       ??_C@_02OHHJMEON@?8?8@     0000000140065628     libvcruntime:undname.obj
 0002:00001630       ??_C@_0BN@IBLMMFAP@?$GAnon?9type?9template?9parameter@ 0000000140065630     libvcruntime:undname.obj
 0002:00001650       ??_C@_03DLDNIBIK@?$CFlf@   0000000140065650     libvcruntime:undname.obj
 0002:00001654       ??_C@_04OFALKAJ@?$DP?$DP_C@ 0000000140065654     libvcruntime:undname.obj
 0002:0000165c       ??_C@_03KHICJKCI@?4?4?4@   000000014006565c     libvcruntime:undname.obj
 0002:00001660       ??_C@_04HIBGFPH@NULL@      0000000140065660     libvcruntime:undname.obj
 0002:00001668       ??_C@_02DPKJAMEF@?$CFd@    0000000140065668     libvcruntime:undname.obj
 0002:00001670       ??_C@_0BK@IHCCFNEL@?$GAtemplate?9type?9parameter?9@ 0000000140065670     libvcruntime:undname.obj
 0002:00001690       ??_C@_0BK@OFCNNNKO@?$GAgeneric?9class?9parameter?9@ 0000000140065690     libvcruntime:undname.obj
 0002:000016b0       ??_C@_0BL@NGJBLFIL@?$GAgeneric?9method?9parameter?9@ 00000001400656b0     libvcruntime:undname.obj
 0002:000016d0       ??_C@_07OHNGEDJK@nullptr@  00000001400656d0     libvcruntime:undname.obj
 0002:000016d8       ??_C@_06COJIGPIB@lambda@   00000001400656d8     libvcruntime:undname.obj
 0002:000016e0       ??_C@_04GKJNKENE@void@     00000001400656e0     libvcruntime:undname.obj
 0002:000016e8       ??_C@_0BE@EODMJLIF@?$GAtemplate?9parameter@ 00000001400656e8     libvcruntime:undname.obj
 0002:000016fc       ??_C@_03OPGICMGF@?$HN?8?5@ 00000001400656fc     libvcruntime:undname.obj
 0002:00001700       ??_C@_02IGFCGPIL@?$HN?8@   0000000140065700     libvcruntime:undname.obj
 0002:00001708       ??_C@_0N@CBHHHENL@?$GAvtordispex?$HL@ 0000000140065708     libvcruntime:undname.obj
 0002:00001718       ??_C@_0L@GHPFDFH@?$GAvtordisp?$HL@ 0000000140065718     libvcruntime:undname.obj
 0002:00001728       ??_C@_0L@HNGCOGAE@?$GAadjustor?$HL@ 0000000140065728     libvcruntime:undname.obj
 0002:00001738       ??_C@_0CB@KJDOOODE@?$GAlocal?5static?5destructor?5helper@ 0000000140065738     libvcruntime:undname.obj
 0002:00001760       ??_C@_0DB@ILEFOCIJ@?$GAtemplate?5static?5data?5member?5co@ 0000000140065760     libvcruntime:undname.obj
 0002:00001798       ??_C@_0DA@HGFJFBBE@?$GAtemplate?5static?5data?5member?5de@ 0000000140065798     libvcruntime:undname.obj
 0002:000017c8       ??_C@_07PGOEDBHP@static?5@ 00000001400657c8     libvcruntime:undname.obj
 0002:000017d0       ??_C@_08NIEOINHE@virtual?5@ 00000001400657d0     libvcruntime:undname.obj
 0002:000017e0       ??_C@_09LAPHOOG@private?3?5@ 00000001400657e0     libvcruntime:undname.obj
 0002:000017f0       ??_C@_0M@GAIFPFIP@protected?3?5@ 00000001400657f0     libvcruntime:undname.obj
 0002:00001800       ??_C@_08GPDDCMKI@public?3?5@ 0000000140065800     libvcruntime:undname.obj
 0002:00001810       ??_C@_08KJLFOPNE@?$FLthunk?$FN?3@ 0000000140065810     libvcruntime:undname.obj
 0002:00001820       ??_C@_0M@DHNBOJMP@extern?5?$CCC?$CC?5@ 0000000140065820     libvcruntime:undname.obj
 0002:0000182c       ??_C@_02KCKGHPCA@?$CJ?5@   000000014006582c     libvcruntime:undname.obj
 0002:00001830       ??_C@_05CIHEBHNO@char?5@   0000000140065830     libvcruntime:undname.obj
 0002:00001838       ??_C@_06EHJMALKF@short?5@  0000000140065838     libvcruntime:undname.obj
 0002:00001840       ??_C@_04LAHKHJMA@int?5@    0000000140065840     libvcruntime:undname.obj
 0002:00001848       ??_C@_05CJIMAING@long?5@   0000000140065848     libvcruntime:undname.obj
 0002:00001850       ??_C@_09EBBEKKIH@unsigned?5@ 0000000140065850     libvcruntime:undname.obj
 0002:0000185c       ??_C@_05BEFAKPML@void?5@   000000014006585c     libvcruntime:undname.obj
 0002:00001868       ??_C@_09GAIEOBLP@volatile?5@ 0000000140065868     libvcruntime:undname.obj
 0002:00001878       ??_C@_08PABEKFH@volatile@  0000000140065878     libvcruntime:undname.obj
 0002:00001888       ??_C@_0BA@LKIJLKPP@std?3?3nullptr_t?5@ 0000000140065888     libvcruntime:undname.obj
 0002:00001898       ??_C@_0P@GCOCNKDM@std?3?3nullptr_t@ 0000000140065898     libvcruntime:undname.obj
 0002:000018a8       ??_C@_0L@EGPHHEKN@?$DMellipsis?$DO@ 00000001400658a8     libvcruntime:undname.obj
 0002:000018b4       ??_C@_04EENFHACM@?0?4?4?4@ 00000001400658b4     libvcruntime:undname.obj
 0002:000018c0       ??_C@_0M@ELJOJFFH@?0?$DMellipsis?$DO@ 00000001400658c0     libvcruntime:undname.obj
 0002:000018d0       ??_C@_09DNHFEOJI@?5noexcept@ 00000001400658d0     libvcruntime:undname.obj
 0002:000018dc       ??_C@_03PBJBJNON@cpu@      00000001400658dc     libvcruntime:undname.obj
 0002:000018e0       ??_C@_03DCBBJBAA@amp@      00000001400658e0     libvcruntime:undname.obj
 0002:000018e4       ??_C@_02KEGNLNML@?0?5@     00000001400658e4     libvcruntime:undname.obj
 0002:000018e8       ??_C@_04ENMBGAPA@char@     00000001400658e8     libvcruntime:undname.obj
 0002:000018f0       ??_C@_05BFKKPKCG@short@    00000001400658f0     libvcruntime:undname.obj
 0002:000018f8       ??_C@_03JBIPMCLC@int@      00000001400658f8     libvcruntime:undname.obj
 0002:000018fc       ??_C@_04GOKPGOLB@long@     00000001400658fc     libvcruntime:undname.obj
 0002:00001904       ??_C@_05KNFBNCOH@float@    0000000140065904     libvcruntime:undname.obj
 0002:0000190c       ??_C@_06BNJCAIGJ@double@   000000014006590c     libvcruntime:undname.obj
 0002:00001914       ??_C@_04DDKJGDCM@bool@     0000000140065914     libvcruntime:undname.obj
 0002:0000191c       ??_C@_06EBGKOKIG@__int8@   000000014006591c     libvcruntime:undname.obj
 0002:00001928       ??_C@_07ICFHOGAF@__int16@  0000000140065928     libvcruntime:undname.obj
 0002:00001930       ??_C@_07OFLPPHGP@__int32@  0000000140065930     libvcruntime:undname.obj
 0002:00001938       ??_C@_07LFCOJCAC@__int64@  0000000140065938     libvcruntime:undname.obj
 0002:00001940       ??_C@_08GAHOLHEO@__int128@ 0000000140065940     libvcruntime:undname.obj
 0002:00001950       ??_C@_09EEKGDCPH@?$DMunknown?$DO@ 0000000140065950     libvcruntime:undname.obj
 0002:00001960       ??_C@_07CFHGOPCN@char8_t@  0000000140065960     libvcruntime:undname.obj
 0002:00001968       ??_C@_08HBIPOFJB@char16_t@ 0000000140065968     libvcruntime:undname.obj
 0002:00001978       ??_C@_08IECNCBKG@char32_t@ 0000000140065978     libvcruntime:undname.obj
 0002:00001988       ??_C@_07CLGGIAMF@wchar_t@  0000000140065988     libvcruntime:undname.obj
 0002:00001990       ??_C@_04HAPDLBFF@auto@     0000000140065990     libvcruntime:undname.obj
 0002:00001998       ??_C@_0P@LHCGKIGK@decltype?$CIauto?$CJ@ 0000000140065998     libvcruntime:undname.obj
 0002:000019a8       ??_C@_05PCNBGHCF@this?5@   00000001400659a8     libvcruntime:undname.obj
 0002:000019b0       ??_C@_06GCICPBLB@__w64?5@  00000001400659b0     libvcruntime:undname.obj
 0002:000019b8       ??_C@_07NFANNNEC@UNKNOWN@  00000001400659b8     libvcruntime:undname.obj
 0002:000019c0       ??_C@_07EDHNAJHC@signed?5@ 00000001400659c0     libvcruntime:undname.obj
 0002:000019c8       ??_C@_05BNCCCJPP@const@    00000001400659c8     libvcruntime:undname.obj
 0002:000019d0       ??_C@_09EFNPDFFP@?5volatile@ 00000001400659d0     libvcruntime:undname.obj
 0002:000019e0       ??_C@_0P@GCIFDJCJ@?$GAunknown?5ecsu?8@ 00000001400659e0     libvcruntime:undname.obj
 0002:000019f0       ??_C@_06MOJHIBMG@union?5@  00000001400659f0     libvcruntime:undname.obj
 0002:000019f8       ??_C@_07DIBCDNGL@struct?5@ 00000001400659f8     libvcruntime:undname.obj
 0002:00001a00       ??_C@_06LJBABKPM@class?5@  0000000140065a00     libvcruntime:undname.obj
 0002:00001a08       ??_C@_08KOFANOFK@coclass?5@ 0000000140065a08     libvcruntime:undname.obj
 0002:00001a18       ??_C@_0N@DLIEFKNA@cointerface?5@ 0000000140065a18     libvcruntime:undname.obj
 0002:00001a28       ??_C@_05LJGMCFOG@enum?5@   0000000140065a28     libvcruntime:undname.obj
 0002:00001a30       ??_C@_06LIJLOJAG@const?5@  0000000140065a30     libvcruntime:undname.obj
 0002:00001a38       ??_C@_02KJPKDIBN@?$CG?5@   0000000140065a38     libvcruntime:undname.obj
 0002:00001a3c       ??_C@_03PCKGMOPB@?$CG?$CG?5@ 0000000140065a3c     libvcruntime:undname.obj
 0002:00001a40       ??_C@_0M@EALIELKG@cli?3?3array?$DM@ 0000000140065a40     libvcruntime:undname.obj
 0002:00001a50       ??_C@_0O@GKABPPIF@cli?3?3pin_ptr?$DM@ 0000000140065a50     libvcruntime:undname.obj
 0002:00001a60       ??_C@_02GOGNNPBN@?$CJ?$FL@ 0000000140065a60     libvcruntime:undname.obj
 0002:00001a64       ??_C@_06EEGAIFAK@?$HLflat?$HN@ 0000000140065a64     libvcruntime:undname.obj
 0002:00001a6c       ??_C@_05JIBOFOHK@?$HLfor?5@ 0000000140065a6c     libvcruntime:undname.obj
 0002:00001a74       ??_C@_02MDINNEEG@s?5@      0000000140065a74     libvcruntime:undname.obj
 0002:00001a80       ??_7DNameNode@@6B@         0000000140065a80     libvcruntime:undname.obj
 0002:00001aa8       ??_7charNode@@6B@          0000000140065aa8     libvcruntime:undname.obj
 0002:00001ad0       ??_7pcharNode@@6B@         0000000140065ad0     libvcruntime:undname.obj
 0002:00001af8       ??_7pDNameNode@@6B@        0000000140065af8     libvcruntime:undname.obj
 0002:00001b20       ??_7DNameStatusNode@@6B@   0000000140065b20     libvcruntime:undname.obj
 0002:00001b48       ??_7pairNode@@6B@          0000000140065b48     libvcruntime:undname.obj
 0002:00001c70       ??_C@_04OKOHEJBO@?5?$DP?$DP?5@ 0000000140065c70     libvcruntime:undname.obj
 0002:00001c80       ?nodes@?1??make@DNameStatusNode@@SAPEBV2@W4DNameStatus@@@Z@4QBV2@B 0000000140065c80     libvcruntime:undname.obj
 0002:00001cd8       ??_C@_1DM@KHCHBNEB@?$AAa?$AAp?$AAi?$AA?9?$AAm?$AAs?$AA?9?$AAw?$AAi?$AAn?$AA?9?$AAc?$AAo?$AAr?$AAe@ 0000000140065cd8     libvcruntime:winapi_downlevel.obj
 0002:00001d18       ??_C@_1DK@LPPGFMPP@?$AAa?$AAp?$AAi?$AA?9?$AAm?$AAs?$AA?9?$AAw?$AAi?$AAn?$AA?9?$AAc?$AAo?$AAr?$AAe@ 0000000140065d18     libvcruntime:winapi_downlevel.obj
 0002:00001d58       ??_C@_1BC@GDMECMAK@?$AAk?$AAe?$AAr?$AAn?$AAe?$AAl?$AA3?$AA2@ 0000000140065d58     libvcruntime:winapi_downlevel.obj
 0002:00001d70       ??_C@_1BA@PFFKHIOG@?$AAa?$AAp?$AAi?$AA?9?$AAm?$AAs?$AA?9@ 0000000140065d70     libvcruntime:winapi_downlevel.obj
 0002:00001d88       ??_C@_08KNHFBNJ@FlsAlloc@  0000000140065d88     libvcruntime:winapi_downlevel.obj
 0002:00001da0       ??_C@_07PEJMOBNF@FlsFree@  0000000140065da0     libvcruntime:winapi_downlevel.obj
 0002:00001db0       ??_C@_0M@GDNOONDI@FlsGetValue@ 0000000140065db0     libvcruntime:winapi_downlevel.obj
 0002:00001dc8       ??_C@_0M@JCPCPOEF@FlsSetValue@ 0000000140065dc8     libvcruntime:winapi_downlevel.obj
 0002:00001de0       ??_C@_0BM@HCFOFFN@InitializeCriticalSectionEx@ 0000000140065de0     libvcruntime:winapi_downlevel.obj
 0002:00001e00       ?s_negLengthTab@FH4@@3QBCB 0000000140065e00     libvcruntime:risctrnsctrl.obj
 0002:00001e10       ?s_shiftTab@FH4@@3QBEB     0000000140065e10     libvcruntime:risctrnsctrl.obj
 0002:00001f60       ??_7exception@std@@6B@     0000000140065f60     libvcruntime:frame.obj
 0002:00001f70       ??_C@_0BC@EOODALEL@Unknown?5exception@ 0000000140065f70     libvcruntime:frame.obj
 0002:00001f90       ??_7bad_exception@std@@6B@ 0000000140065f90     libvcruntime:frame.obj
 0002:00001fa0       ??_C@_0O@DPKOEFFH@bad?5exception@ 0000000140065fa0     libvcruntime:frame.obj
 0002:00001fb0       _Fenv1                     0000000140065fb0     libucrt:output.obj
 0002:00001fc0       ?standard_lookup_table_spectre@__crt_stdio_output@@3V?$spectre_mitigated_lookup_table@Ustate_transition_pair@__crt_stdio_output@@$0IA@@1@B 0000000140065fc0     libucrt:output.obj
 0002:000020c0       ?format_validation_lookup_table_spectre@__crt_stdio_output@@3V?$spectre_mitigated_lookup_table@Ustate_transition_pair@__crt_stdio_output@@$0IA@@1@B 00000001400660c0     libucrt:output.obj
 0002:00002670       ??_C@_1O@CEDCILHN@?$AA?$CI?$AAn?$AAu?$AAl?$AAl?$AA?$CJ@ 0000000140066670     libucrt:output.obj
 0002:00002680       ??_C@_06OJHGLDPL@?$CInull?$CJ@ 0000000140066680     libucrt:output.obj
 0002:00002690       __acrt_exception_action_table 0000000140066690     libucrt:exception_filter.obj
 0002:00002750       __acrt_signal_action_table_count 0000000140066750     libucrt:exception_filter.obj
 0002:00002758       __acrt_signal_action_table_size 0000000140066758     libucrt:exception_filter.obj
 0002:00002760       __acrt_signal_action_first_fpe_index 0000000140066760     libucrt:exception_filter.obj
 0002:00002768       __acrt_signal_action_fpe_count 0000000140066768     libucrt:exception_filter.obj
 0002:00002770       ??_C@_1DE@JNGNBFGO@?$AAR?$AAu?$AAn?$AAt?$AAi?$AAm?$AAe?$AA?5?$AAE?$AAr?$AAr?$AAo?$AAr?$AA?$CB?$AA?6@ 0000000140066770     libucrt:report_runtime_error.obj
 0002:000027a8       ??_C@_1CO@EAEJAADC@?$AA?$DM?$AAp?$AAr?$AAo?$AAg?$AAr?$AAa?$AAm?$AA?5?$AAn?$AAa?$AAm?$AAe?$AA?5?$AAu@ 00000001400667a8     libucrt:report_runtime_error.obj
 0002:000027d8       ??_C@_17LGKOMLJ@?$AA?4?$AA?4?$AA?4@ 00000001400667d8     libucrt:report_runtime_error.obj
 0002:000027e0       ??_C@_15IABLJNFO@?$AA?6?$AA?6@ 00000001400667e0     libucrt:report_runtime_error.obj
 0002:000027f0       ??_C@_1EK@MBDPDCGA@?$AAM?$AAi?$AAc?$AAr?$AAo?$AAs?$AAo?$AAf?$AAt?$AA?5?$AAV?$AAi?$AAs?$AAu?$AAa@ 00000001400667f0     libucrt:report_runtime_error.obj
 0002:00002930       ??_C@_1BI@BGOHAHKC@?$AAm?$AAs?$AAc?$AAo?$AAr?$AAe?$AAe?$AA?4?$AAd?$AAl?$AAl@ 0000000140066930     libucrt:exit.obj
 0002:00002948       ??_C@_0P@MIGLKIOC@CorExitProcess@ 0000000140066948     libucrt:exit.obj
 0002:000029e0       __lc_category              00000001400669e0     libucrt:wsetlocale.obj
 0002:00002a70       ??_C@_1O@GIFLHMA@?$AAL?$AAC?$AA_?$AAA?$AAL?$AAL@ 0000000140066a70     libucrt:wsetlocale.obj
 0002:00002a80       ??_C@_1BG@PPOMIBNJ@?$AAL?$AAC?$AA_?$AAC?$AAO?$AAL?$AAL?$AAA?$AAT?$AAE@ 0000000140066a80     libucrt:wsetlocale.obj
 0002:00002a98       ??_C@_1BC@FFJGAPJM@?$AAL?$AAC?$AA_?$AAC?$AAT?$AAY?$AAP?$AAE@ 0000000140066a98     libucrt:wsetlocale.obj
 0002:00002ab0       ??_C@_1BI@PCKFNJFB@?$AAL?$AAC?$AA_?$AAM?$AAO?$AAN?$AAE?$AAT?$AAA?$AAR?$AAY@ 0000000140066ab0     libucrt:wsetlocale.obj
 0002:00002ac8       ??_C@_1BG@ENIEDKID@?$AAL?$AAC?$AA_?$AAN?$AAU?$AAM?$AAE?$AAR?$AAI?$AAC@ 0000000140066ac8     libucrt:wsetlocale.obj
 0002:00002ae0       ??_C@_1BA@HAAOMIIG@?$AAL?$AAC?$AA_?$AAT?$AAI?$AAM?$AAE@ 0000000140066ae0     libucrt:wsetlocale.obj
 0002:00002af0       ??_C@_15NBPDDFIP@?$AA?$DN?$AA?$DL@ 0000000140066af0     libucrt:wsetlocale.obj
 0002:00002af8       ??_C@_13PJJBFPED@?$AA?$DL@ 0000000140066af8     libucrt:wsetlocale.obj
 0002:00002afc       ??_C@_13NMPKAAJP@?$AA?$DN@ 0000000140066afc     libucrt:wsetlocale.obj
 0002:00002b00       ??_C@_13IMODFHAA@?$AA?9@   0000000140066b00     libucrt:wsetlocale.obj
 0002:00002b08       ??_C@_17EFJLDFDO@?$AA?9?$AA_?$AA?4@ 0000000140066b08     libucrt:wsetlocale.obj
 0002:00002b10       ??_C@_13FHBKNHDA@?$AAC@    0000000140066b10     libucrt:wsetlocale.obj
 0002:00002b18       ??_C@_17MBJJLFDM@?$AA_?$AA?4?$AA?0@ 0000000140066b18     libucrt:wsetlocale.obj
 0002:00002b20       ??_C@_13ENNFDPBH@?$AA_@    0000000140066b20     libucrt:wsetlocale.obj
 0002:00002b24       ??_C@_13JOFGPIOO@?$AA?4@   0000000140066b24     libucrt:wsetlocale.obj
 0002:00002e70       ??_C@_03OEIAHPBN@INF@      0000000140066e70     libucrt:cvt.obj
 0002:00002e74       ??_C@_03OJHLLCGB@inf@      0000000140066e74     libucrt:cvt.obj
 0002:00002e78       ??_C@_03LKNCIKJB@NAN@      0000000140066e78     libucrt:cvt.obj
 0002:00002e7c       ??_C@_03LHCJEHON@nan@      0000000140066e7c     libucrt:cvt.obj
 0002:00002e80       ??_C@_09OFJJIMPC@NAN?$CISNAN?$CJ@ 0000000140066e80     libucrt:cvt.obj
 0002:00002e90       ??_C@_09IPFBKMDL@nan?$CIsnan?$CJ@ 0000000140066e90     libucrt:cvt.obj
 0002:00002ea0       ??_C@_08IKHNHAJ@NAN?$CIIND?$CJ@ 0000000140066ea0     libucrt:cvt.obj
 0002:00002eb0       ??_C@_08OFCDMILK@nan?$CIind?$CJ@ 0000000140066eb0     libucrt:cvt.obj
 0002:00002ebc       ??_C@_05KLBDPFGC@e?$CL000@ 0000000140066ebc     libucrt:cvt.obj
 0002:00003080       __lc_time_c                0000000140067080     libucrt:nlsdata.obj
 0002:00003340       ??_C@_03KOEHGMDN@Sun@      0000000140067340     libucrt:nlsdata.obj
 0002:00003344       ??_C@_03PDAGKDH@Mon@       0000000140067344     libucrt:nlsdata.obj
 0002:00003348       ??_C@_03NAGEINEP@Tue@      0000000140067348     libucrt:nlsdata.obj
 0002:0000334c       ??_C@_03MHOMLAJA@Wed@      000000014006734c     libucrt:nlsdata.obj
 0002:00003350       ??_C@_03IOFIKPDN@Thu@      0000000140067350     libucrt:nlsdata.obj
 0002:00003354       ??_C@_03IDIOELNC@Fri@      0000000140067354     libucrt:nlsdata.obj
 0002:00003358       ??_C@_03FEFJNEK@Sat@       0000000140067358     libucrt:nlsdata.obj
 0002:0000335c       ??_C@_06OOPIFAJ@Sunday@    000000014006735c     libucrt:nlsdata.obj
 0002:00003364       ??_C@_06JLEDEDGH@Monday@   0000000140067364     libucrt:nlsdata.obj
 0002:00003370       ??_C@_07BAAGCFCM@Tuesday@  0000000140067370     libucrt:nlsdata.obj
 0002:00003378       ??_C@_09DLIGFAKA@Wednesday@ 0000000140067378     libucrt:nlsdata.obj
 0002:00003388       ??_C@_08HACCIKIA@Thursday@ 0000000140067388     libucrt:nlsdata.obj
 0002:00003394       ??_C@_06JECMNKMI@Friday@   0000000140067394     libucrt:nlsdata.obj
 0002:000033a0       ??_C@_08INBOOONO@Saturday@ 00000001400673a0     libucrt:nlsdata.obj
 0002:000033ac       ??_C@_03JIHJHPIE@Jan@      00000001400673ac     libucrt:nlsdata.obj
 0002:000033b0       ??_C@_03HJBDCHOM@Feb@      00000001400673b0     libucrt:nlsdata.obj
 0002:000033b4       ??_C@_03ODNJBKGA@Mar@      00000001400673b4     libucrt:nlsdata.obj
 0002:000033b8       ??_C@_03LEOLGMJP@Apr@      00000001400673b8     libucrt:nlsdata.obj
 0002:000033bc       ??_C@_03CNMDKL@May@        00000001400673bc     libucrt:nlsdata.obj
 0002:000033c0       ??_C@_03IDFGHECI@Jun@      00000001400673c0     libucrt:nlsdata.obj
 0002:000033c4       ??_C@_03LBGABGKK@Jul@      00000001400673c4     libucrt:nlsdata.obj
 0002:000033c8       ??_C@_03IFJFEIGA@Aug@      00000001400673c8     libucrt:nlsdata.obj
 0002:000033cc       ??_C@_03GGCAPAJC@Sep@      00000001400673cc     libucrt:nlsdata.obj
 0002:000033d0       ??_C@_03BMAOKBAD@Oct@      00000001400673d0     libucrt:nlsdata.obj
 0002:000033d4       ??_C@_03JPJOFNIA@Nov@      00000001400673d4     libucrt:nlsdata.obj
 0002:000033d8       ??_C@_03MKABNOCG@Dec@      00000001400673d8     libucrt:nlsdata.obj
 0002:000033e0       ??_C@_07CGJPFGJA@January@  00000001400673e0     libucrt:nlsdata.obj
 0002:000033e8       ??_C@_08GNJGEPFN@February@ 00000001400673e8     libucrt:nlsdata.obj
 0002:000033f4       ??_C@_05HPCKOFNC@March@    00000001400673f4     libucrt:nlsdata.obj
 0002:000033fc       ??_C@_05DMJDNLEJ@April@    00000001400673fc     libucrt:nlsdata.obj
 0002:00003404       ??_C@_04CNLMGBGM@June@     0000000140067404     libucrt:nlsdata.obj
 0002:0000340c       ??_C@_04MIEPOIFP@July@     000000014006740c     libucrt:nlsdata.obj
 0002:00003414       ??_C@_06LBBHFDDG@August@   0000000140067414     libucrt:nlsdata.obj
 0002:00003420       ??_C@_09BHHEALKD@September@ 0000000140067420     libucrt:nlsdata.obj
 0002:00003430       ??_C@_07JJNFCEND@October@  0000000140067430     libucrt:nlsdata.obj
 0002:00003438       ??_C@_08HCHEGEOA@November@ 0000000140067438     libucrt:nlsdata.obj
 0002:00003448       ??_C@_08EDHMEBNP@December@ 0000000140067448     libucrt:nlsdata.obj
 0002:00003454       ??_C@_02DEDBPAFC@AM@       0000000140067454     libucrt:nlsdata.obj
 0002:00003458       ??_C@_02CJNFDJBF@PM@       0000000140067458     libucrt:nlsdata.obj
 0002:00003460       ??_C@_08BPBNCDIB@MM?1dd?1yy@ 0000000140067460     libucrt:nlsdata.obj
 0002:00003470       ??_C@_0BE@CKGJFCPC@dddd?0?5MMMM?5dd?0?5yyyy@ 0000000140067470     libucrt:nlsdata.obj
 0002:00003488       ??_C@_08JCCMCCIL@HH?3mm?3ss@ 0000000140067488     libucrt:nlsdata.obj
 0002:00003498       ??_C@_17MBGCMIPB@?$AAS?$AAu?$AAn@ 0000000140067498     libucrt:nlsdata.obj
 0002:000034a0       ??_C@_17KBOMKBF@?$AAM?$AAo?$AAn@ 00000001400674a0     libucrt:nlsdata.obj
 0002:000034a8       ??_C@_17BMKGEGOJ@?$AAT?$AAu?$AAe@ 00000001400674a8     libucrt:nlsdata.obj
 0002:000034b0       ??_C@_17CJEDCEPE@?$AAW?$AAe?$AAd@ 00000001400674b0     libucrt:nlsdata.obj
 0002:000034b8       ??_C@_17PDPHAADD@?$AAT?$AAh?$AAu@ 00000001400674b8     libucrt:nlsdata.obj
 0002:000034c0       ??_C@_17HFOLPPLP@?$AAF?$AAr?$AAi@ 00000001400674c0     libucrt:nlsdata.obj
 0002:000034c8       ??_C@_17GGIBDPIH@?$AAS?$AAa?$AAt@ 00000001400674c8     libucrt:nlsdata.obj
 0002:000034d0       ??_C@_1O@IHNHDHPB@?$AAS?$AAu?$AAn?$AAd?$AAa?$AAy@ 00000001400674d0     libucrt:nlsdata.obj
 0002:000034e0       ??_C@_1O@MMNBFLIA@?$AAM?$AAo?$AAn?$AAd?$AAa?$AAy@ 00000001400674e0     libucrt:nlsdata.obj
 0002:000034f0       ??_C@_1BA@ENFBFFEK@?$AAT?$AAu?$AAe?$AAs?$AAd?$AAa?$AAy@ 00000001400674f0     libucrt:nlsdata.obj
 0002:00003500       ??_C@_1BE@EBOGMDOH@?$AAW?$AAe?$AAd?$AAn?$AAe?$AAs?$AAd?$AAa?$AAy@ 0000000140067500     libucrt:nlsdata.obj
 0002:00003518       ??_C@_1BC@HHMNLIHE@?$AAT?$AAh?$AAu?$AAr?$AAs?$AAd?$AAa?$AAy@ 0000000140067518     libucrt:nlsdata.obj
 0002:00003530       ??_C@_1O@PDICJHAG@?$AAF?$AAr?$AAi?$AAd?$AAa?$AAy@ 0000000140067530     libucrt:nlsdata.obj
 0002:00003540       ??_C@_1BC@ENMNNPAJ@?$AAS?$AAa?$AAt?$AAu?$AAr?$AAd?$AAa?$AAy@ 0000000140067540     libucrt:nlsdata.obj
 0002:00003558       ??_C@_17DKNBKCHM@?$AAJ?$AAa?$AAn@ 0000000140067558     libucrt:nlsdata.obj
 0002:00003560       ??_C@_17LMDJEKJN@?$AAF?$AAe?$AAb@ 0000000140067560     libucrt:nlsdata.obj
 0002:00003568       ??_C@_17CKNLEDEC@?$AAM?$AAa?$AAr@ 0000000140067568     libucrt:nlsdata.obj
 0002:00003570       ??_C@_17LFPOIHDD@?$AAA?$AAp?$AAr@ 0000000140067570     libucrt:nlsdata.obj
 0002:00003578       ??_C@_17PNNKMEED@?$AAM?$AAa?$AAy@ 0000000140067578     libucrt:nlsdata.obj
 0002:00003580       ??_C@_17KCJGOCPB@?$AAJ?$AAu?$AAn@ 0000000140067580     libucrt:nlsdata.obj
 0002:00003588       ??_C@_17IJPCKHK@?$AAJ?$AAu?$AAl@ 0000000140067588     libucrt:nlsdata.obj
 0002:00003590       ??_C@_17ICPELBCN@?$AAA?$AAu?$AAg@ 0000000140067590     libucrt:nlsdata.obj
 0002:00003598       ??_C@_17HCHCOKMG@?$AAS?$AAe?$AAp@ 0000000140067598     libucrt:nlsdata.obj
 0002:000035a0       ??_C@_17FNLKOI@?$AAO?$AAc?$AAt@ 00000001400675a0     libucrt:nlsdata.obj
 0002:000035a8       ??_C@_17BBDMLCIG@?$AAN?$AAo?$AAv@ 00000001400675a8     libucrt:nlsdata.obj
 0002:000035b0       ??_C@_17EGKACKIF@?$AAD?$AAe?$AAc@ 00000001400675b0     libucrt:nlsdata.obj
 0002:000035b8       ??_C@_1BA@EFMEIEBA@?$AAJ?$AAa?$AAn?$AAu?$AAa?$AAr?$AAy@ 00000001400675b8     libucrt:nlsdata.obj
 0002:000035c8       ??_C@_1BC@JGDDFFAM@?$AAF?$AAe?$AAb?$AAr?$AAu?$AAa?$AAr?$AAy@ 00000001400675c8     libucrt:nlsdata.obj
 0002:000035e0       ??_C@_1M@IKEENEDF@?$AAM?$AAa?$AAr?$AAc?$AAh@ 00000001400675e0     libucrt:nlsdata.obj
 0002:000035f0       ??_C@_1M@GJNLMHFD@?$AAA?$AAp?$AAr?$AAi?$AAl@ 00000001400675f0     libucrt:nlsdata.obj
 0002:00003600       ??_C@_19EPFLPGAP@?$AAJ?$AAu?$AAn?$AAe@ 0000000140067600     libucrt:nlsdata.obj
 0002:00003610       ??_C@_19BIFMLPCD@?$AAJ?$AAu?$AAl?$AAy@ 0000000140067610     libucrt:nlsdata.obj
 0002:00003620       ??_C@_1O@PAHLKOAC@?$AAA?$AAu?$AAg?$AAu?$AAs?$AAt@ 0000000140067620     libucrt:nlsdata.obj
 0002:00003630       ??_C@_1BE@DKAAMBJL@?$AAS?$AAe?$AAp?$AAt?$AAe?$AAm?$AAb?$AAe?$AAr@ 0000000140067630     libucrt:nlsdata.obj
 0002:00003648       ??_C@_1BA@EPANDLNG@?$AAO?$AAc?$AAt?$AAo?$AAb?$AAe?$AAr@ 0000000140067648     libucrt:nlsdata.obj
 0002:00003658       ??_C@_1BC@BGLIFPF@?$AAN?$AAo?$AAv?$AAe?$AAm?$AAb?$AAe?$AAr@ 0000000140067658     libucrt:nlsdata.obj
 0002:00003670       ??_C@_1BC@FEMKIFH@?$AAD?$AAe?$AAc?$AAe?$AAm?$AAb?$AAe?$AAr@ 0000000140067670     libucrt:nlsdata.obj
 0002:00003684       ??_C@_15ODEHAHHF@?$AAA?$AAM@ 0000000140067684     libucrt:nlsdata.obj
 0002:0000368c       ??_C@_15CLMNNGEL@?$AAP?$AAM@ 000000014006768c     libucrt:nlsdata.obj
 0002:00003698       ??_C@_1BC@IEBCMHCM@?$AAM?$AAM?$AA?1?$AAd?$AAd?$AA?1?$AAy?$AAy@ 0000000140067698     libucrt:nlsdata.obj
 0002:000036b0       ??_C@_1CI@KNAKOEBC@?$AAd?$AAd?$AAd?$AAd?$AA?0?$AA?5?$AAM?$AAM?$AAM?$AAM?$AA?5?$AAd?$AAd?$AA?0?$AA?5@ 00000001400676b0     libucrt:nlsdata.obj
 0002:000036d8       ??_C@_1BC@GDGBMEMK@?$AAH?$AAH?$AA?3?$AAm?$AAm?$AA?3?$AAs?$AAs@ 00000001400676d8     libucrt:nlsdata.obj
 0002:000036f0       ??_C@_1M@BMHNFIME@?$AAe?$AAn?$AA?9?$AAU?$AAS@ 00000001400676f0     libucrt:nlsdata.obj
 0002:00003720       ??_C@_1M@HPNHIDJI@?$AAj?$AAa?$AA?9?$AAJ?$AAP@ 0000000140067720     libucrt:mbctype.obj
 0002:00003730       ??_C@_1M@BIBDDEMK@?$AAz?$AAh?$AA?9?$AAC?$AAN@ 0000000140067730     libucrt:mbctype.obj
 0002:00003740       ??_C@_1M@JLOOOEGK@?$AAk?$AAo?$AA?9?$AAK?$AAR@ 0000000140067740     libucrt:mbctype.obj
 0002:00003750       ??_C@_1M@CLNBBOPM@?$AAz?$AAh?$AA?9?$AAT?$AAW@ 0000000140067750     libucrt:mbctype.obj
 0002:00003760       RtlNtPathSeperatorString   0000000140067760     libucrt:peb_access.obj
 0002:00003770       ??_C@_13FPGAJAPJ@?$AA?2@   0000000140067770     libucrt:peb_access.obj
 0002:00003778       RtlDosPathSeperatorsString 0000000140067778     libucrt:peb_access.obj
 0002:00003788       ??_C@_15MNCACJLI@?$AA?2?$AA?1@ 0000000140067788     libucrt:peb_access.obj
 0002:00003790       RtlAlternateDosPathSeperatorString 0000000140067790     libucrt:peb_access.obj
 0002:000037a0       ??_C@_13CGOKJPIL@?$AA?1@   00000001400677a0     libucrt:peb_access.obj
 0002:000037b0       __newctype                 00000001400677b0     libucrt:ctype.obj
 0002:00003ab0       __newclmap                 0000000140067ab0     libucrt:ctype.obj
 0002:00003c30       __newcumap                 0000000140067c30     libucrt:ctype.obj
 0002:00003db0       _wctype                    0000000140067db0     libucrt:ctype.obj
 0002:00003fc0       __acrt_rg_language         0000000140067fc0     libucrt:get_qualified_locale.obj
 0002:000043d0       __acrt_rg_language_count   00000001400683d0     libucrt:get_qualified_locale.obj
 0002:000043e0       __acrt_rg_country          00000001400683e0     libucrt:get_qualified_locale.obj
 0002:00004550       __acrt_rg_country_count    0000000140068550     libucrt:get_qualified_locale.obj
 0002:00004558       ??_C@_1BC@LLOKLNP@?$AAa?$AAm?$AAe?$AAr?$AAi?$AAc?$AAa?$AAn@ 0000000140068558     libucrt:get_qualified_locale.obj
 0002:00004570       ??_C@_1CC@HEIGCDGG@?$AAa?$AAm?$AAe?$AAr?$AAi?$AAc?$AAa?$AAn?$AA?5?$AAe?$AAn?$AAg?$AAl?$AAi?$AAs@ 0000000140068570     libucrt:get_qualified_locale.obj
 0002:00004598       ??_C@_1CC@IHCNOMIN@?$AAa?$AAm?$AAe?$AAr?$AAi?$AAc?$AAa?$AAn?$AA?9?$AAe?$AAn?$AAg?$AAl?$AAi?$AAs@ 0000000140068598     libucrt:get_qualified_locale.obj
 0002:000045c0       ??_C@_1BG@GKAGPCGG@?$AAa?$AAu?$AAs?$AAt?$AAr?$AAa?$AAl?$AAi?$AAa?$AAn@ 00000001400685c0     libucrt:get_qualified_locale.obj
 0002:000045d8       ??_C@_1BA@GMENCENF@?$AAb?$AAe?$AAl?$AAg?$AAi?$AAa?$AAn@ 00000001400685d8     libucrt:get_qualified_locale.obj
 0002:000045e8       ??_C@_1BC@PJMIIAAN@?$AAc?$AAa?$AAn?$AAa?$AAd?$AAi?$AAa?$AAn@ 00000001400685e8     libucrt:get_qualified_locale.obj
 0002:00004600       ??_C@_17NOIMNFBF@?$AAc?$AAh?$AAh@ 0000000140068600     libucrt:get_qualified_locale.obj
 0002:00004608       ??_C@_17GGDALCHA@?$AAc?$AAh?$AAi@ 0000000140068608     libucrt:get_qualified_locale.obj
 0002:00004610       ??_C@_1BA@NPNJKIBL@?$AAc?$AAh?$AAi?$AAn?$AAe?$AAs?$AAe@ 0000000140068610     libucrt:get_qualified_locale.obj
 0002:00004620       ??_C@_1CC@DINBAMMJ@?$AAc?$AAh?$AAi?$AAn?$AAe?$AAs?$AAe?$AA?9?$AAh?$AAo?$AAn?$AAg?$AAk?$AAo?$AAn@ 0000000140068620     libucrt:get_qualified_locale.obj
 0002:00004648       ??_C@_1CG@IOBJPACO@?$AAc?$AAh?$AAi?$AAn?$AAe?$AAs?$AAe?$AA?9?$AAs?$AAi?$AAm?$AAp?$AAl?$AAi?$AAf@ 0000000140068648     libucrt:get_qualified_locale.obj
 0002:00004670       ??_C@_1CE@GAJNDCKG@?$AAc?$AAh?$AAi?$AAn?$AAe?$AAs?$AAe?$AA?9?$AAs?$AAi?$AAn?$AAg?$AAa?$AAp?$AAo@ 0000000140068670     libucrt:get_qualified_locale.obj
 0002:00004698       ??_C@_1CI@PAJPIOOD@?$AAc?$AAh?$AAi?$AAn?$AAe?$AAs?$AAe?$AA?9?$AAt?$AAr?$AAa?$AAd?$AAi?$AAt?$AAi@ 0000000140068698     libucrt:get_qualified_locale.obj
 0002:000046c0       ??_C@_1BM@NILJBMMD@?$AAd?$AAu?$AAt?$AAc?$AAh?$AA?9?$AAb?$AAe?$AAl?$AAg?$AAi?$AAa?$AAn@ 00000001400686c0     libucrt:get_qualified_locale.obj
 0002:000046e0       ??_C@_1CC@OOJPJNEJ@?$AAe?$AAn?$AAg?$AAl?$AAi?$AAs?$AAh?$AA?9?$AAa?$AAm?$AAe?$AAr?$AAi?$AAc?$AAa@ 00000001400686e0     libucrt:get_qualified_locale.obj
 0002:00004708       ??_C@_1BI@IOLFEEM@?$AAe?$AAn?$AAg?$AAl?$AAi?$AAs?$AAh?$AA?9?$AAa?$AAu?$AAs@ 0000000140068708     libucrt:get_qualified_locale.obj
 0002:00004720       ??_C@_1BO@HFFNLENJ@?$AAe?$AAn?$AAg?$AAl?$AAi?$AAs?$AAh?$AA?9?$AAb?$AAe?$AAl?$AAi?$AAz?$AAe@ 0000000140068720     libucrt:get_qualified_locale.obj
 0002:00004740       ??_C@_1BI@HAPKJMPO@?$AAe?$AAn?$AAg?$AAl?$AAi?$AAs?$AAh?$AA?9?$AAc?$AAa?$AAn@ 0000000140068740     libucrt:get_qualified_locale.obj
 0002:00004758       ??_C@_1CE@HLNDMIOJ@?$AAe?$AAn?$AAg?$AAl?$AAi?$AAs?$AAh?$AA?9?$AAc?$AAa?$AAr?$AAi?$AAb?$AAb?$AAe@ 0000000140068758     libucrt:get_qualified_locale.obj
 0002:00004780       ??_C@_1BI@LDHJHHAC@?$AAe?$AAn?$AAg?$AAl?$AAi?$AAs?$AAh?$AA?9?$AAi?$AAr?$AAe@ 0000000140068780     libucrt:get_qualified_locale.obj
 0002:00004798       ??_C@_1CA@NJMMCFOC@?$AAe?$AAn?$AAg?$AAl?$AAi?$AAs?$AAh?$AA?9?$AAj?$AAa?$AAm?$AAa?$AAi?$AAc?$AAa@ 0000000140068798     libucrt:get_qualified_locale.obj
 0002:000047b8       ??_C@_1BG@BHJEBBGG@?$AAe?$AAn?$AAg?$AAl?$AAi?$AAs?$AAh?$AA?9?$AAn?$AAz@ 00000001400687b8     libucrt:get_qualified_locale.obj
 0002:000047d0       ??_C@_1CK@FGOEJJCO@?$AAe?$AAn?$AAg?$AAl?$AAi?$AAs?$AAh?$AA?9?$AAs?$AAo?$AAu?$AAt?$AAh?$AA?5?$AAa@ 00000001400687d0     libucrt:get_qualified_locale.obj
 0002:00004800       ??_C@_1DE@PDBJPCJ@?$AAe?$AAn?$AAg?$AAl?$AAi?$AAs?$AAh?$AA?9?$AAt?$AAr?$AAi?$AAn?$AAi?$AAd?$AAa@ 0000000140068800     libucrt:get_qualified_locale.obj
 0002:00004838       ??_C@_1BG@JGCANDME@?$AAe?$AAn?$AAg?$AAl?$AAi?$AAs?$AAh?$AA?9?$AAu?$AAk@ 0000000140068838     libucrt:get_qualified_locale.obj
 0002:00004850       ??_C@_1BG@DINKMLE@?$AAe?$AAn?$AAg?$AAl?$AAi?$AAs?$AAh?$AA?9?$AAu?$AAs@ 0000000140068850     libucrt:get_qualified_locale.obj
 0002:00004868       ??_C@_1BI@NMFDBHJE@?$AAe?$AAn?$AAg?$AAl?$AAi?$AAs?$AAh?$AA?9?$AAu?$AAs?$AAa@ 0000000140068868     libucrt:get_qualified_locale.obj
 0002:00004880       ??_C@_1BO@OIHKJKII@?$AAf?$AAr?$AAe?$AAn?$AAc?$AAh?$AA?9?$AAb?$AAe?$AAl?$AAg?$AAi?$AAa?$AAn@ 0000000140068880     libucrt:get_qualified_locale.obj
 0002:000048a0       ??_C@_1CA@NKAELJKI@?$AAf?$AAr?$AAe?$AAn?$AAc?$AAh?$AA?9?$AAc?$AAa?$AAn?$AAa?$AAd?$AAi?$AAa?$AAn@ 00000001400688a0     libucrt:get_qualified_locale.obj
 0002:000048c0       ??_C@_1CE@MGKCNLGN@?$AAf?$AAr?$AAe?$AAn?$AAc?$AAh?$AA?9?$AAl?$AAu?$AAx?$AAe?$AAm?$AAb?$AAo?$AAu@ 00000001400688c0     libucrt:get_qualified_locale.obj
 0002:000048e8       ??_C@_1BK@CEGEAILM@?$AAf?$AAr?$AAe?$AAn?$AAc?$AAh?$AA?9?$AAs?$AAw?$AAi?$AAs?$AAs@ 00000001400688e8     libucrt:get_qualified_locale.obj
 0002:00004908       ??_C@_1CA@PAFKEOCC@?$AAg?$AAe?$AAr?$AAm?$AAa?$AAn?$AA?9?$AAa?$AAu?$AAs?$AAt?$AAr?$AAi?$AAa?$AAn@ 0000000140068908     libucrt:get_qualified_locale.obj
 0002:00004928       ??_C@_1CI@HCFHGOFD@?$AAg?$AAe?$AAr?$AAm?$AAa?$AAn?$AA?9?$AAl?$AAi?$AAc?$AAh?$AAt?$AAe?$AAn?$AAs@ 0000000140068928     libucrt:get_qualified_locale.obj
 0002:00004950       ??_C@_1CE@FEDDNPDG@?$AAg?$AAe?$AAr?$AAm?$AAa?$AAn?$AA?9?$AAl?$AAu?$AAx?$AAe?$AAm?$AAb?$AAo?$AAu@ 0000000140068950     libucrt:get_qualified_locale.obj
 0002:00004978       ??_C@_1BK@LIMINNMN@?$AAg?$AAe?$AAr?$AAm?$AAa?$AAn?$AA?9?$AAs?$AAw?$AAi?$AAs?$AAs@ 0000000140068978     libucrt:get_qualified_locale.obj
 0002:00004998       ??_C@_1BM@LGMDBEPD@?$AAi?$AAr?$AAi?$AAs?$AAh?$AA?9?$AAe?$AAn?$AAg?$AAl?$AAi?$AAs?$AAh@ 0000000140068998     libucrt:get_qualified_locale.obj
 0002:000049b8       ??_C@_1BM@NNCFBAEE@?$AAi?$AAt?$AAa?$AAl?$AAi?$AAa?$AAn?$AA?9?$AAs?$AAw?$AAi?$AAs?$AAs@ 00000001400689b8     libucrt:get_qualified_locale.obj
 0002:000049d8       ??_C@_1BE@FEDJNPIB@?$AAn?$AAo?$AAr?$AAw?$AAe?$AAg?$AAi?$AAa?$AAn@ 00000001400689d8     libucrt:get_qualified_locale.obj
 0002:000049f0       ??_C@_1CC@CILKDEIE@?$AAn?$AAo?$AAr?$AAw?$AAe?$AAg?$AAi?$AAa?$AAn?$AA?9?$AAb?$AAo?$AAk?$AAm?$AAa@ 00000001400689f0     libucrt:get_qualified_locale.obj
 0002:00004a18       ??_C@_1CE@DHMMHEPL@?$AAn?$AAo?$AAr?$AAw?$AAe?$AAg?$AAi?$AAa?$AAn?$AA?9?$AAn?$AAy?$AAn?$AAo?$AAr@ 0000000140068a18     libucrt:get_qualified_locale.obj
 0002:00004a40       ??_C@_1CK@OPNMHECD@?$AAp?$AAo?$AAr?$AAt?$AAu?$AAg?$AAu?$AAe?$AAs?$AAe?$AA?9?$AAb?$AAr?$AAa?$AAz@ 0000000140068a40     libucrt:get_qualified_locale.obj
 0002:00004a70       ??_C@_1CE@KEEHCDB@?$AAs?$AAp?$AAa?$AAn?$AAi?$AAs?$AAh?$AA?9?$AAa?$AAr?$AAg?$AAe?$AAn?$AAt?$AAi@ 0000000140068a70     libucrt:get_qualified_locale.obj
 0002:00004a98       ??_C@_1CA@GIAOLHJD@?$AAs?$AAp?$AAa?$AAn?$AAi?$AAs?$AAh?$AA?9?$AAb?$AAo?$AAl?$AAi?$AAv?$AAi?$AAa@ 0000000140068a98     libucrt:get_qualified_locale.obj
 0002:00004ab8       ??_C@_1BM@OJNDFNPD@?$AAs?$AAp?$AAa?$AAn?$AAi?$AAs?$AAh?$AA?9?$AAc?$AAh?$AAi?$AAl?$AAe@ 0000000140068ab8     libucrt:get_qualified_locale.obj
 0002:00004ad8       ??_C@_1CC@OCOLPALL@?$AAs?$AAp?$AAa?$AAn?$AAi?$AAs?$AAh?$AA?9?$AAc?$AAo?$AAl?$AAo?$AAm?$AAb?$AAi@ 0000000140068ad8     libucrt:get_qualified_locale.obj
 0002:00004b00       ??_C@_1CG@BPOFMKBB@?$AAs?$AAp?$AAa?$AAn?$AAi?$AAs?$AAh?$AA?9?$AAc?$AAo?$AAs?$AAt?$AAa?$AA?5?$AAr@ 0000000140068b00     libucrt:get_qualified_locale.obj
 0002:00004b28       ??_C@_1DG@IGOBAPBB@?$AAs?$AAp?$AAa?$AAn?$AAi?$AAs?$AAh?$AA?9?$AAd?$AAo?$AAm?$AAi?$AAn?$AAi?$AAc@ 0000000140068b28     libucrt:get_qualified_locale.obj
 0002:00004b60       ??_C@_1CA@JHAPGEGI@?$AAs?$AAp?$AAa?$AAn?$AAi?$AAs?$AAh?$AA?9?$AAe?$AAc?$AAu?$AAa?$AAd?$AAo?$AAr@ 0000000140068b60     libucrt:get_qualified_locale.obj
 0002:00004b80       ??_C@_1CI@LAPALJPP@?$AAs?$AAp?$AAa?$AAn?$AAi?$AAs?$AAh?$AA?9?$AAe?$AAl?$AA?5?$AAs?$AAa?$AAl?$AAv@ 0000000140068b80     libucrt:get_qualified_locale.obj
 0002:00004ba8       ??_C@_1CE@PDGBOFOM@?$AAs?$AAp?$AAa?$AAn?$AAi?$AAs?$AAh?$AA?9?$AAg?$AAu?$AAa?$AAt?$AAe?$AAm?$AAa@ 0000000140068ba8     libucrt:get_qualified_locale.obj
 0002:00004bd0       ??_C@_1CC@NBEBAODI@?$AAs?$AAp?$AAa?$AAn?$AAi?$AAs?$AAh?$AA?9?$AAh?$AAo?$AAn?$AAd?$AAu?$AAr?$AAa@ 0000000140068bd0     libucrt:get_qualified_locale.obj
 0002:00004bf8       ??_C@_1CA@LLKGHBMF@?$AAs?$AAp?$AAa?$AAn?$AAi?$AAs?$AAh?$AA?9?$AAm?$AAe?$AAx?$AAi?$AAc?$AAa?$AAn@ 0000000140068bf8     libucrt:get_qualified_locale.obj
 0002:00004c18       ??_C@_1BO@LKNDOIGD@?$AAs?$AAp?$AAa?$AAn?$AAi?$AAs?$AAh?$AA?9?$AAm?$AAo?$AAd?$AAe?$AAr?$AAn@ 0000000140068c18     libucrt:get_qualified_locale.obj
 0002:00004c38       ??_C@_1CE@NMDMOEEB@?$AAs?$AAp?$AAa?$AAn?$AAi?$AAs?$AAh?$AA?9?$AAn?$AAi?$AAc?$AAa?$AAr?$AAa?$AAg@ 0000000140068c38     libucrt:get_qualified_locale.obj
 0002:00004c60       ??_C@_1BO@LLCBEJGB@?$AAs?$AAp?$AAa?$AAn?$AAi?$AAs?$AAh?$AA?9?$AAp?$AAa?$AAn?$AAa?$AAm?$AAa@ 0000000140068c60     libucrt:get_qualified_locale.obj
 0002:00004c80       ??_C@_1CC@FKPGGIHO@?$AAs?$AAp?$AAa?$AAn?$AAi?$AAs?$AAh?$AA?9?$AAp?$AAa?$AAr?$AAa?$AAg?$AAu?$AAa@ 0000000140068c80     libucrt:get_qualified_locale.obj
 0002:00004ca8       ??_C@_1BK@CDEIHOOP@?$AAs?$AAp?$AAa?$AAn?$AAi?$AAs?$AAh?$AA?9?$AAp?$AAe?$AAr?$AAu@ 0000000140068ca8     libucrt:get_qualified_locale.obj
 0002:00004cc8       ??_C@_1CI@GAHAKKGP@?$AAs?$AAp?$AAa?$AAn?$AAi?$AAs?$AAh?$AA?9?$AAp?$AAu?$AAe?$AAr?$AAt?$AAo?$AA?5@ 0000000140068cc8     libucrt:get_qualified_locale.obj
 0002:00004cf0       ??_C@_1CA@NKJBCAGP@?$AAs?$AAp?$AAa?$AAn?$AAi?$AAs?$AAh?$AA?9?$AAu?$AAr?$AAu?$AAg?$AAu?$AAa?$AAy@ 0000000140068cf0     libucrt:get_qualified_locale.obj
 0002:00004d10       ??_C@_1CE@ODILCONM@?$AAs?$AAp?$AAa?$AAn?$AAi?$AAs?$AAh?$AA?9?$AAv?$AAe?$AAn?$AAe?$AAz?$AAu?$AAe@ 0000000140068d10     libucrt:get_qualified_locale.obj
 0002:00004d38       ??_C@_1CA@OBNMCGFO@?$AAs?$AAw?$AAe?$AAd?$AAi?$AAs?$AAh?$AA?9?$AAf?$AAi?$AAn?$AAl?$AAa?$AAn?$AAd@ 0000000140068d38     libucrt:get_qualified_locale.obj
 0002:00004d58       ??_C@_1M@PIPDDPPI@?$AAs?$AAw?$AAi?$AAs?$AAs@ 0000000140068d58     libucrt:get_qualified_locale.obj
 0002:00004d64       ??_C@_15PJPFLCCM@?$AAu?$AAk@ 0000000140068d64     libucrt:get_qualified_locale.obj
 0002:00004d6c       ??_C@_15GMFIMNFM@?$AAu?$AAs@ 0000000140068d6c     libucrt:get_qualified_locale.obj
 0002:00004d78       ??_C@_17HAEBFAGL@?$AAu?$AAs?$AAa@ 0000000140068d78     libucrt:get_qualified_locale.obj
 0002:00004d80       ??_C@_1BA@DPFJEPHB@?$AAa?$AAm?$AAe?$AAr?$AAi?$AAc?$AAa@ 0000000140068d80     libucrt:get_qualified_locale.obj
 0002:00004d90       ??_C@_1BA@ELOGGFK@?$AAb?$AAr?$AAi?$AAt?$AAa?$AAi?$AAn@ 0000000140068d90     libucrt:get_qualified_locale.obj
 0002:00004da0       ??_C@_1M@GHBGIGDA@?$AAc?$AAh?$AAi?$AAn?$AAa@ 0000000140068da0     libucrt:get_qualified_locale.obj
 0002:00004db0       ??_C@_1M@NCHEJOPO@?$AAc?$AAz?$AAe?$AAc?$AAh@ 0000000140068db0     libucrt:get_qualified_locale.obj
 0002:00004dc0       ??_C@_1BA@BKPAPBLA@?$AAe?$AAn?$AAg?$AAl?$AAa?$AAn?$AAd@ 0000000140068dc0     libucrt:get_qualified_locale.obj
 0002:00004dd0       ??_C@_1BM@HKBCKIPC@?$AAg?$AAr?$AAe?$AAa?$AAt?$AA?5?$AAb?$AAr?$AAi?$AAt?$AAa?$AAi?$AAn@ 0000000140068dd0     libucrt:get_qualified_locale.obj
 0002:00004df0       ??_C@_1BA@PPCHPGJB@?$AAh?$AAo?$AAl?$AAl?$AAa?$AAn?$AAd@ 0000000140068df0     libucrt:get_qualified_locale.obj
 0002:00004e00       ??_C@_1BE@JBMPEGDG@?$AAh?$AAo?$AAn?$AAg?$AA?9?$AAk?$AAo?$AAn?$AAg@ 0000000140068e00     libucrt:get_qualified_locale.obj
 0002:00004e18       ??_C@_1BI@KOELBBPJ@?$AAn?$AAe?$AAw?$AA?9?$AAz?$AAe?$AAa?$AAl?$AAa?$AAn?$AAd@ 0000000140068e18     libucrt:get_qualified_locale.obj
 0002:00004e30       ??_C@_15HIEBHAIO@?$AAn?$AAz@ 0000000140068e30     libucrt:get_qualified_locale.obj
 0002:00004e38       ??_C@_1BC@CHBCPFPI@?$AAp?$AAr?$AA?5?$AAc?$AAh?$AAi?$AAn?$AAa@ 0000000140068e38     libucrt:get_qualified_locale.obj
 0002:00004e50       ??_C@_1BC@JAOIIFKD@?$AAp?$AAr?$AA?9?$AAc?$AAh?$AAi?$AAn?$AAa@ 0000000140068e50     libucrt:get_qualified_locale.obj
 0002:00004e68       ??_C@_1BI@BEHPPHKC@?$AAp?$AAu?$AAe?$AAr?$AAt?$AAo?$AA?9?$AAr?$AAi?$AAc?$AAo@ 0000000140068e68     libucrt:get_qualified_locale.obj
 0002:00004e80       ??_C@_1O@PAEOFKDI@?$AAs?$AAl?$AAo?$AAv?$AAa?$AAk@ 0000000140068e80     libucrt:get_qualified_locale.obj
 0002:00004e90       ??_C@_1BK@FIHMCKAM@?$AAs?$AAo?$AAu?$AAt?$AAh?$AA?5?$AAa?$AAf?$AAr?$AAi?$AAc?$AAa@ 0000000140068e90     libucrt:get_qualified_locale.obj
 0002:00004eb0       ??_C@_1BI@NAEOODKB@?$AAs?$AAo?$AAu?$AAt?$AAh?$AA?5?$AAk?$AAo?$AAr?$AAe?$AAa@ 0000000140068eb0     libucrt:get_qualified_locale.obj
 0002:00004ec8       ??_C@_1BK@FBDGGIFF@?$AAs?$AAo?$AAu?$AAt?$AAh?$AA?9?$AAa?$AAf?$AAr?$AAi?$AAc?$AAa@ 0000000140068ec8     libucrt:get_qualified_locale.obj
 0002:00004ee8       ??_C@_1BI@GHLEJDPK@?$AAs?$AAo?$AAu?$AAt?$AAh?$AA?9?$AAk?$AAo?$AAr?$AAe?$AAa@ 0000000140068ee8     libucrt:get_qualified_locale.obj
 0002:00004f00       ??_C@_1CE@PLHLOMJF@?$AAt?$AAr?$AAi?$AAn?$AAi?$AAd?$AAa?$AAd?$AA?5?$AA?$CG?$AA?5?$AAt?$AAo?$AAb?$AAa@ 0000000140068f00     libucrt:get_qualified_locale.obj
 0002:00004f28       ??_C@_1BO@MODIMHHI@?$AAu?$AAn?$AAi?$AAt?$AAe?$AAd?$AA?9?$AAk?$AAi?$AAn?$AAg?$AAd?$AAo?$AAm@ 0000000140068f28     libucrt:get_qualified_locale.obj
 0002:00004f48       ??_C@_1BM@FFHJONBJ@?$AAu?$AAn?$AAi?$AAt?$AAe?$AAd?$AA?9?$AAs?$AAt?$AAa?$AAt?$AAe?$AAs@ 0000000140068f48     libucrt:get_qualified_locale.obj
 0002:00004f68       ??_C@_19MPDNHKDG@?$AAu?$AAt?$AAf?$AA8@ 0000000140068f68     libucrt:get_qualified_locale.obj
 0002:00004f78       ??_C@_17DNCLJFIF@?$AAA?$AAC?$AAP@ 0000000140068f78     libucrt:get_qualified_locale.obj
 0002:00004f80       ??_C@_1M@FPEIIFAM@?$AAu?$AAt?$AAf?$AA?9?$AA8@ 0000000140068f80     libucrt:get_qualified_locale.obj
 0002:00004f90       ??_C@_17CIKBIHLH@?$AAO?$AAC?$AAP@ 0000000140068f90     libucrt:get_qualified_locale.obj
 0002:00004f98       __rglangidNotDefault       0000000140068f98     libucrt:getqloc_downlevel.obj
 0002:00005070       ??_C@_1EA@JGEFHKEI@?$AAa?$AAp?$AAi?$AA?9?$AAm?$AAs?$AA?9?$AAw?$AAi?$AAn?$AA?9?$AAc?$AAo?$AAr?$AAe@ 0000000140069070     libucrt:winapi_thunks.obj
 0002:000050b0       ??_C@_1DM@LFJCLCKP@?$AAa?$AAp?$AAi?$AA?9?$AAm?$AAs?$AA?9?$AAw?$AAi?$AAn?$AA?9?$AAc?$AAo?$AAr?$AAe@ 00000001400690b0     libucrt:winapi_thunks.obj
 0002:000050f0       ??_C@_1DI@KMEPCBPN@?$AAa?$AAp?$AAi?$AA?9?$AAm?$AAs?$AA?9?$AAw?$AAi?$AAn?$AA?9?$AAc?$AAo?$AAr?$AAe@ 00000001400690f0     libucrt:winapi_thunks.obj
 0002:00005128       ??_C@_1DI@IJCEHOCB@?$AAa?$AAp?$AAi?$AA?9?$AAm?$AAs?$AA?9?$AAw?$AAi?$AAn?$AA?9?$AAc?$AAo?$AAr?$AAe@ 0000000140069128     libucrt:winapi_thunks.obj
 0002:00005160       ??_C@_1DI@FFFOPEOO@?$AAa?$AAp?$AAi?$AA?9?$AAm?$AAs?$AA?9?$AAw?$AAi?$AAn?$AA?9?$AAc?$AAo?$AAr?$AAe@ 0000000140069160     libucrt:winapi_thunks.obj
 0002:000051a0       ??_C@_1EI@MPIAOHOC@?$AAa?$AAp?$AAi?$AA?9?$AAm?$AAs?$AA?9?$AAw?$AAi?$AAn?$AA?9?$AAc?$AAo?$AAr?$AAe@ 00000001400691a0     libucrt:winapi_thunks.obj
 0002:000051f0       ??_C@_1FK@FPHCKFIE@?$AAa?$AAp?$AAi?$AA?9?$AAm?$AAs?$AA?9?$AAw?$AAi?$AAn?$AA?9?$AAc?$AAo?$AAr?$AAe@ 00000001400691f0     libucrt:winapi_thunks.obj
 0002:00005250       ??_C@_1EM@DILCGIIO@?$AAa?$AAp?$AAi?$AA?9?$AAm?$AAs?$AA?9?$AAw?$AAi?$AAn?$AA?9?$AAc?$AAo?$AAr?$AAe@ 0000000140069250     libucrt:winapi_thunks.obj
 0002:000052a0       ??_C@_1DM@LNCGDDPN@?$AAa?$AAp?$AAi?$AA?9?$AAm?$AAs?$AA?9?$AAw?$AAi?$AAn?$AA?9?$AAc?$AAo?$AAr?$AAe@ 00000001400692a0     libucrt:winapi_thunks.obj
 0002:000052e0       ??_C@_1DO@FPAPJEMD@?$AAa?$AAp?$AAi?$AA?9?$AAm?$AAs?$AA?9?$AAw?$AAi?$AAn?$AA?9?$AAc?$AAo?$AAr?$AAe@ 00000001400692e0     libucrt:winapi_thunks.obj
 0002:00005320       ??_C@_1DK@NDHNAHIO@?$AAa?$AAp?$AAi?$AA?9?$AAm?$AAs?$AA?9?$AAw?$AAi?$AAn?$AA?9?$AAc?$AAo?$AAr?$AAe@ 0000000140069320     libucrt:winapi_thunks.obj
 0002:00005360       ??_C@_1DM@KGHDGBCM@?$AAa?$AAp?$AAi?$AA?9?$AAm?$AAs?$AA?9?$AAw?$AAi?$AAn?$AA?9?$AAc?$AAo?$AAr?$AAe@ 0000000140069360     libucrt:winapi_thunks.obj
 0002:000053a0       ??_C@_1EO@IJIOEFOH@?$AAa?$AAp?$AAi?$AA?9?$AAm?$AAs?$AA?9?$AAw?$AAi?$AAn?$AA?9?$AAr?$AAt?$AAc?$AAo@ 00000001400693a0     libucrt:winapi_thunks.obj
 0002:000053f0       ??_C@_1FG@HHGEKANL@?$AAa?$AAp?$AAi?$AA?9?$AAm?$AAs?$AA?9?$AAw?$AAi?$AAn?$AA?9?$AAs?$AAe?$AAc?$AAu@ 00000001400693f0     libucrt:winapi_thunks.obj
 0002:00005450       ??_C@_1EG@DBIOJECG@?$AAe?$AAx?$AAt?$AA?9?$AAm?$AAs?$AA?9?$AAw?$AAi?$AAn?$AA?9?$AAn?$AAt?$AAu?$AAs@ 0000000140069450     libucrt:winapi_thunks.obj
 0002:000054a0       ??_C@_1EO@FIHMJCLF@?$AAe?$AAx?$AAt?$AA?9?$AAm?$AAs?$AA?9?$AAw?$AAi?$AAn?$AA?9?$AAn?$AAt?$AAu?$AAs@ 00000001400694a0     libucrt:winapi_thunks.obj
 0002:000054f0       ??_C@_1BC@DNHGCMLG@?$AAa?$AAd?$AAv?$AAa?$AAp?$AAi?$AA3?$AA2@ 00000001400694f0     libucrt:winapi_thunks.obj
 0002:00005508       ??_C@_1BG@CJPGBMEF@?$AAk?$AAe?$AAr?$AAn?$AAe?$AAl?$AAb?$AAa?$AAs?$AAe@ 0000000140069508     libucrt:winapi_thunks.obj
 0002:00005520       ??_C@_1M@OAIMIKLP@?$AAn?$AAt?$AAd?$AAl?$AAl@ 0000000140069520     libucrt:winapi_thunks.obj
